
========================================================================

** ELF Header Information

    File Name: .\obj\EADC_SWTRG_Trigger.axf

    Machine class: ELFCLASS32 (32-bit)
    Data encoding: ELFDATA2LSB (Little endian)
    Header version: EV_CURRENT (Current version)
    Operating System ABI: none
    ABI Version: 0
    File Type: ET_EXEC (Executable) (2)
    Machine: EM_ARM (ARM)

    Image Entry point: 0x00000225
    Flags: EF_ARM_HASENTRY (0x05000002)

    ARM ELF revision: 5 (ABI version 2)

    Conforms to Base float procedure-call standard

    Built with
    Component: ARM Compiler 5.06 update 6 (build 750) Tool: armasm [4d35ec]
    Component: ARM Compiler 5.06 update 6 (build 750) Tool: armlink [4d35ed]

    Header size: 52 bytes (0x34)
    Program header entry size: 32 bytes (0x20)
    Section header entry size: 40 bytes (0x28)

    Program header entries: 1
    Section header entries: 16

    Program header offset: 445464 (0x0006cc18)
    Section header offset: 445496 (0x0006cc38)

    Section header string table index: 15

========================================================================

** Program header #0 (PT_LOAD) [PF_X + PF_W + PF_R + PF_ARM_ENTRY]
    Size : 49248 bytes (32724 bytes in file)
    Virtual address: 0x00000000 (Alignment 8)


========================================================================

** Section #1 'ER_RO' (SHT_PROGBITS) [SHF_ALLOC + SHF_EXECINSTR]
    Size   : 28896 bytes (alignment 4)
    Address: 0x00000000

    $d.realdata
    RESET
    __Vectors
        0x00000000:    20004f80    .O.     DCD    536891264
        0x00000004:    00000225    %...    DCD    549
        0x00000008:    00000265    e...    DCD    613
        0x0000000c:    00000209    ....    DCD    521
        0x00000010:    00000269    i...    DCD    617
        0x00000014:    0000026b    k...    DCD    619
        0x00000018:    0000026d    m...    DCD    621
        0x0000001c:    00000000    ....    DCD    0
        0x00000020:    00000000    ....    DCD    0
        0x00000024:    00000000    ....    DCD    0
        0x00000028:    00000000    ....    DCD    0
        0x0000002c:    0000026f    o...    DCD    623
        0x00000030:    00000271    q...    DCD    625
        0x00000034:    00000000    ....    DCD    0
        0x00000038:    00000273    s...    DCD    627
        0x0000003c:    00000275    u...    DCD    629
        0x00000040:    00000277    w...    DCD    631
        0x00000044:    00000277    w...    DCD    631
        0x00000048:    00000277    w...    DCD    631
        0x0000004c:    00000277    w...    DCD    631
        0x00000050:    00000277    w...    DCD    631
        0x00000054:    00000277    w...    DCD    631
        0x00000058:    00000277    w...    DCD    631
        0x0000005c:    00000277    w...    DCD    631
        0x00000060:    00000277    w...    DCD    631
        0x00000064:    00000277    w...    DCD    631
        0x00000068:    00000277    w...    DCD    631
        0x0000006c:    00000277    w...    DCD    631
        0x00000070:    00000277    w...    DCD    631
        0x00000074:    00000277    w...    DCD    631
        0x00000078:    00000277    w...    DCD    631
        0x0000007c:    00000277    w...    DCD    631
        0x00000080:    00000277    w...    DCD    631
        0x00000084:    00000277    w...    DCD    631
        0x00000088:    00000277    w...    DCD    631
        0x0000008c:    00000277    w...    DCD    631
        0x00000090:    00000277    w...    DCD    631
        0x00000094:    00000277    w...    DCD    631
        0x00000098:    00000277    w...    DCD    631
        0x0000009c:    00000277    w...    DCD    631
        0x000000a0:    00000277    w...    DCD    631
        0x000000a4:    00000277    w...    DCD    631
        0x000000a8:    00000277    w...    DCD    631
        0x000000ac:    00000277    w...    DCD    631
        0x000000b0:    00000277    w...    DCD    631
        0x000000b4:    00000277    w...    DCD    631
        0x000000b8:    00000277    w...    DCD    631
        0x000000bc:    00000277    w...    DCD    631
        0x000000c0:    00004921    !I..    DCD    18721
        0x000000c4:    00004941    AI..    DCD    18753
        0x000000c8:    00000277    w...    DCD    631
        0x000000cc:    00000277    w...    DCD    631
        0x000000d0:    000049c9    .I..    DCD    18889
        0x000000d4:    000049f1    .I..    DCD    18929
        0x000000d8:    00001935    5...    DCD    6453
        0x000000dc:    00000277    w...    DCD    631
        0x000000e0:    00000277    w...    DCD    631
        0x000000e4:    00000277    w...    DCD    631
        0x000000e8:    000015cd    ....    DCD    5581
        0x000000ec:    00000277    w...    DCD    631
        0x000000f0:    00000277    w...    DCD    631
        0x000000f4:    00000277    w...    DCD    631
        0x000000f8:    00000277    w...    DCD    631
        0x000000fc:    00000277    w...    DCD    631
        0x00000100:    00004a19    .J..    DCD    18969
        0x00000104:    00000277    w...    DCD    631
        0x00000108:    00000277    w...    DCD    631
        0x0000010c:    00000277    w...    DCD    631
        0x00000110:    00000277    w...    DCD    631
        0x00000114:    00000277    w...    DCD    631
        0x00000118:    00000277    w...    DCD    631
        0x0000011c:    00000277    w...    DCD    631
        0x00000120:    00000277    w...    DCD    631
        0x00000124:    00000277    w...    DCD    631
        0x00000128:    00000277    w...    DCD    631
        0x0000012c:    00000277    w...    DCD    631
        0x00000130:    00000277    w...    DCD    631
        0x00000134:    00000277    w...    DCD    631
        0x00000138:    00000277    w...    DCD    631
        0x0000013c:    00000277    w...    DCD    631
        0x00000140:    00000277    w...    DCD    631
        0x00000144:    00000277    w...    DCD    631
        0x00000148:    00000277    w...    DCD    631
        0x0000014c:    00000277    w...    DCD    631
        0x00000150:    00000277    w...    DCD    631
        0x00000154:    00000277    w...    DCD    631
        0x00000158:    00000277    w...    DCD    631
        0x0000015c:    00000277    w...    DCD    631
        0x00000160:    00000277    w...    DCD    631
        0x00000164:    00000277    w...    DCD    631
        0x00000168:    00000277    w...    DCD    631
        0x0000016c:    00000277    w...    DCD    631
        0x00000170:    00000277    w...    DCD    631
        0x00000174:    00000277    w...    DCD    631
        0x00000178:    00000277    w...    DCD    631
        0x0000017c:    00000277    w...    DCD    631
        0x00000180:    00000277    w...    DCD    631
        0x00000184:    00000277    w...    DCD    631
        0x00000188:    00000277    w...    DCD    631
        0x0000018c:    00000277    w...    DCD    631
        0x00000190:    00000277    w...    DCD    631
        0x00000194:    00000277    w...    DCD    631
        0x00000198:    00000277    w...    DCD    631
        0x0000019c:    00000277    w...    DCD    631
        0x000001a0:    00000277    w...    DCD    631
        0x000001a4:    00000277    w...    DCD    631
        0x000001a8:    00000277    w...    DCD    631
        0x000001ac:    00000277    w...    DCD    631
        0x000001b0:    00000277    w...    DCD    631
        0x000001b4:    00000277    w...    DCD    631
        0x000001b8:    00000277    w...    DCD    631
        0x000001bc:    00000277    w...    DCD    631
        0x000001c0:    00000277    w...    DCD    631
        0x000001c4:    00000277    w...    DCD    631
        0x000001c8:    00000277    w...    DCD    631
        0x000001cc:    00000277    w...    DCD    631
        0x000001d0:    00000277    w...    DCD    631
        0x000001d4:    00000277    w...    DCD    631
        0x000001d8:    00000277    w...    DCD    631
        0x000001dc:    00000277    w...    DCD    631
        0x000001e0:    00000277    w...    DCD    631
        0x000001e4:    00000277    w...    DCD    631
        0x000001e8:    00000277    w...    DCD    631
        0x000001ec:    00000277    w...    DCD    631
        0x000001f0:    00000277    w...    DCD    631
    $t
    .ARM.Collect$$$$00000000
    .ARM.Collect$$$$00000001
    __Vectors_End
    __main
    _main_stk
        0x000001f4:    f8dfd00c    ....    LDR      sp,__lit__00000000 ; [0x204] = 0x20004f80
    .ARM.Collect$$$$00000004
    _main_scatterload
        0x000001f8:    f000fd10    ....    BL       __scatterload ; 0xc1c
    .ARM.Collect$$$$00000008
    .ARM.Collect$$$$0000000A
    .ARM.Collect$$$$0000000B
    __main_after_scatterload
    _main_clock
    _main_cpp_init
    _main_init
        0x000001fc:    4800        .H      LDR      r0,[pc,#0] ; [0x200] = 0x60c1
        0x000001fe:    4700        .G      BX       r0
    $d
        0x00000200:    000060c1    .`..    DCD    24769
    .ARM.Collect$$$$00002712
    __lit__00000000
    .ARM.Collect$$$$0000000D
    .ARM.Collect$$$$0000000F
    __rt_final_cpp
    __rt_final_exit
        0x00000204:    20004f80    .O.     DCD    536891264
    $t
    .emb_text
    $v0
    HardFault_Handler
        0x00000208:    2004        .       MOVS     r0,#4
        0x0000020a:    4671        qF      MOV      r1,lr
        0x0000020c:    4208        .B      TST      r0,r1
        0x0000020e:    d002        ..      BEQ      0x216 ; HardFault_Handler + 14
        0x00000210:    f3ef8009    ....    MRS      r0,PSP
        0x00000214:    e001        ..      B        0x21a ; HardFault_Handler + 18
        0x00000216:    f3ef8008    ....    MRS      r0,MSP
        0x0000021a:    4671        qF      MOV      r1,lr
        0x0000021c:    4a00        .J      LDR      r2,[pc,#0] ; [0x220] = 0x18f9
        0x0000021e:    4710        .G      BX       r2
    $d
        0x00000220:    000018f9    ....    DCD    6393
    $t
    .text
    $v0
    Reset_Handler
        0x00000224:    4814        .H      LDR      r0,[pc,#80] ; [0x278] = 0x40000100
        0x00000226:    f04f0159    O.Y.    MOV      r1,#0x59
        0x0000022a:    6001        .`      STR      r1,[r0,#0]
        0x0000022c:    f04f0116    O...    MOV      r1,#0x16
        0x00000230:    6001        .`      STR      r1,[r0,#0]
        0x00000232:    f04f0188    O...    MOV      r1,#0x88
        0x00000236:    6001        .`      STR      r1,[r0,#0]
        0x00000238:    4810        .H      LDR      r0,[pc,#64] ; [0x27c] = 0x40000200
        0x0000023a:    6841        Ah      LDR      r1,[r0,#4]
        0x0000023c:    f4414180    A..A    ORR      r1,r1,#0x4000
        0x00000240:    6041        A`      STR      r1,[r0,#4]
        0x00000242:    480f        .H      LDR      r0,[pc,#60] ; [0x280] = 0x40007000
        0x00000244:    6841        Ah      LDR      r1,[r0,#4]
        0x00000246:    f0410102    A...    ORR      r1,r1,#2
        0x0000024a:    6041        A`      STR      r1,[r0,#4]
        0x0000024c:    6841        Ah      LDR      r1,[r0,#4]
        0x0000024e:    f0410104    A...    ORR      r1,r1,#4
        0x00000252:    6041        A`      STR      r1,[r0,#4]
        0x00000254:    480b        .H      LDR      r0,[pc,#44] ; [0x284] = 0x47f9
        0x00000256:    4780        .G      BLX      r0
        0x00000258:    4807        .H      LDR      r0,[pc,#28] ; [0x278] = 0x40000100
        0x0000025a:    f04f0100    O...    MOV      r1,#0
        0x0000025e:    6001        .`      STR      r1,[r0,#0]
        0x00000260:    4809        .H      LDR      r0,[pc,#36] ; [0x288] = 0x1f5
        0x00000262:    4700        .G      BX       r0
    NMI_Handler
        0x00000264:    e7fe        ..      B        NMI_Handler ; 0x264
        0x00000266:    e7fe        ..      B        0x266 ; NMI_Handler + 2
    MemManage_Handler
        0x00000268:    e7fe        ..      B        MemManage_Handler ; 0x268
    BusFault_Handler
        0x0000026a:    e7fe        ..      B        BusFault_Handler ; 0x26a
    UsageFault_Handler
        0x0000026c:    e7fe        ..      B        UsageFault_Handler ; 0x26c
    SVC_Handler
        0x0000026e:    e7fe        ..      B        SVC_Handler ; 0x26e
    DebugMon_Handler
        0x00000270:    e7fe        ..      B        DebugMon_Handler ; 0x270
    PendSV_Handler
        0x00000272:    e7fe        ..      B        PendSV_Handler ; 0x272
    SysTick_Handler
        0x00000274:    e7fe        ..      B        SysTick_Handler ; 0x274
    Default_Handler
    ACMP01_IRQHandler
    BOD_IRQHandler
    BPWM0_IRQHandler
    BPWM1_IRQHandler
    BRAKE0_IRQHandler
    BRAKE1_IRQHandler
    CAN0_IRQHandler
    CAN1_IRQHandler
    CAN2_IRQHandler
    CCAP_IRQHandler
    CKFAIL_IRQHandler
    CRYPTO_IRQHandler
    DAC_IRQHandler
    EADC01_IRQHandler
    EADC02_IRQHandler
    EADC03_IRQHandler
    EADC10_IRQHandler
    EADC11_IRQHandler
    EADC12_IRQHandler
    EADC13_IRQHandler
    ECAP0_IRQHandler
    ECAP1_IRQHandler
    EHCI_IRQHandler
    EINT0_IRQHandler
    EINT1_IRQHandler
    EINT2_IRQHandler
    EINT3_IRQHandler
    EINT4_IRQHandler
    EINT5_IRQHandler
    EINT6_IRQHandler
    EINT7_IRQHandler
    EMAC_RX_IRQHandler
    EMAC_TX_IRQHandler
    EPWM0P0_IRQHandler
    EPWM0P1_IRQHandler
    EPWM0P2_IRQHandler
    EPWM1P0_IRQHandler
    EPWM1P1_IRQHandler
    EPWM1P2_IRQHandler
    GPA_IRQHandler
    GPB_IRQHandler
    GPC_IRQHandler
    GPD_IRQHandler
    GPE_IRQHandler
    GPF_IRQHandler
    GPG_IRQHandler
    GPH_IRQHandler
    I2C1_IRQHandler
    I2C2_IRQHandler
    I2S0_IRQHandler
    IRC_IRQHandler
    OHCI_IRQHandler
    OPA0_IRQHandler
    PDMA_IRQHandler
    PWRWU_IRQHandler
    QEI0_IRQHandler
    QEI1_IRQHandler
    QSPI0_IRQHandler
    QSPI1_IRQHandler
    RAMPE_IRQHandler
    RTC_IRQHandler
    SC0_IRQHandler
    SC1_IRQHandler
    SC2_IRQHandler
    SDH0_IRQHandler
    SDH1_IRQHandler
    SPI0_IRQHandler
    SPI1_IRQHandler
    SPI2_IRQHandler
    SPI3_IRQHandler
    SPIM_IRQHandler
    TAMPER_IRQHandler
    TMR2_IRQHandler
    TMR3_IRQHandler
    TRNG_IRQHandler
    UART3_IRQHandler
    UART4_IRQHandler
    UART5_IRQHandler
    UART6_IRQHandler
    UART7_IRQHandler
    USBD20_IRQHandler
    USBD_IRQHandler
    USBOTG20_IRQHandler
    USBOTG_IRQHandler
    USCI0_IRQHandler
    USCI1_IRQHandler
    WDT_IRQHandler
    WWDT_IRQHandler
        0x00000276:    e7fe        ..      B        Default_Handler ; 0x276
    $d
        0x00000278:    40000100    ...@    DCD    1073742080
        0x0000027c:    40000200    ...@    DCD    1073742336
        0x00000280:    40007000    .p.@    DCD    1073770496
        0x00000284:    000047f9    .G..    DCD    18425
        0x00000288:    000001f5    ....    DCD    501
    $t
    .text
    __rt_ctype_table
        0x0000028c:    4800        .H      LDR      r0,[pc,#0] ; [0x290] = 0x6e28
        0x0000028e:    4770        pG      BX       lr
    $d
        0x00000290:    00006e28    (n..    DCD    28200
    $t
    .text
    isspace
        0x00000294:    b510        ..      PUSH     {r4,lr}
        0x00000296:    4604        .F      MOV      r4,r0
        0x00000298:    f7fffff8    ....    BL       __rt_ctype_table ; 0x28c
        0x0000029c:    6800        .h      LDR      r0,[r0,#0]
        0x0000029e:    5d00        .]      LDRB     r0,[r0,r4]
        0x000002a0:    f0000001    ....    AND      r0,r0,#1
        0x000002a4:    bd10        ..      POP      {r4,pc}
    .text
    __aeabi_memcpy
    __aeabi_memcpy4
    __aeabi_memcpy8
        0x000002a6:    ea400301    @...    ORR      r3,r0,r1
        0x000002aa:    079b        ..      LSLS     r3,r3,#30
        0x000002ac:    d003        ..      BEQ      0x2b6 ; __aeabi_memcpy + 16
        0x000002ae:    e009        ..      B        0x2c4 ; __aeabi_memcpy + 30
        0x000002b0:    c908        ..      LDM      r1!,{r3}
        0x000002b2:    1f12        ..      SUBS     r2,r2,#4
        0x000002b4:    c008        ..      STM      r0!,{r3}
        0x000002b6:    2a04        .*      CMP      r2,#4
        0x000002b8:    d2fa        ..      BCS      0x2b0 ; __aeabi_memcpy + 10
        0x000002ba:    e003        ..      B        0x2c4 ; __aeabi_memcpy + 30
        0x000002bc:    f8113b01    ...;    LDRB     r3,[r1],#1
        0x000002c0:    f8003b01    ...;    STRB     r3,[r0],#1
        0x000002c4:    1e52        R.      SUBS     r2,r2,#1
        0x000002c6:    d2f9        ..      BCS      0x2bc ; __aeabi_memcpy + 22
        0x000002c8:    4770        pG      BX       lr
    .text
    __aeabi_memset
    __aeabi_memset4
    __aeabi_memset8
        0x000002ca:    b2d2        ..      UXTB     r2,r2
        0x000002cc:    e001        ..      B        0x2d2 ; __aeabi_memset + 8
        0x000002ce:    f8002b01    ...+    STRB     r2,[r0],#1
        0x000002d2:    1e49        I.      SUBS     r1,r1,#1
        0x000002d4:    d2fb        ..      BCS      0x2ce ; __aeabi_memset + 4
        0x000002d6:    4770        pG      BX       lr
    __aeabi_memclr
    __aeabi_memclr4
    __aeabi_memclr8
        0x000002d8:    2200        ."      MOVS     r2,#0
        0x000002da:    e7f6        ..      B        __aeabi_memset ; 0x2ca
    _memset$wrapper
        0x000002dc:    b510        ..      PUSH     {r4,lr}
        0x000002de:    4613        .F      MOV      r3,r2
        0x000002e0:    460a        .F      MOV      r2,r1
        0x000002e2:    4604        .F      MOV      r4,r0
        0x000002e4:    4619        .F      MOV      r1,r3
        0x000002e6:    f7fffff0    ....    BL       __aeabi_memset ; 0x2ca
        0x000002ea:    4620         F      MOV      r0,r4
        0x000002ec:    bd10        ..      POP      {r4,pc}
    .text
    strstr
        0x000002ee:    b530        0.      PUSH     {r4,r5,lr}
        0x000002f0:    4605        .F      MOV      r5,r0
        0x000002f2:    462a        *F      MOV      r2,r5
        0x000002f4:    460b        .F      MOV      r3,r1
        0x000002f6:    f8120b01    ....    LDRB     r0,[r2],#1
        0x000002fa:    f8134b01    ...K    LDRB     r4,[r3],#1
        0x000002fe:    b108        ..      CBZ      r0,0x304 ; strstr + 22
        0x00000300:    42a0        .B      CMP      r0,r4
        0x00000302:    d0f8        ..      BEQ      0x2f6 ; strstr + 8
        0x00000304:    b11c        ..      CBZ      r4,0x30e ; strstr + 32
        0x00000306:    2800        .(      CMP      r0,#0
        0x00000308:    d002        ..      BEQ      0x310 ; strstr + 34
        0x0000030a:    1c6d        m.      ADDS     r5,r5,#1
        0x0000030c:    e7f1        ..      B        0x2f2 ; strstr + 4
        0x0000030e:    4628        (F      MOV      r0,r5
        0x00000310:    bd30        0.      POP      {r4,r5,pc}
    .text
    strncpy
        0x00000312:    b510        ..      PUSH     {r4,lr}
        0x00000314:    4604        .F      MOV      r4,r0
        0x00000316:    e004        ..      B        0x322 ; strncpy + 16
        0x00000318:    780b        .x      LDRB     r3,[r1,#0]
        0x0000031a:    f8003b01    ...;    STRB     r3,[r0],#1
        0x0000031e:    b103        ..      CBZ      r3,0x322 ; strncpy + 16
        0x00000320:    1c49        I.      ADDS     r1,r1,#1
        0x00000322:    1e52        R.      SUBS     r2,r2,#1
        0x00000324:    d2f8        ..      BCS      0x318 ; strncpy + 6
        0x00000326:    4620         F      MOV      r0,r4
        0x00000328:    bd10        ..      POP      {r4,pc}
    .text
    strlen
        0x0000032a:    1c42        B.      ADDS     r2,r0,#1
        0x0000032c:    f8101b01    ....    LDRB     r1,[r0],#1
        0x00000330:    2900        .)      CMP      r1,#0
        0x00000332:    d1fb        ..      BNE      0x32c ; strlen + 2
        0x00000334:    1a80        ..      SUBS     r0,r0,r2
        0x00000336:    4770        pG      BX       lr
    .text
    strcpy
        0x00000338:    4603        .F      MOV      r3,r0
        0x0000033a:    f8112b01    ...+    LDRB     r2,[r1],#1
        0x0000033e:    f8002b01    ...+    STRB     r2,[r0],#1
        0x00000342:    2a00        .*      CMP      r2,#0
        0x00000344:    d1f9        ..      BNE      0x33a ; strcpy + 2
        0x00000346:    4618        .F      MOV      r0,r3
        0x00000348:    4770        pG      BX       lr
        0x0000034a:    0000        ..      MOVS     r0,r0
    .text
    strtok
        0x0000034c:    b570        p.      PUSH     {r4-r6,lr}
        0x0000034e:    4d0f        .M      LDR      r5,[pc,#60] ; [0x38c] = 0x20000ef0
        0x00000350:    b900        ..      CBNZ     r0,0x354 ; strtok + 8
        0x00000352:    6828        (h      LDR      r0,[r5,#0]
        0x00000354:    2400        .$      MOVS     r4,#0
        0x00000356:    e012        ..      B        0x37e ; strtok + 50
        0x00000358:    460a        .F      MOV      r2,r1
        0x0000035a:    e002        ..      B        0x362 ; strtok + 22
        0x0000035c:    429e        .B      CMP      r6,r3
        0x0000035e:    d003        ..      BEQ      0x368 ; strtok + 28
        0x00000360:    1c52        R.      ADDS     r2,r2,#1
        0x00000362:    7813        .x      LDRB     r3,[r2,#0]
        0x00000364:    2b00        .+      CMP      r3,#0
        0x00000366:    d1f9        ..      BNE      0x35c ; strtok + 16
        0x00000368:    b2da        ..      UXTB     r2,r3
        0x0000036a:    4322        "C      ORRS     r2,r2,r4
        0x0000036c:    d005        ..      BEQ      0x37a ; strtok + 46
        0x0000036e:    b12b        +.      CBZ      r3,0x37c ; strtok + 48
        0x00000370:    b124        $.      CBZ      r4,0x37c ; strtok + 48
        0x00000372:    2100        .!      MOVS     r1,#0
        0x00000374:    f8001b01    ....    STRB     r1,[r0],#1
        0x00000378:    e004        ..      B        0x384 ; strtok + 56
        0x0000037a:    4604        .F      MOV      r4,r0
        0x0000037c:    1c40        @.      ADDS     r0,r0,#1
        0x0000037e:    7806        .x      LDRB     r6,[r0,#0]
        0x00000380:    2e00        ..      CMP      r6,#0
        0x00000382:    d1e9        ..      BNE      0x358 ; strtok + 12
        0x00000384:    6028        (`      STR      r0,[r5,#0]
        0x00000386:    4620         F      MOV      r0,r4
        0x00000388:    bd70        p.      POP      {r4-r6,pc}
    $d
        0x0000038a:    0000        ..      DCW    0
        0x0000038c:    20000ef0    ...     DCD    536874736
    $t
    .text
    __0sscanf
        0x00000390:    b40f        ..      PUSH     {r0-r3}
        0x00000392:    b500        ..      PUSH     {lr}
        0x00000394:    b08d        ..      SUB      sp,sp,#0x34
        0x00000396:    a910        ..      ADD      r1,sp,#0x40
        0x00000398:    9009        ..      STR      r0,[sp,#0x24]
        0x0000039a:    900b        ..      STR      r0,[sp,#0x2c]
        0x0000039c:    9100        ..      STR      r1,[sp,#0]
        0x0000039e:    f04f30ff    O..0    MOV      r0,#0xffffffff
        0x000003a2:    900a        ..      STR      r0,[sp,#0x28]
        0x000003a4:    2000        .       MOVS     r0,#0
        0x000003a6:    900c        ..      STR      r0,[sp,#0x30]
        0x000003a8:    4805        .H      LDR      r0,[pc,#20] ; [0x3c0] = 0xa85
        0x000003aa:    9006        ..      STR      r0,[sp,#0x18]
        0x000003ac:    4805        .H      LDR      r0,[pc,#20] ; [0x3c4] = 0xaa3
        0x000003ae:    9007        ..      STR      r0,[sp,#0x1c]
        0x000003b0:    466a        jF      MOV      r2,sp
        0x000003b2:    a809        ..      ADD      r0,sp,#0x24
        0x000003b4:    990f        ..      LDR      r1,[sp,#0x3c]
        0x000003b6:    f000fb57    ..W.    BL       __vfscanf_char ; 0xa68
        0x000003ba:    b00d        ..      ADD      sp,sp,#0x34
        0x000003bc:    f85dfb14    ]...    LDR      pc,[sp],#0x14
    $d
        0x000003c0:    00000a85    ....    DCD    2693
        0x000003c4:    00000aa3    ....    DCD    2723
    $t
    .text
    _scanf_int
        0x000003c8:    e92d5fff    -.._    PUSH     {r0-r12,lr}
        0x000003cc:    461d        .F      MOV      r5,r3
        0x000003ce:    f04f3bff    O..;    MOV      r11,#0xffffffff
        0x000003d2:    e9d54601    ...F    LDRD     r4,r6,[r5,#4]
        0x000003d6:    4691        .F      MOV      r9,r2
        0x000003d8:    465f        _F      MOV      r7,r11
        0x000003da:    f04f0800    O...    MOV      r8,#0
        0x000003de:    69a9        .i      LDR      r1,[r5,#0x18]
        0x000003e0:    1c7f        ..      ADDS     r7,r7,#1
        0x000003e2:    9801        ..      LDR      r0,[sp,#4]
        0x000003e4:    4788        .G      BLX      r1
        0x000003e6:    6a29        )j      LDR      r1,[r5,#0x20]
        0x000003e8:    4682        .F      MOV      r10,r0
        0x000003ea:    4788        .G      BLX      r1
        0x000003ec:    2800        .(      CMP      r0,#0
        0x000003ee:    d1f6        ..      BNE      0x3de ; _scanf_int + 22
        0x000003f0:    f1ba3fff    ...?    CMP      r10,#0xffffffff
        0x000003f4:    d00c        ..      BEQ      0x410 ; _scanf_int + 72
        0x000003f6:    f42464c0    $..d    BIC      r4,r4,#0x600
        0x000003fa:    2e00        ..      CMP      r6,#0
        0x000003fc:    dd19        ..      BLE      0x432 ; _scanf_int + 106
        0x000003fe:    0660        `.      LSLS     r0,r4,#25
        0x00000400:    d514        ..      BPL      0x42c ; _scanf_int + 100
        0x00000402:    f1ba0f2b    ..+.    CMP      r10,#0x2b
        0x00000406:    d009        ..      BEQ      0x41c ; _scanf_int + 84
        0x00000408:    f1ba0f2d    ..-.    CMP      r10,#0x2d
        0x0000040c:    d10e        ..      BNE      0x42c ; _scanf_int + 100
        0x0000040e:    e003        ..      B        0x418 ; _scanf_int + 80
        0x00000410:    4658        XF      MOV      r0,r11
        0x00000412:    b004        ..      ADD      sp,sp,#0x10
        0x00000414:    e8bd9ff0    ....    POP      {r4-r12,pc}
        0x00000418:    f4446480    D..d    ORR      r4,r4,#0x400
        0x0000041c:    69a9        .i      LDR      r1,[r5,#0x18]
        0x0000041e:    1c7f        ..      ADDS     r7,r7,#1
        0x00000420:    9801        ..      LDR      r0,[sp,#4]
        0x00000422:    4788        .G      BLX      r1
        0x00000424:    1e76        v.      SUBS     r6,r6,#1
        0x00000426:    4682        .F      MOV      r10,r0
        0x00000428:    2e00        ..      CMP      r6,#0
        0x0000042a:    dd02        ..      BLE      0x432 ; _scanf_int + 106
        0x0000042c:    f1ba0f30    ..0.    CMP      r10,#0x30
        0x00000430:    d003        ..      BEQ      0x43a ; _scanf_int + 114
        0x00000432:    f1b90f00    ....    CMP      r9,#0
        0x00000436:    d026        &.      BEQ      0x486 ; _scanf_int + 190
        0x00000438:    e032        2.      B        0x4a0 ; _scanf_int + 216
        0x0000043a:    69a9        .i      LDR      r1,[r5,#0x18]
        0x0000043c:    1e76        v.      SUBS     r6,r6,#1
        0x0000043e:    f4447400    D..t    ORR      r4,r4,#0x200
        0x00000442:    1c7f        ..      ADDS     r7,r7,#1
        0x00000444:    9801        ..      LDR      r0,[sp,#4]
        0x00000446:    4788        .G      BLX      r1
        0x00000448:    4682        .F      MOV      r10,r0
        0x0000044a:    2e00        ..      CMP      r6,#0
        0x0000044c:    dd05        ..      BLE      0x45a ; _scanf_int + 146
        0x0000044e:    f1ba0f78    ..x.    CMP      r10,#0x78
        0x00000452:    d006        ..      BEQ      0x462 ; _scanf_int + 154
        0x00000454:    f1ba0f58    ..X.    CMP      r10,#0x58
        0x00000458:    d003        ..      BEQ      0x462 ; _scanf_int + 154
        0x0000045a:    f1b90f00    ....    CMP      r9,#0
        0x0000045e:    d010        ..      BEQ      0x482 ; _scanf_int + 186
        0x00000460:    e01e        ..      B        0x4a0 ; _scanf_int + 216
        0x00000462:    f1b90f00    ....    CMP      r9,#0
        0x00000466:    d002        ..      BEQ      0x46e ; _scanf_int + 166
        0x00000468:    f1b90f10    ....    CMP      r9,#0x10
        0x0000046c:    d118        ..      BNE      0x4a0 ; _scanf_int + 216
        0x0000046e:    69a9        .i      LDR      r1,[r5,#0x18]
        0x00000470:    1e76        v.      SUBS     r6,r6,#1
        0x00000472:    f4247400    $..t    BIC      r4,r4,#0x200
        0x00000476:    1c7f        ..      ADDS     r7,r7,#1
        0x00000478:    9801        ..      LDR      r0,[sp,#4]
        0x0000047a:    4788        .G      BLX      r1
        0x0000047c:    4682        .F      MOV      r10,r0
        0x0000047e:    2010        .       MOVS     r0,#0x10
        0x00000480:    e002        ..      B        0x488 ; _scanf_int + 192
        0x00000482:    2008        .       MOVS     r0,#8
        0x00000484:    e000        ..      B        0x488 ; _scanf_int + 192
        0x00000486:    200a        .       MOVS     r0,#0xa
        0x00000488:    4681        .F      MOV      r9,r0
        0x0000048a:    e009        ..      B        0x4a0 ; _scanf_int + 216
        0x0000048c:    fb080809    ....    MLA      r8,r8,r9,r0
        0x00000490:    69a9        .i      LDR      r1,[r5,#0x18]
        0x00000492:    1e76        v.      SUBS     r6,r6,#1
        0x00000494:    f4447400    D..t    ORR      r4,r4,#0x200
        0x00000498:    1c7f        ..      ADDS     r7,r7,#1
        0x0000049a:    9801        ..      LDR      r0,[sp,#4]
        0x0000049c:    4788        .G      BLX      r1
        0x0000049e:    4682        .F      MOV      r10,r0
        0x000004a0:    2e00        ..      CMP      r6,#0
        0x000004a2:    dd05        ..      BLE      0x4b0 ; _scanf_int + 232
        0x000004a4:    4649        IF      MOV      r1,r9
        0x000004a6:    4650        PF      MOV      r0,r10
        0x000004a8:    f000faca    ....    BL       _chval ; 0xa40
        0x000004ac:    2800        .(      CMP      r0,#0
        0x000004ae:    daed        ..      BGE      0x48c ; _scanf_int + 196
        0x000004b0:    69e9        .i      LDR      r1,[r5,#0x1c]
        0x000004b2:    9801        ..      LDR      r0,[sp,#4]
        0x000004b4:    4788        .G      BLX      r1
        0x000004b6:    05a0        ..      LSLS     r0,r4,#22
        0x000004b8:    d402        ..      BMI      0x4c0 ; _scanf_int + 248
        0x000004ba:    f06f0001    o...    MVN      r0,#1
        0x000004be:    e7a8        ..      B        0x412 ; _scanf_int + 74
        0x000004c0:    07e0        ..      LSLS     r0,r4,#31
        0x000004c2:    d125        %.      BNE      0x510 ; _scanf_int + 328
        0x000004c4:    0660        `.      LSLS     r0,r4,#25
        0x000004c6:    d513        ..      BPL      0x4f0 ; _scanf_int + 296
        0x000004c8:    0560        `.      LSLS     r0,r4,#21
        0x000004ca:    d502        ..      BPL      0x4d2 ; _scanf_int + 266
        0x000004cc:    f1c80000    ....    RSB      r0,r8,#0
        0x000004d0:    e000        ..      B        0x4d4 ; _scanf_int + 268
        0x000004d2:    4640        @F      MOV      r0,r8
        0x000004d4:    6829        )h      LDR      r1,[r5,#0]
        0x000004d6:    1d0a        ..      ADDS     r2,r1,#4
        0x000004d8:    602a        *`      STR      r2,[r5,#0]
        0x000004da:    6809        .h      LDR      r1,[r1,#0]
        0x000004dc:    0522        ".      LSLS     r2,r4,#20
        0x000004de:    d501        ..      BPL      0x4e4 ; _scanf_int + 284
        0x000004e0:    7008        .p      STRB     r0,[r1,#0]
        0x000004e2:    e015        ..      B        0x510 ; _scanf_int + 328
        0x000004e4:    0722        ".      LSLS     r2,r4,#28
        0x000004e6:    d501        ..      BPL      0x4ec ; _scanf_int + 292
        0x000004e8:    8008        ..      STRH     r0,[r1,#0]
        0x000004ea:    e011        ..      B        0x510 ; _scanf_int + 328
        0x000004ec:    6008        .`      STR      r0,[r1,#0]
        0x000004ee:    e00f        ..      B        0x510 ; _scanf_int + 328
        0x000004f0:    6828        (h      LDR      r0,[r5,#0]
        0x000004f2:    1d01        ..      ADDS     r1,r0,#4
        0x000004f4:    6029        )`      STR      r1,[r5,#0]
        0x000004f6:    6800        .h      LDR      r0,[r0,#0]
        0x000004f8:    0521        !.      LSLS     r1,r4,#20
        0x000004fa:    d502        ..      BPL      0x502 ; _scanf_int + 314
        0x000004fc:    f8808000    ....    STRB     r8,[r0,#0]
        0x00000500:    e006        ..      B        0x510 ; _scanf_int + 328
        0x00000502:    0721        !.      LSLS     r1,r4,#28
        0x00000504:    d502        ..      BPL      0x50c ; _scanf_int + 324
        0x00000506:    f8a08000    ....    STRH     r8,[r0,#0]
        0x0000050a:    e001        ..      B        0x510 ; _scanf_int + 328
        0x0000050c:    f8c08000    ....    STR      r8,[r0,#0]
        0x00000510:    4638        8F      MOV      r0,r7
        0x00000512:    e77e        ~.      B        0x412 ; _scanf_int + 74
    .text
    __aeabi_dadd
        0x00000514:    e92d4ffe    -..O    PUSH     {r1-r11,lr}
        0x00000518:    4680        .F      MOV      r8,r0
        0x0000051a:    ea810003    ....    EOR      r0,r1,r3
        0x0000051e:    0fc0        ..      LSRS     r0,r0,#31
        0x00000520:    460c        .F      MOV      r4,r1
        0x00000522:    9000        ..      STR      r0,[sp,#0]
        0x00000524:    f0214100    !..A    BIC      r1,r1,#0x80000000
        0x00000528:    f0234500    #..E    BIC      r5,r3,#0x80000000
        0x0000052c:    ebb80002    ....    SUBS     r0,r8,r2
        0x00000530:    41a9        .A      SBCS     r1,r1,r5
        0x00000532:    d205        ..      BCS      0x540 ; __aeabi_dadd + 44
        0x00000534:    4640        @F      MOV      r0,r8
        0x00000536:    4621        !F      MOV      r1,r4
        0x00000538:    4690        .F      MOV      r8,r2
        0x0000053a:    461c        .F      MOV      r4,r3
        0x0000053c:    460b        .F      MOV      r3,r1
        0x0000053e:    4602        .F      MOV      r2,r0
        0x00000540:    f0234000    #..@    BIC      r0,r3,#0x80000000
        0x00000544:    4310        .C      ORRS     r0,r0,r2
        0x00000546:    d047        G.      BEQ      0x5d8 ; __aeabi_dadd + 196
        0x00000548:    0d27        '.      LSRS     r7,r4,#20
        0x0000054a:    f3c7000a    ....    UBFX     r0,r7,#0,#11
        0x0000054e:    f3c3510a    ...Q    UBFX     r1,r3,#20,#11
        0x00000552:    9002        ..      STR      r0,[sp,#8]
        0x00000554:    1a40        @.      SUBS     r0,r0,r1
        0x00000556:    9001        ..      STR      r0,[sp,#4]
        0x00000558:    2840        @(      CMP      r0,#0x40
        0x0000055a:    da6b        k.      BGE      0x634 ; __aeabi_dadd + 288
        0x0000055c:    f3c30013    ....    UBFX     r0,r3,#0,#20
        0x00000560:    f4401b80    @...    ORR      r11,r0,#0x100000
        0x00000564:    9800        ..      LDR      r0,[sp,#0]
        0x00000566:    4692        .F      MOV      r10,r2
        0x00000568:    b120         .      CBZ      r0,0x574 ; __aeabi_dadd + 96
        0x0000056a:    2300        .#      MOVS     r3,#0
        0x0000056c:    ebd20a03    ....    RSBS     r10,r2,r3
        0x00000570:    eb630b0b    c...    SBC      r11,r3,r11
        0x00000574:    9801        ..      LDR      r0,[sp,#4]
        0x00000576:    4659        YF      MOV      r1,r11
        0x00000578:    f1c00240    ..@.    RSB      r2,r0,#0x40
        0x0000057c:    4650        PF      MOV      r0,r10
        0x0000057e:    f000fa2e    ....    BL       __aeabi_llsl ; 0x9de
        0x00000582:    4606        .F      MOV      r6,r0
        0x00000584:    460d        .F      MOV      r5,r1
        0x00000586:    4650        PF      MOV      r0,r10
        0x00000588:    4659        YF      MOV      r1,r11
        0x0000058a:    9a01        ..      LDR      r2,[sp,#4]
        0x0000058c:    f000fa46    ..F.    BL       __aeabi_lasr ; 0xa1c
        0x00000590:    eb100008    ....    ADDS     r0,r0,r8
        0x00000594:    4161        aA      ADCS     r1,r1,r4
        0x00000596:    2400        .$      MOVS     r4,#0
        0x00000598:    ea875211    ...R    EOR      r2,r7,r1,LSR #20
        0x0000059c:    ea8473e7    ...s    EOR      r3,r4,r7,ASR #31
        0x000005a0:    431a        .C      ORRS     r2,r2,r3
        0x000005a2:    d040        @.      BEQ      0x626 ; __aeabi_dadd + 274
        0x000005a4:    9a00        ..      LDR      r2,[sp,#0]
        0x000005a6:    b362        b.      CBZ      r2,0x602 ; __aeabi_dadd + 238
        0x000005a8:    9a01        ..      LDR      r2,[sp,#4]
        0x000005aa:    2a01        .*      CMP      r2,#1
        0x000005ac:    ea4f5207    O..R    LSL      r2,r7,#20
        0x000005b0:    dc15        ..      BGT      0x5de ; __aeabi_dadd + 202
        0x000005b2:    1b00        ..      SUBS     r0,r0,r4
        0x000005b4:    eb610102    a...    SBC      r1,r1,r2
        0x000005b8:    f04f4200    O..B    MOV      r2,#0x80000000
        0x000005bc:    ea025207    ...R    AND      r2,r2,r7,LSL #20
        0x000005c0:    e9cd4200    ...B    STRD     r4,r2,[sp,#0]
        0x000005c4:    1c00        ..      ADDS     r0,r0,#0
        0x000005c6:    f5411180    A...    ADC      r1,r1,#0x100000
        0x000005ca:    4632        2F      MOV      r2,r6
        0x000005cc:    462b        +F      MOV      r3,r5
        0x000005ce:    f000fabf    ....    BL       _double_epilogue ; 0xb50
        0x000005d2:    b003        ..      ADD      sp,sp,#0xc
        0x000005d4:    e8bd8ff0    ....    POP      {r4-r11,pc}
        0x000005d8:    4640        @F      MOV      r0,r8
        0x000005da:    4621        !F      MOV      r1,r4
        0x000005dc:    e7f9        ..      B        0x5d2 ; __aeabi_dadd + 190
        0x000005de:    1b00        ..      SUBS     r0,r0,r4
        0x000005e0:    eb610102    a...    SBC      r1,r1,r2
        0x000005e4:    1c00        ..      ADDS     r0,r0,#0
        0x000005e6:    f5411380    A...    ADC      r3,r1,#0x100000
        0x000005ea:    1800        ..      ADDS     r0,r0,r0
        0x000005ec:    415b        [A      ADCS     r3,r3,r3
        0x000005ee:    1820         .      ADDS     r0,r4,r0
        0x000005f0:    f5a21700    ....    SUB      r7,r2,#0x200000
        0x000005f4:    eb470103    G...    ADC      r1,r7,r3
        0x000005f8:    ea4070d5    @..p    ORR      r0,r0,r5,LSR #31
        0x000005fc:    19b6        ..      ADDS     r6,r6,r6
        0x000005fe:    416d        mA      ADCS     r5,r5,r5
        0x00000600:    e011        ..      B        0x626 ; __aeabi_dadd + 274
        0x00000602:    086d        m.      LSRS     r5,r5,#1
        0x00000604:    ea4f0636    O.6.    RRX      r6,r6
        0x00000608:    ea4575c0    E..u    ORR      r5,r5,r0,LSL #31
        0x0000060c:    ea4f5207    O..R    LSL      r2,r7,#20
        0x00000610:    1b00        ..      SUBS     r0,r0,r4
        0x00000612:    eb610102    a...    SBC      r1,r1,r2
        0x00000616:    1c00        ..      ADDS     r0,r0,#0
        0x00000618:    f5411180    A...    ADC      r1,r1,#0x100000
        0x0000061c:    0849        I.      LSRS     r1,r1,#1
        0x0000061e:    ea4f0030    O.0.    RRX      r0,r0
        0x00000622:    1900        ..      ADDS     r0,r0,r4
        0x00000624:    4151        QA      ADCS     r1,r1,r2
        0x00000626:    4632        2F      MOV      r2,r6
        0x00000628:    462b        +F      MOV      r3,r5
        0x0000062a:    b003        ..      ADD      sp,sp,#0xc
        0x0000062c:    e8bd4ff0    ...O    POP      {r4-r11,lr}
        0x00000630:    f000ba7f    ....    B.W      _double_round ; 0xb32
        0x00000634:    9800        ..      LDR      r0,[sp,#0]
        0x00000636:    2201        ."      MOVS     r2,#1
        0x00000638:    0040        @.      LSLS     r0,r0,#1
        0x0000063a:    2300        .#      MOVS     r3,#0
        0x0000063c:    ebd00202    ....    RSBS     r2,r0,r2
        0x00000640:    eb6373e0    c..s    SBC      r3,r3,r0,ASR #31
        0x00000644:    9800        ..      LDR      r0,[sp,#0]
        0x00000646:    4621        !F      MOV      r1,r4
        0x00000648:    ea4f74e0    O..t    ASR      r4,r0,#31
        0x0000064c:    ebb80000    ....    SUBS     r0,r8,r0
        0x00000650:    eb610104    a...    SBC      r1,r1,r4
        0x00000654:    e7e9        ..      B        0x62a ; __aeabi_dadd + 278
    __aeabi_dsub
        0x00000656:    f0834300    ...C    EOR      r3,r3,#0x80000000
        0x0000065a:    e75b        [.      B        __aeabi_dadd ; 0x514
    __aeabi_drsub
        0x0000065c:    f0814100    ...A    EOR      r1,r1,#0x80000000
        0x00000660:    e758        X.      B        __aeabi_dadd ; 0x514
    .text
    __aeabi_dmul
        0x00000662:    e92d4ffe    -..O    PUSH     {r1-r11,lr}
        0x00000666:    ea810403    ....    EOR      r4,r1,r3
        0x0000066a:    f0044400    ...D    AND      r4,r4,#0x80000000
        0x0000066e:    f0214100    !..A    BIC      r1,r1,#0x80000000
        0x00000672:    9400        ..      STR      r4,[sp,#0]
        0x00000674:    f04f0b00    O...    MOV      r11,#0
        0x00000678:    f0234300    #..C    BIC      r3,r3,#0x80000000
        0x0000067c:    ea500401    P...    ORRS     r4,r0,r1
        0x00000680:    d05e        ^.      BEQ      0x740 ; __aeabi_dmul + 222
        0x00000682:    ea520403    R...    ORRS     r4,r2,r3
        0x00000686:    d05b        [.      BEQ      0x740 ; __aeabi_dmul + 222
        0x00000688:    f3c3540a    ...T    UBFX     r4,r3,#20,#11
        0x0000068c:    f3c1550a    ...U    UBFX     r5,r1,#20,#11
        0x00000690:    442c        ,D      ADD      r4,r4,r5
        0x00000692:    f2a434f3    ...4    SUB      r4,r4,#0x3f3
        0x00000696:    9401        ..      STR      r4,[sp,#4]
        0x00000698:    fba05402    ...T    UMULL    r5,r4,r0,r2
        0x0000069c:    f3c10113    ....    UBFX     r1,r1,#0,#20
        0x000006a0:    f4411180    A...    ORR      r1,r1,#0x100000
        0x000006a4:    f3c30313    ....    UBFX     r3,r3,#0,#20
        0x000006a8:    f4431380    C...    ORR      r3,r3,#0x100000
        0x000006ac:    fb014402    ...D    MLA      r4,r1,r2,r4
        0x000006b0:    fb004e03    ...N    MLA      lr,r0,r3,r4
        0x000006b4:    0a84        ..      LSRS     r4,r0,#10
        0x000006b6:    0a97        ..      LSRS     r7,r2,#10
        0x000006b8:    ea445481    D..T    ORR      r4,r4,r1,LSL #22
        0x000006bc:    ea475783    G..W    ORR      r7,r7,r3,LSL #22
        0x000006c0:    fba46807    ...h    UMULL    r6,r8,r4,r7
        0x000006c4:    9502        ..      STR      r5,[sp,#8]
        0x000006c6:    0a8d        ..      LSRS     r5,r1,#10
        0x000006c8:    fb058507    ....    MLA      r5,r5,r7,r8
        0x000006cc:    ea4f2c93    O..,    LSR      r12,r3,#10
        0x000006d0:    fb04540c    ...T    MLA      r4,r4,r12,r5
        0x000006d4:    0527        '.      LSLS     r7,r4,#20
        0x000006d6:    9d02        ..      LDR      r5,[sp,#8]
        0x000006d8:    ea4f5806    O..X    LSL      r8,r6,#20
        0x000006dc:    ea473716    G..7    ORR      r7,r7,r6,LSR #12
        0x000006e0:    ebb50508    ....    SUBS     r5,r5,r8
        0x000006e4:    eb6e0c07    n...    SBC      r12,lr,r7
        0x000006e8:    0e87        ..      LSRS     r7,r0,#26
        0x000006ea:    0e92        ..      LSRS     r2,r2,#26
        0x000006ec:    ea471781    G...    ORR      r7,r7,r1,LSL #6
        0x000006f0:    ea421283    B...    ORR      r2,r2,r3,LSL #6
        0x000006f4:    fba70102    ....    UMULL    r0,r1,r7,r2
        0x000006f8:    ebb6010b    ....    SUBS     r1,r6,r11
        0x000006fc:    eb640400    d...    SBC      r4,r4,r0
        0x00000700:    0d2b        +.      LSRS     r3,r5,#20
        0x00000702:    ea43330c    C..3    ORR      r3,r3,r12,LSL #12
        0x00000706:    185e        ^.      ADDS     r6,r3,r1
        0x00000708:    eb44501c    D..P    ADC      r0,r4,r12,LSR #20
        0x0000070c:    46da        .F      MOV      r10,r11
        0x0000070e:    4651        QF      MOV      r1,r10
        0x00000710:    fbe70102    ....    UMLAL    r0,r1,r7,r2
        0x00000714:    f3c50413    ....    UBFX     r4,r5,#0,#20
        0x00000718:    ea4f330b    O..3    LSL      r3,r11,#12
        0x0000071c:    ea435314    C..S    ORR      r3,r3,r4,LSR #20
        0x00000720:    ea4f3204    O..2    LSL      r2,r4,#12
        0x00000724:    9c01        ..      LDR      r4,[sp,#4]
        0x00000726:    ea430306    C...    ORR      r3,r3,r6
        0x0000072a:    f1a4040c    ....    SUB      r4,r4,#0xc
        0x0000072e:    9402        ..      STR      r4,[sp,#8]
        0x00000730:    9c00        ..      LDR      r4,[sp,#0]
        0x00000732:    e9cdb400    ....    STRD     r11,r4,[sp,#0]
        0x00000736:    f000fa0b    ....    BL       _double_epilogue ; 0xb50
        0x0000073a:    b003        ..      ADD      sp,sp,#0xc
        0x0000073c:    e8bd8ff0    ....    POP      {r4-r11,pc}
        0x00000740:    2000        .       MOVS     r0,#0
        0x00000742:    4601        .F      MOV      r1,r0
        0x00000744:    e7f9        ..      B        0x73a ; __aeabi_dmul + 216
    .text
    __aeabi_ddiv
        0x00000746:    e92d4df0    -..M    PUSH     {r4-r8,r10,r11,lr}
        0x0000074a:    ea810403    ....    EOR      r4,r1,r3
        0x0000074e:    f0044b00    ...K    AND      r11,r4,#0x80000000
        0x00000752:    f0214500    !..E    BIC      r5,r1,#0x80000000
        0x00000756:    4614        .F      MOV      r4,r2
        0x00000758:    f04f0a00    O...    MOV      r10,#0
        0x0000075c:    f0234100    #..A    BIC      r1,r3,#0x80000000
        0x00000760:    ea500205    P...    ORRS     r2,r0,r5
        0x00000764:    d020         .      BEQ      0x7a8 ; __aeabi_ddiv + 98
        0x00000766:    ea540201    T...    ORRS     r2,r4,r1
        0x0000076a:    d01d        ..      BEQ      0x7a8 ; __aeabi_ddiv + 98
        0x0000076c:    f3c5570a    ...W    UBFX     r7,r5,#20,#11
        0x00000770:    4602        .F      MOV      r2,r0
        0x00000772:    f3c50313    ....    UBFX     r3,r5,#0,#20
        0x00000776:    f3c10013    ....    UBFX     r0,r1,#0,#20
        0x0000077a:    f3c1560a    ...V    UBFX     r6,r1,#20,#11
        0x0000077e:    f4401580    @...    ORR      r5,r0,#0x100000
        0x00000782:    f4431380    C...    ORR      r3,r3,#0x100000
        0x00000786:    eba70806    ....    SUB      r8,r7,r6
        0x0000078a:    1b10        ..      SUBS     r0,r2,r4
        0x0000078c:    46d6        .F      MOV      lr,r10
        0x0000078e:    f20838fd    ...8    ADD      r8,r8,#0x3fd
        0x00000792:    eb730005    s...    SBCS     r0,r3,r5
        0x00000796:    d302        ..      BCC      0x79e ; __aeabi_ddiv + 88
        0x00000798:    f1080801    ....    ADD      r8,r8,#1
        0x0000079c:    e001        ..      B        0x7a2 ; __aeabi_ddiv + 92
        0x0000079e:    1892        ..      ADDS     r2,r2,r2
        0x000007a0:    415b        [A      ADCS     r3,r3,r3
        0x000007a2:    f1b80f00    ....    CMP      r8,#0
        0x000007a6:    da03        ..      BGE      0x7b0 ; __aeabi_ddiv + 106
        0x000007a8:    2000        .       MOVS     r0,#0
        0x000007aa:    4601        .F      MOV      r1,r0
        0x000007ac:    e8bd8df0    ....    POP      {r4-r8,r10,r11,pc}
        0x000007b0:    2000        .       MOVS     r0,#0
        0x000007b2:    f44f1180    O...    MOV      r1,#0x100000
        0x000007b6:    4606        .F      MOV      r6,r0
        0x000007b8:    4684        .F      MOV      r12,r0
        0x000007ba:    e00e        ..      B        0x7da ; __aeabi_ddiv + 148
        0x000007bc:    1b17        ..      SUBS     r7,r2,r4
        0x000007be:    eb730705    s...    SBCS     r7,r3,r5
        0x000007c2:    d305        ..      BCC      0x7d0 ; __aeabi_ddiv + 138
        0x000007c4:    1b12        ..      SUBS     r2,r2,r4
        0x000007c6:    eb630305    c...    SBC      r3,r3,r5
        0x000007ca:    4306        .C      ORRS     r6,r6,r0
        0x000007cc:    ea4c0c01    L...    ORR      r12,r12,r1
        0x000007d0:    0849        I.      LSRS     r1,r1,#1
        0x000007d2:    ea4f0030    O.0.    RRX      r0,r0
        0x000007d6:    1892        ..      ADDS     r2,r2,r2
        0x000007d8:    415b        [A      ADCS     r3,r3,r3
        0x000007da:    ea500701    P...    ORRS     r7,r0,r1
        0x000007de:    d1ed        ..      BNE      0x7bc ; __aeabi_ddiv + 118
        0x000007e0:    ea520003    R...    ORRS     r0,r2,r3
        0x000007e4:    d012        ..      BEQ      0x80c ; __aeabi_ddiv + 198
        0x000007e6:    ea820004    ....    EOR      r0,r2,r4
        0x000007ea:    ea830105    ....    EOR      r1,r3,r5
        0x000007ee:    4308        .C      ORRS     r0,r0,r1
        0x000007f0:    d005        ..      BEQ      0x7fe ; __aeabi_ddiv + 184
        0x000007f2:    1b10        ..      SUBS     r0,r2,r4
        0x000007f4:    41ab        .A      SBCS     r3,r3,r5
        0x000007f6:    d206        ..      BCS      0x806 ; __aeabi_ddiv + 192
        0x000007f8:    2201        ."      MOVS     r2,#1
        0x000007fa:    2300        .#      MOVS     r3,#0
        0x000007fc:    e006        ..      B        0x80c ; __aeabi_ddiv + 198
        0x000007fe:    2200        ."      MOVS     r2,#0
        0x00000800:    f04f4300    O..C    MOV      r3,#0x80000000
        0x00000804:    e002        ..      B        0x80c ; __aeabi_ddiv + 198
        0x00000806:    f06f0201    o...    MVN      r2,#1
        0x0000080a:    1053        S.      ASRS     r3,r2,#1
        0x0000080c:    eb1a0006    ....    ADDS     r0,r10,r6
        0x00000810:    eb4c5108    L..Q    ADC      r1,r12,r8,LSL #20
        0x00000814:    eb10000a    ....    ADDS     r0,r0,r10
        0x00000818:    eb41010b    A...    ADC      r1,r1,r11
        0x0000081c:    e8bd4df0    ...M    POP      {r4-r8,r10,r11,lr}
        0x00000820:    f000b987    ....    B.W      _double_round ; 0xb32
    .text
    __aeabi_i2d
        0x00000824:    b50e        ..      PUSH     {r1-r3,lr}
        0x00000826:    0fc1        ..      LSRS     r1,r0,#31
        0x00000828:    ea8070e0    ...p    EOR      r0,r0,r0,ASR #31
        0x0000082c:    4408        .D      ADD      r0,r0,r1
        0x0000082e:    07ca        ..      LSLS     r2,r1,#31
        0x00000830:    2100        .!      MOVS     r1,#0
        0x00000832:    f2404333    @.3C    MOV      r3,#0x433
        0x00000836:    e88d000e    ....    STM      sp,{r1-r3}
        0x0000083a:    460a        .F      MOV      r2,r1
        0x0000083c:    460b        .F      MOV      r3,r1
        0x0000083e:    f000f987    ....    BL       _double_epilogue ; 0xb50
        0x00000842:    b003        ..      ADD      sp,sp,#0xc
        0x00000844:    bd00        ..      POP      {pc}
    .text
    __aeabi_ui2d
        0x00000846:    b50e        ..      PUSH     {r1-r3,lr}
        0x00000848:    f2404133    @.3A    MOV      r1,#0x433
        0x0000084c:    9102        ..      STR      r1,[sp,#8]
        0x0000084e:    2100        .!      MOVS     r1,#0
        0x00000850:    e9cd1100    ....    STRD     r1,r1,[sp,#0]
        0x00000854:    460a        .F      MOV      r2,r1
        0x00000856:    460b        .F      MOV      r3,r1
        0x00000858:    f000f97a    ..z.    BL       _double_epilogue ; 0xb50
        0x0000085c:    b003        ..      ADD      sp,sp,#0xc
        0x0000085e:    bd00        ..      POP      {pc}
    .text
    __aeabi_d2uiz
        0x00000860:    f3c1520a    ...R    UBFX     r2,r1,#20,#11
        0x00000864:    b510        ..      PUSH     {r4,lr}
        0x00000866:    f3c10113    ....    UBFX     r1,r1,#0,#20
        0x0000086a:    f24033ff    @..3    MOV      r3,#0x3ff
        0x0000086e:    f4411180    A...    ORR      r1,r1,#0x100000
        0x00000872:    429a        .B      CMP      r2,r3
        0x00000874:    da01        ..      BGE      0x87a ; __aeabi_d2uiz + 26
        0x00000876:    2000        .       MOVS     r0,#0
        0x00000878:    bd10        ..      POP      {r4,pc}
        0x0000087a:    f2404333    @.3C    MOV      r3,#0x433
        0x0000087e:    429a        .B      CMP      r2,r3
        0x00000880:    f2a24233    ..3B    SUB      r2,r2,#0x433
        0x00000884:    dc03        ..      BGT      0x88e ; __aeabi_d2uiz + 46
        0x00000886:    4252        RB      RSBS     r2,r2,#0
        0x00000888:    f000f8b8    ....    BL       __aeabi_llsr ; 0x9fc
        0x0000088c:    bd10        ..      POP      {r4,pc}
        0x0000088e:    4090        .@      LSLS     r0,r0,r2
        0x00000890:    bd10        ..      POP      {r4,pc}
    .text
    __aeabi_f2d
        0x00000892:    f0004200    ...B    AND      r2,r0,#0x80000000
        0x00000896:    f0304000    0..@    BICS     r0,r0,#0x80000000
        0x0000089a:    d00a        ..      BEQ      0x8b2 ; __aeabi_f2d + 32
        0x0000089c:    0dc1        ..      LSRS     r1,r0,#23
        0x0000089e:    f5017160    ..`q    ADD      r1,r1,#0x380
        0x000008a2:    f3c00016    ....    UBFX     r0,r0,#0,#23
        0x000008a6:    ea425101    B..Q    ORR      r1,r2,r1,LSL #20
        0x000008aa:    08c2        ..      LSRS     r2,r0,#3
        0x000008ac:    0740        @.      LSLS     r0,r0,#29
        0x000008ae:    4311        .C      ORRS     r1,r1,r2
        0x000008b0:    4770        pG      BX       lr
        0x000008b2:    2000        .       MOVS     r0,#0
        0x000008b4:    4601        .F      MOV      r1,r0
        0x000008b6:    4770        pG      BX       lr
    .text
    __aeabi_cdcmpeq
    __aeabi_cdcmple
        0x000008b8:    b530        0.      PUSH     {r4,r5,lr}
        0x000008ba:    1e04        ..      SUBS     r4,r0,#0
        0x000008bc:    f1710400    q...    SBCS     r4,r1,#0
        0x000008c0:    db04        ..      BLT      0x8cc ; __aeabi_cdcmpeq + 20
        0x000008c2:    f04f4400    O..D    MOV      r4,#0x80000000
        0x000008c6:    4240        @B      RSBS     r0,r0,#0
        0x000008c8:    eb640101    d...    SBC      r1,r4,r1
        0x000008cc:    1e14        ..      SUBS     r4,r2,#0
        0x000008ce:    f1730400    s...    SBCS     r4,r3,#0
        0x000008d2:    db05        ..      BLT      0x8e0 ; __aeabi_cdcmpeq + 40
        0x000008d4:    461c        .F      MOV      r4,r3
        0x000008d6:    f04f4300    O..C    MOV      r3,#0x80000000
        0x000008da:    4252        RB      RSBS     r2,r2,#0
        0x000008dc:    eb630304    c...    SBC      r3,r3,r4
        0x000008e0:    428b        .B      CMP      r3,r1
        0x000008e2:    bf08        ..      IT       EQ
        0x000008e4:    4282        .B      CMPEQ    r2,r0
        0x000008e6:    bd30        0.      POP      {r4,r5,pc}
    .text
    __aeabi_cdrcmple
        0x000008e8:    b530        0.      PUSH     {r4,r5,lr}
        0x000008ea:    1e04        ..      SUBS     r4,r0,#0
        0x000008ec:    f1710400    q...    SBCS     r4,r1,#0
        0x000008f0:    db04        ..      BLT      0x8fc ; __aeabi_cdrcmple + 20
        0x000008f2:    f04f4400    O..D    MOV      r4,#0x80000000
        0x000008f6:    4240        @B      RSBS     r0,r0,#0
        0x000008f8:    eb640101    d...    SBC      r1,r4,r1
        0x000008fc:    1e14        ..      SUBS     r4,r2,#0
        0x000008fe:    f1730400    s...    SBCS     r4,r3,#0
        0x00000902:    db05        ..      BLT      0x910 ; __aeabi_cdrcmple + 40
        0x00000904:    461c        .F      MOV      r4,r3
        0x00000906:    f04f4300    O..C    MOV      r3,#0x80000000
        0x0000090a:    4252        RB      RSBS     r2,r2,#0
        0x0000090c:    eb630304    c...    SBC      r3,r3,r4
        0x00000910:    4299        .B      CMP      r1,r3
        0x00000912:    bf08        ..      IT       EQ
        0x00000914:    4290        .B      CMPEQ    r0,r2
        0x00000916:    bd30        0.      POP      {r4,r5,pc}
    .text
    __aeabi_d2f
        0x00000918:    f0014300    ...C    AND      r3,r1,#0x80000000
        0x0000091c:    b430        0.      PUSH     {r4,r5}
        0x0000091e:    f0214100    !..A    BIC      r1,r1,#0x80000000
        0x00000922:    ea500201    P...    ORRS     r2,r0,r1
        0x00000926:    d006        ..      BEQ      0x936 ; __aeabi_d2f + 30
        0x00000928:    0d0a        ..      LSRS     r2,r1,#20
        0x0000092a:    f5a27260    ..`r    SUB      r2,r2,#0x380
        0x0000092e:    f3c10113    ....    UBFX     r1,r1,#0,#20
        0x00000932:    2a00        .*      CMP      r2,#0
        0x00000934:    dc02        ..      BGT      0x93c ; __aeabi_d2f + 36
        0x00000936:    bc30        0.      POP      {r4,r5}
        0x00000938:    2000        .       MOVS     r0,#0
        0x0000093a:    4770        pG      BX       lr
        0x0000093c:    0f44        D.      LSRS     r4,r0,#29
        0x0000093e:    ea4404c1    D...    ORR      r4,r4,r1,LSL #3
        0x00000942:    00c1        ..      LSLS     r1,r0,#3
        0x00000944:    18e0        ..      ADDS     r0,r4,r3
        0x00000946:    bc30        0.      POP      {r4,r5}
        0x00000948:    eb0050c2    ...P    ADD      r0,r0,r2,LSL #23
        0x0000094c:    f000b8ba    ....    B.W      __I$use$fp ; 0xac4
    .text
    __aeabi_uidiv
    __aeabi_uidivmod
        0x00000950:    b530        0.      PUSH     {r4,r5,lr}
        0x00000952:    460b        .F      MOV      r3,r1
        0x00000954:    4601        .F      MOV      r1,r0
        0x00000956:    2000        .       MOVS     r0,#0
        0x00000958:    2220         "      MOVS     r2,#0x20
        0x0000095a:    2401        .$      MOVS     r4,#1
        0x0000095c:    e009        ..      B        0x972 ; __aeabi_uidiv + 34
        0x0000095e:    fa21f502    !...    LSR      r5,r1,r2
        0x00000962:    429d        .B      CMP      r5,r3
        0x00000964:    d305        ..      BCC      0x972 ; __aeabi_uidiv + 34
        0x00000966:    fa03f502    ....    LSL      r5,r3,r2
        0x0000096a:    1b49        I.      SUBS     r1,r1,r5
        0x0000096c:    fa04f502    ....    LSL      r5,r4,r2
        0x00000970:    4428        (D      ADD      r0,r0,r5
        0x00000972:    1e15        ..      SUBS     r5,r2,#0
        0x00000974:    f1a20201    ....    SUB      r2,r2,#1
        0x00000978:    dcf1        ..      BGT      0x95e ; __aeabi_uidiv + 14
        0x0000097a:    bd30        0.      POP      {r4,r5,pc}
    .text
    __aeabi_uldivmod
        0x0000097c:    e92d5ff0    -.._    PUSH     {r4-r12,lr}
        0x00000980:    4605        .F      MOV      r5,r0
        0x00000982:    2000        .       MOVS     r0,#0
        0x00000984:    4692        .F      MOV      r10,r2
        0x00000986:    469b        .F      MOV      r11,r3
        0x00000988:    4688        .F      MOV      r8,r1
        0x0000098a:    4606        .F      MOV      r6,r0
        0x0000098c:    4681        .F      MOV      r9,r0
        0x0000098e:    2440        @$      MOVS     r4,#0x40
        0x00000990:    e01b        ..      B        0x9ca ; __aeabi_uldivmod + 78
        0x00000992:    4628        (F      MOV      r0,r5
        0x00000994:    4641        AF      MOV      r1,r8
        0x00000996:    4647        GF      MOV      r7,r8
        0x00000998:    4622        "F      MOV      r2,r4
        0x0000099a:    f000f82f    ../.    BL       __aeabi_llsr ; 0x9fc
        0x0000099e:    4653        SF      MOV      r3,r10
        0x000009a0:    465a        ZF      MOV      r2,r11
        0x000009a2:    1ac0        ..      SUBS     r0,r0,r3
        0x000009a4:    4191        .A      SBCS     r1,r1,r2
        0x000009a6:    d310        ..      BCC      0x9ca ; __aeabi_uldivmod + 78
        0x000009a8:    4611        .F      MOV      r1,r2
        0x000009aa:    4618        .F      MOV      r0,r3
        0x000009ac:    4622        "F      MOV      r2,r4
        0x000009ae:    f000f816    ....    BL       __aeabi_llsl ; 0x9de
        0x000009b2:    1a2d        -.      SUBS     r5,r5,r0
        0x000009b4:    eb670801    g...    SBC      r8,r7,r1
        0x000009b8:    464f        OF      MOV      r7,r9
        0x000009ba:    4622        "F      MOV      r2,r4
        0x000009bc:    2001        .       MOVS     r0,#1
        0x000009be:    2100        .!      MOVS     r1,#0
        0x000009c0:    f000f80d    ....    BL       __aeabi_llsl ; 0x9de
        0x000009c4:    eb170900    ....    ADDS     r9,r7,r0
        0x000009c8:    414e        NA      ADCS     r6,r6,r1
        0x000009ca:    1e20         .      SUBS     r0,r4,#0
        0x000009cc:    f1a40401    ....    SUB      r4,r4,#1
        0x000009d0:    dcdf        ..      BGT      0x992 ; __aeabi_uldivmod + 22
        0x000009d2:    4648        HF      MOV      r0,r9
        0x000009d4:    4631        1F      MOV      r1,r6
        0x000009d6:    462a        *F      MOV      r2,r5
        0x000009d8:    4643        CF      MOV      r3,r8
        0x000009da:    e8bd9ff0    ....    POP      {r4-r12,pc}
    .text
    __aeabi_llsl
    _ll_shift_l
        0x000009de:    2a20         *      CMP      r2,#0x20
        0x000009e0:    db04        ..      BLT      0x9ec ; __aeabi_llsl + 14
        0x000009e2:    3a20         :      SUBS     r2,r2,#0x20
        0x000009e4:    fa00f102    ....    LSL      r1,r0,r2
        0x000009e8:    2000        .       MOVS     r0,#0
        0x000009ea:    4770        pG      BX       lr
        0x000009ec:    4091        .@      LSLS     r1,r1,r2
        0x000009ee:    f1c20320    .. .    RSB      r3,r2,#0x20
        0x000009f2:    fa20f303     ...    LSR      r3,r0,r3
        0x000009f6:    4319        .C      ORRS     r1,r1,r3
        0x000009f8:    4090        .@      LSLS     r0,r0,r2
        0x000009fa:    4770        pG      BX       lr
    .text
    __aeabi_llsr
    _ll_ushift_r
        0x000009fc:    2a20         *      CMP      r2,#0x20
        0x000009fe:    db04        ..      BLT      0xa0a ; __aeabi_llsr + 14
        0x00000a00:    3a20         :      SUBS     r2,r2,#0x20
        0x00000a02:    fa21f002    !...    LSR      r0,r1,r2
        0x00000a06:    2100        .!      MOVS     r1,#0
        0x00000a08:    4770        pG      BX       lr
        0x00000a0a:    fa21f302    !...    LSR      r3,r1,r2
        0x00000a0e:    40d0        .@      LSRS     r0,r0,r2
        0x00000a10:    f1c20220    .. .    RSB      r2,r2,#0x20
        0x00000a14:    4091        .@      LSLS     r1,r1,r2
        0x00000a16:    4308        .C      ORRS     r0,r0,r1
        0x00000a18:    4619        .F      MOV      r1,r3
        0x00000a1a:    4770        pG      BX       lr
    .text
    __aeabi_lasr
    _ll_sshift_r
        0x00000a1c:    2a20         *      CMP      r2,#0x20
        0x00000a1e:    db06        ..      BLT      0xa2e ; __aeabi_lasr + 18
        0x00000a20:    17cb        ..      ASRS     r3,r1,#31
        0x00000a22:    3a20         :      SUBS     r2,r2,#0x20
        0x00000a24:    fa41f002    A...    ASR      r0,r1,r2
        0x00000a28:    ea4373e0    C..s    ORR      r3,r3,r0,ASR #31
        0x00000a2c:    e006        ..      B        0xa3c ; __aeabi_lasr + 32
        0x00000a2e:    fa41f302    A...    ASR      r3,r1,r2
        0x00000a32:    40d0        .@      LSRS     r0,r0,r2
        0x00000a34:    f1c20220    .. .    RSB      r2,r2,#0x20
        0x00000a38:    4091        .@      LSLS     r1,r1,r2
        0x00000a3a:    4308        .C      ORRS     r0,r0,r1
        0x00000a3c:    4619        .F      MOV      r1,r3
        0x00000a3e:    4770        pG      BX       lr
    .text
    _chval
        0x00000a40:    283a        :(      CMP      r0,#0x3a
        0x00000a42:    d200        ..      BCS      0xa46 ; _chval + 6
        0x00000a44:    3830        08      SUBS     r0,r0,#0x30
        0x00000a46:    f0200220     . .    BIC      r2,r0,#0x20
        0x00000a4a:    2a41        A*      CMP      r2,#0x41
        0x00000a4c:    d301        ..      BCC      0xa52 ; _chval + 18
        0x00000a4e:    f1a20037    ..7.    SUB      r0,r2,#0x37
        0x00000a52:    4288        .B      CMP      r0,r1
        0x00000a54:    d301        ..      BCC      0xa5a ; _chval + 26
        0x00000a56:    f04f30ff    O..0    MOV      r0,#0xffffffff
        0x00000a5a:    4770        pG      BX       lr
    .text
    _scanf_char_input
        0x00000a5c:    6802        .h      LDR      r2,[r0,#0]
        0x00000a5e:    4411        .D      ADD      r1,r1,r2
        0x00000a60:    7813        .x      LDRB     r3,[r2,#0]
        0x00000a62:    6001        .`      STR      r1,[r0,#0]
        0x00000a64:    4618        .F      MOV      r0,r3
        0x00000a66:    4770        pG      BX       lr
    __vfscanf_char
        0x00000a68:    60d1        .`      STR      r1,[r2,#0xc]
        0x00000a6a:    4904        .I      LDR      r1,[pc,#16] ; [0xa7c] = 0xa5d
        0x00000a6c:    6151        Qa      STR      r1,[r2,#0x14]
        0x00000a6e:    4904        .I      LDR      r1,[pc,#16] ; [0xa80] = 0x295
        0x00000a70:    6211        .b      STR      r1,[r2,#0x20]
        0x00000a72:    2100        .!      MOVS     r1,#0
        0x00000a74:    6111        .a      STR      r1,[r2,#0x10]
        0x00000a76:    4611        .F      MOV      r1,r2
        0x00000a78:    f000b8e2    ....    B.W      __vfscanf ; 0xc40
    $d
        0x00000a7c:    00000a5d    ]...    DCD    2653
        0x00000a80:    00000295    ....    DCD    661
    $t
    .text
    _sgetc
        0x00000a84:    6842        Bh      LDR      r2,[r0,#4]
        0x00000a86:    b142        B.      CBZ      r2,0xa9a ; _sgetc + 22
        0x00000a88:    6801        .h      LDR      r1,[r0,#0]
        0x00000a8a:    f8113b01    ...;    LDRB     r3,[r1],#1
        0x00000a8e:    b123        #.      CBZ      r3,0xa9a ; _sgetc + 22
        0x00000a90:    1e52        R.      SUBS     r2,r2,#1
        0x00000a92:    e9c01200    ....    STRD     r1,r2,[r0,#0]
        0x00000a96:    4618        .F      MOV      r0,r3
        0x00000a98:    4770        pG      BX       lr
        0x00000a9a:    2101        .!      MOVS     r1,#1
        0x00000a9c:    60c1        .`      STR      r1,[r0,#0xc]
        0x00000a9e:    1e88        ..      SUBS     r0,r1,#2
        0x00000aa0:    4770        pG      BX       lr
    _sbackspace
        0x00000aa2:    6842        Bh      LDR      r2,[r0,#4]
        0x00000aa4:    b15a        Z.      CBZ      r2,0xabe ; _sbackspace + 28
        0x00000aa6:    68c3        .h      LDR      r3,[r0,#0xc]
        0x00000aa8:    6801        .h      LDR      r1,[r0,#0]
        0x00000aaa:    b943        C.      CBNZ     r3,0xabe ; _sbackspace + 28
        0x00000aac:    6883        .h      LDR      r3,[r0,#8]
        0x00000aae:    428b        .B      CMP      r3,r1
        0x00000ab0:    d005        ..      BEQ      0xabe ; _sbackspace + 28
        0x00000ab2:    1e49        I.      SUBS     r1,r1,#1
        0x00000ab4:    1c52        R.      ADDS     r2,r2,#1
        0x00000ab6:    e9c01200    ....    STRD     r1,r2,[r0,#0]
        0x00000aba:    2000        .       MOVS     r0,#0
        0x00000abc:    4770        pG      BX       lr
        0x00000abe:    f04f30ff    O..0    MOV      r0,#0xffffffff
        0x00000ac2:    4770        pG      BX       lr
    .text
    .text
    __I$use$fp
    _float_round
        0x00000ac4:    2900        .)      CMP      r1,#0
        0x00000ac6:    bfa8        ..      IT       GE
        0x00000ac8:    4770        pG      BXGE     lr
        0x00000aca:    1c40        @.      ADDS     r0,r0,#1
        0x00000acc:    0049        I.      LSLS     r1,r1,#1
        0x00000ace:    bf08        ..      IT       EQ
        0x00000ad0:    f0200001     ...    BICEQ    r0,r0,#1
        0x00000ad4:    4770        pG      BX       lr
    _float_epilogue
        0x00000ad6:    b410        ..      PUSH     {r4}
        0x00000ad8:    fab0fc80    ....    CLZ      r12,r0
        0x00000adc:    fa00f00c    ....    LSL      r0,r0,r12
        0x00000ae0:    ea500401    P...    ORRS     r4,r0,r1
        0x00000ae4:    bf04        ..      ITT      EQ
        0x00000ae6:    bc10        ..      POPEQ    {r4}
        0x00000ae8:    4770        pG      BXEQ     lr
        0x00000aea:    b149        I.      CBZ      r1,0xb00 ; _float_epilogue + 42
        0x00000aec:    f1cc0420    .. .    RSB      r4,r12,#0x20
        0x00000af0:    fa21f404    !...    LSR      r4,r1,r4
        0x00000af4:    fa11f10c    ....    LSLS     r1,r1,r12
        0x00000af8:    bf18        ..      IT       NE
        0x00000afa:    2101        .!      MOVNE    r1,#1
        0x00000afc:    4321        !C      ORRS     r1,r1,r4
        0x00000afe:    4308        .C      ORRS     r0,r0,r1
        0x00000b00:    eba3010c    ....    SUB      r1,r3,r12
        0x00000b04:    1dcb        ..      ADDS     r3,r1,#7
        0x00000b06:    ea4f6100    O..a    LSL      r1,r0,#24
        0x00000b0a:    ea4f2010    O..     LSR      r0,r0,#8
        0x00000b0e:    bf42        B.      ITTT     MI
        0x00000b10:    2000        .       MOVMI    r0,#0
        0x00000b12:    bc10        ..      POPMI    {r4}
        0x00000b14:    4770        pG      BXMI     lr
        0x00000b16:    eb0050c3    ...P    ADD      r0,r0,r3,LSL #23
        0x00000b1a:    4410        .D      ADD      r0,r0,r2
        0x00000b1c:    2900        .)      CMP      r1,#0
        0x00000b1e:    bfa4        ..      ITT      GE
        0x00000b20:    bc10        ..      POPGE    {r4}
        0x00000b22:    4770        pG      BXGE     lr
        0x00000b24:    1c40        @.      ADDS     r0,r0,#1
        0x00000b26:    0049        I.      LSLS     r1,r1,#1
        0x00000b28:    bf08        ..      IT       EQ
        0x00000b2a:    f0200001     ...    BICEQ    r0,r0,#1
        0x00000b2e:    bc10        ..      POP      {r4}
        0x00000b30:    4770        pG      BX       lr
    .text
    _double_round
        0x00000b32:    b510        ..      PUSH     {r4,lr}
        0x00000b34:    1e14        ..      SUBS     r4,r2,#0
        0x00000b36:    f1730400    s...    SBCS     r4,r3,#0
        0x00000b3a:    da08        ..      BGE      0xb4e ; _double_round + 28
        0x00000b3c:    1c40        @.      ADDS     r0,r0,#1
        0x00000b3e:    f1410100    A...    ADC      r1,r1,#0
        0x00000b42:    1892        ..      ADDS     r2,r2,r2
        0x00000b44:    415b        [A      ADCS     r3,r3,r3
        0x00000b46:    431a        .C      ORRS     r2,r2,r3
        0x00000b48:    d101        ..      BNE      0xb4e ; _double_round + 28
        0x00000b4a:    f0200001     ...    BIC      r0,r0,#1
        0x00000b4e:    bd10        ..      POP      {r4,pc}
    _double_epilogue
        0x00000b50:    e92d4df0    -..M    PUSH     {r4-r8,r10,r11,lr}
        0x00000b54:    4692        .F      MOV      r10,r2
        0x00000b56:    469b        .F      MOV      r11,r3
        0x00000b58:    b111        ..      CBZ      r1,0xb60 ; _double_epilogue + 16
        0x00000b5a:    fab1f281    ....    CLZ      r2,r1
        0x00000b5e:    e002        ..      B        0xb66 ; _double_epilogue + 22
        0x00000b60:    fab0f280    ....    CLZ      r2,r0
        0x00000b64:    3220         2      ADDS     r2,r2,#0x20
        0x00000b66:    4690        .F      MOV      r8,r2
        0x00000b68:    f7ffff39    ..9.    BL       __aeabi_llsl ; 0x9de
        0x00000b6c:    4604        .F      MOV      r4,r0
        0x00000b6e:    460f        .F      MOV      r7,r1
        0x00000b70:    ea40000a    @...    ORR      r0,r0,r10
        0x00000b74:    ea41010b    A...    ORR      r1,r1,r11
        0x00000b78:    4653        SF      MOV      r3,r10
        0x00000b7a:    465a        ZF      MOV      r2,r11
        0x00000b7c:    4308        .C      ORRS     r0,r0,r1
        0x00000b7e:    d013        ..      BEQ      0xba8 ; _double_epilogue + 88
        0x00000b80:    4611        .F      MOV      r1,r2
        0x00000b82:    ea530001    S...    ORRS     r0,r3,r1
        0x00000b86:    d019        ..      BEQ      0xbbc ; _double_epilogue + 108
        0x00000b88:    f1c80240    ..@.    RSB      r2,r8,#0x40
        0x00000b8c:    4650        PF      MOV      r0,r10
        0x00000b8e:    f7ffff35    ..5.    BL       __aeabi_llsr ; 0x9fc
        0x00000b92:    4605        .F      MOV      r5,r0
        0x00000b94:    460e        .F      MOV      r6,r1
        0x00000b96:    4650        PF      MOV      r0,r10
        0x00000b98:    4659        YF      MOV      r1,r11
        0x00000b9a:    4642        BF      MOV      r2,r8
        0x00000b9c:    f7ffff1f    ....    BL       __aeabi_llsl ; 0x9de
        0x00000ba0:    4308        .C      ORRS     r0,r0,r1
        0x00000ba2:    d005        ..      BEQ      0xbb0 ; _double_epilogue + 96
        0x00000ba4:    2001        .       MOVS     r0,#1
        0x00000ba6:    e004        ..      B        0xbb2 ; _double_epilogue + 98
        0x00000ba8:    4620         F      MOV      r0,r4
        0x00000baa:    4639        9F      MOV      r1,r7
        0x00000bac:    e8bd8df0    ....    POP      {r4-r8,r10,r11,pc}
        0x00000bb0:    2000        .       MOVS     r0,#0
        0x00000bb2:    4305        .C      ORRS     r5,r5,r0
        0x00000bb4:    ea4676e0    F..v    ORR      r6,r6,r0,ASR #31
        0x00000bb8:    432c        ,C      ORRS     r4,r4,r5
        0x00000bba:    4337        7C      ORRS     r7,r7,r6
        0x00000bbc:    980a        ..      LDR      r0,[sp,#0x28]
        0x00000bbe:    0563        c.      LSLS     r3,r4,#21
        0x00000bc0:    0ae4        ..      LSRS     r4,r4,#11
        0x00000bc2:    eba00008    ....    SUB      r0,r0,r8
        0x00000bc6:    2200        ."      MOVS     r2,#0
        0x00000bc8:    0afd        ..      LSRS     r5,r7,#11
        0x00000bca:    ea445447    D.GT    ORR      r4,r4,r7,LSL #21
        0x00000bce:    300a        .0      ADDS     r0,r0,#0xa
        0x00000bd0:    d502        ..      BPL      0xbd8 ; _double_epilogue + 136
        0x00000bd2:    2000        .       MOVS     r0,#0
        0x00000bd4:    4601        .F      MOV      r1,r0
        0x00000bd6:    e7e9        ..      B        0xbac ; _double_epilogue + 92
        0x00000bd8:    0501        ..      LSLS     r1,r0,#20
        0x00000bda:    1910        ..      ADDS     r0,r2,r4
        0x00000bdc:    4169        iA      ADCS     r1,r1,r5
        0x00000bde:    e9dd4508    ...E    LDRD     r4,r5,[sp,#0x20]
        0x00000be2:    1900        ..      ADDS     r0,r0,r4
        0x00000be4:    4169        iA      ADCS     r1,r1,r5
        0x00000be6:    e8bd4df0    ...M    POP      {r4-r8,r10,r11,lr}
        0x00000bea:    e7a2        ..      B        _double_round ; 0xb32
    .text
    __aeabi_d2ulz
        0x00000bec:    f3c1520a    ...R    UBFX     r2,r1,#20,#11
        0x00000bf0:    f3c10113    ....    UBFX     r1,r1,#0,#20
        0x00000bf4:    f24033ff    @..3    MOV      r3,#0x3ff
        0x00000bf8:    f4411180    A...    ORR      r1,r1,#0x100000
        0x00000bfc:    429a        .B      CMP      r2,r3
        0x00000bfe:    da02        ..      BGE      0xc06 ; __aeabi_d2ulz + 26
        0x00000c00:    2000        .       MOVS     r0,#0
        0x00000c02:    4601        .F      MOV      r1,r0
        0x00000c04:    4770        pG      BX       lr
        0x00000c06:    f2404333    @.3C    MOV      r3,#0x433
        0x00000c0a:    429a        .B      CMP      r2,r3
        0x00000c0c:    f2a24233    ..3B    SUB      r2,r2,#0x433
        0x00000c10:    dc02        ..      BGT      0xc18 ; __aeabi_d2ulz + 44
        0x00000c12:    4252        RB      RSBS     r2,r2,#0
        0x00000c14:    f7ffbef2    ....    B.W      __aeabi_llsr ; 0x9fc
        0x00000c18:    f7ffbee1    ....    B.W      __aeabi_llsl ; 0x9de
    .text
    __scatterload
    __scatterload_rt2
        0x00000c1c:    4c06        .L      LDR      r4,[pc,#24] ; [0xc38] = 0x70c0
        0x00000c1e:    4d07        .M      LDR      r5,[pc,#28] ; [0xc3c] = 0x70e0
        0x00000c20:    e006        ..      B        0xc30 ; __scatterload + 20
        0x00000c22:    68e0        .h      LDR      r0,[r4,#0xc]
        0x00000c24:    f0400301    @...    ORR      r3,r0,#1
        0x00000c28:    e8940007    ....    LDM      r4,{r0-r2}
        0x00000c2c:    4798        .G      BLX      r3
        0x00000c2e:    3410        .4      ADDS     r4,r4,#0x10
        0x00000c30:    42ac        .B      CMP      r4,r5
        0x00000c32:    d3f6        ..      BCC      0xc22 ; __scatterload + 6
        0x00000c34:    f7fffae2    ....    BL       __main_after_scatterload ; 0x1fc
    $d
        0x00000c38:    000070c0    .p..    DCD    28864
        0x00000c3c:    000070e0    .p..    DCD    28896
    $t
    .text
    __vfscanf
        0x00000c40:    e92d4ff3    -..O    PUSH     {r0,r1,r4-r11,lr}
        0x00000c44:    b08b        ..      SUB      sp,sp,#0x2c
        0x00000c46:    f04f0800    O...    MOV      r8,#0
        0x00000c4a:    f101000c    ....    ADD      r0,r1,#0xc
        0x00000c4e:    460c        .F      MOV      r4,r1
        0x00000c50:    f04f0b01    O...    MOV      r11,#1
        0x00000c54:    4646        FF      MOV      r6,r8
        0x00000c56:    f10d0a08    ....    ADD      r10,sp,#8
        0x00000c5a:    9001        ..      STR      r0,[sp,#4]
        0x00000c5c:    6962        bi      LDR      r2,[r4,#0x14]
        0x00000c5e:    2101        .!      MOVS     r1,#1
        0x00000c60:    9801        ..      LDR      r0,[sp,#4]
        0x00000c62:    4790        .G      BLX      r2
        0x00000c64:    1e05        ..      SUBS     r5,r0,#0
        0x00000c66:    d02d        -.      BEQ      0xcc4 ; __vfscanf + 132
        0x00000c68:    2d25        %-      CMP      r5,#0x25
        0x00000c6a:    d02c        ,.      BEQ      0xcc6 ; __vfscanf + 134
        0x00000c6c:    6a21        !j      LDR      r1,[r4,#0x20]
        0x00000c6e:    4788        .G      BLX      r1
        0x00000c70:    b1c0        ..      CBZ      r0,0xca4 ; __vfscanf + 100
        0x00000c72:    6962        bi      LDR      r2,[r4,#0x14]
        0x00000c74:    2101        .!      MOVS     r1,#1
        0x00000c76:    9801        ..      LDR      r0,[sp,#4]
        0x00000c78:    4790        .G      BLX      r2
        0x00000c7a:    6a21        !j      LDR      r1,[r4,#0x20]
        0x00000c7c:    4788        .G      BLX      r1
        0x00000c7e:    2800        .(      CMP      r0,#0
        0x00000c80:    d1f7        ..      BNE      0xc72 ; __vfscanf + 50
        0x00000c82:    1e41        A.      SUBS     r1,r0,#1
        0x00000c84:    6962        bi      LDR      r2,[r4,#0x14]
        0x00000c86:    9801        ..      LDR      r0,[sp,#4]
        0x00000c88:    4790        .G      BLX      r2
        0x00000c8a:    e000        ..      B        0xc8e ; __vfscanf + 78
        0x00000c8c:    1c76        v.      ADDS     r6,r6,#1
        0x00000c8e:    69a1        .i      LDR      r1,[r4,#0x18]
        0x00000c90:    980b        ..      LDR      r0,[sp,#0x2c]
        0x00000c92:    4788        .G      BLX      r1
        0x00000c94:    6a21        !j      LDR      r1,[r4,#0x20]
        0x00000c96:    4788        .G      BLX      r1
        0x00000c98:    2800        .(      CMP      r0,#0
        0x00000c9a:    d1f7        ..      BNE      0xc8c ; __vfscanf + 76
        0x00000c9c:    69e1        .i      LDR      r1,[r4,#0x1c]
        0x00000c9e:    980b        ..      LDR      r0,[sp,#0x2c]
        0x00000ca0:    4788        .G      BLX      r1
        0x00000ca2:    e7db        ..      B        0xc5c ; __vfscanf + 28
        0x00000ca4:    69a1        .i      LDR      r1,[r4,#0x18]
        0x00000ca6:    980b        ..      LDR      r0,[sp,#0x2c]
        0x00000ca8:    4788        .G      BLX      r1
        0x00000caa:    4607        .F      MOV      r7,r0
        0x00000cac:    42a8        .B      CMP      r0,r5
        0x00000cae:    d101        ..      BNE      0xcb4 ; __vfscanf + 116
        0x00000cb0:    1c76        v.      ADDS     r6,r6,#1
        0x00000cb2:    e7d3        ..      B        0xc5c ; __vfscanf + 28
        0x00000cb4:    69e1        .i      LDR      r1,[r4,#0x1c]
        0x00000cb6:    980b        ..      LDR      r0,[sp,#0x2c]
        0x00000cb8:    4788        .G      BLX      r1
        0x00000cba:    1c7f        ..      ADDS     r7,r7,#1
        0x00000cbc:    d102        ..      BNE      0xcc4 ; __vfscanf + 132
        0x00000cbe:    f1b80f00    ....    CMP      r8,#0
        0x00000cc2:    d06f        o.      BEQ      0xda4 ; __vfscanf + 356
        0x00000cc4:    e146        F.      B        0xf54 ; __vfscanf + 788
        0x00000cc6:    2700        .'      MOVS     r7,#0
        0x00000cc8:    6962        bi      LDR      r2,[r4,#0x14]
        0x00000cca:    463d        =F      MOV      r5,r7
        0x00000ccc:    4639        9F      MOV      r1,r7
        0x00000cce:    9801        ..      LDR      r0,[sp,#4]
        0x00000cd0:    4790        .G      BLX      r2
        0x00000cd2:    282a        *(      CMP      r0,#0x2a
        0x00000cd4:    d104        ..      BNE      0xce0 ; __vfscanf + 160
        0x00000cd6:    6962        bi      LDR      r2,[r4,#0x14]
        0x00000cd8:    2101        .!      MOVS     r1,#1
        0x00000cda:    9801        ..      LDR      r0,[sp,#4]
        0x00000cdc:    4790        .G      BLX      r2
        0x00000cde:    2501        .%      MOVS     r5,#1
        0x00000ce0:    f8df9284    ....    LDR      r9,[pc,#644] ; [0xf68] = 0xccccccc
        0x00000ce4:    6962        bi      LDR      r2,[r4,#0x14]
        0x00000ce6:    2101        .!      MOVS     r1,#1
        0x00000ce8:    9801        ..      LDR      r0,[sp,#4]
        0x00000cea:    4790        .G      BLX      r2
        0x00000cec:    f1a00130    ..0.    SUB      r1,r0,#0x30
        0x00000cf0:    290a        .)      CMP      r1,#0xa
        0x00000cf2:    d20a        ..      BCS      0xd0a ; __vfscanf + 202
        0x00000cf4:    454f        OE      CMP      r7,r9
        0x00000cf6:    dce5        ..      BGT      0xcc4 ; __vfscanf + 132
        0x00000cf8:    eb070187    ....    ADD      r1,r7,r7,LSL #2
        0x00000cfc:    eb000741    ..A.    ADD      r7,r0,r1,LSL #1
        0x00000d00:    3f30        0?      SUBS     r7,r7,#0x30
        0x00000d02:    d4df        ..      BMI      0xcc4 ; __vfscanf + 132
        0x00000d04:    f0450510    E...    ORR      r5,r5,#0x10
        0x00000d08:    e7ec        ..      B        0xce4 ; __vfscanf + 164
        0x00000d0a:    06e9        ..      LSLS     r1,r5,#27
        0x00000d0c:    d401        ..      BMI      0xd12 ; __vfscanf + 210
        0x00000d0e:    f06f4700    o..G    MVN      r7,#0x80000000
        0x00000d12:    286c        l(      CMP      r0,#0x6c
        0x00000d14:    d00a        ..      BEQ      0xd2c ; __vfscanf + 236
        0x00000d16:    284c        L(      CMP      r0,#0x4c
        0x00000d18:    d014        ..      BEQ      0xd44 ; __vfscanf + 260
        0x00000d1a:    2868        h(      CMP      r0,#0x68
        0x00000d1c:    d015        ..      BEQ      0xd4a ; __vfscanf + 266
        0x00000d1e:    286a        j(      CMP      r0,#0x6a
        0x00000d20:    d00d        ..      BEQ      0xd3e ; __vfscanf + 254
        0x00000d22:    2874        t(      CMP      r0,#0x74
        0x00000d24:    d01c        ..      BEQ      0xd60 ; __vfscanf + 288
        0x00000d26:    287a        z(      CMP      r0,#0x7a
        0x00000d28:    d01a        ..      BEQ      0xd60 ; __vfscanf + 288
        0x00000d2a:    e01d        ..      B        0xd68 ; __vfscanf + 296
        0x00000d2c:    6962        bi      LDR      r2,[r4,#0x14]
        0x00000d2e:    2101        .!      MOVS     r1,#1
        0x00000d30:    9801        ..      LDR      r0,[sp,#4]
        0x00000d32:    4790        .G      BLX      r2
        0x00000d34:    286c        l(      CMP      r0,#0x6c
        0x00000d36:    d002        ..      BEQ      0xd3e ; __vfscanf + 254
        0x00000d38:    f0450504    E...    ORR      r5,r5,#4
        0x00000d3c:    e014        ..      B        0xd68 ; __vfscanf + 296
        0x00000d3e:    f0450502    E...    ORR      r5,r5,#2
        0x00000d42:    e00d        ..      B        0xd60 ; __vfscanf + 288
        0x00000d44:    f0450520    E. .    ORR      r5,r5,#0x20
        0x00000d48:    e00a        ..      B        0xd60 ; __vfscanf + 288
        0x00000d4a:    6962        bi      LDR      r2,[r4,#0x14]
        0x00000d4c:    2101        .!      MOVS     r1,#1
        0x00000d4e:    9801        ..      LDR      r0,[sp,#4]
        0x00000d50:    4790        .G      BLX      r2
        0x00000d52:    2868        h(      CMP      r0,#0x68
        0x00000d54:    d002        ..      BEQ      0xd5c ; __vfscanf + 284
        0x00000d56:    f0450508    E...    ORR      r5,r5,#8
        0x00000d5a:    e005        ..      B        0xd68 ; __vfscanf + 296
        0x00000d5c:    f4456500    E..e    ORR      r5,r5,#0x800
        0x00000d60:    6962        bi      LDR      r2,[r4,#0x14]
        0x00000d62:    2101        .!      MOVS     r1,#1
        0x00000d64:    9801        ..      LDR      r0,[sp,#4]
        0x00000d66:    4790        .G      BLX      r2
        0x00000d68:    e9c45701    ...W    STRD     r5,r7,[r4,#4]
        0x00000d6c:    2865        e(      CMP      r0,#0x65
        0x00000d6e:    d03d        =.      BEQ      0xdec ; __vfscanf + 428
        0x00000d70:    dc19        ..      BGT      0xda6 ; __vfscanf + 358
        0x00000d72:    2858        X(      CMP      r0,#0x58
        0x00000d74:    d07a        z.      BEQ      0xe6c ; __vfscanf + 556
        0x00000d76:    dc0c        ..      BGT      0xd92 ; __vfscanf + 338
        0x00000d78:    2845        E(      CMP      r0,#0x45
        0x00000d7a:    d037        7.      BEQ      0xdec ; __vfscanf + 428
        0x00000d7c:    dc04        ..      BGT      0xd88 ; __vfscanf + 328
        0x00000d7e:    2825        %(      CMP      r0,#0x25
        0x00000d80:    d026        &.      BEQ      0xdd0 ; __vfscanf + 400
        0x00000d82:    2841        A(      CMP      r0,#0x41
        0x00000d84:    d131        1.      BNE      0xdea ; __vfscanf + 426
        0x00000d86:    e031        1.      B        0xdec ; __vfscanf + 428
        0x00000d88:    2846        F(      CMP      r0,#0x46
        0x00000d8a:    d02f        /.      BEQ      0xdec ; __vfscanf + 428
        0x00000d8c:    2847        G(      CMP      r0,#0x47
        0x00000d8e:    d12c        ,.      BNE      0xdea ; __vfscanf + 426
        0x00000d90:    e02c        ,.      B        0xdec ; __vfscanf + 428
        0x00000d92:    285b        [(      CMP      r0,#0x5b
        0x00000d94:    d077        w.      BEQ      0xe86 ; __vfscanf + 582
        0x00000d96:    2861        a(      CMP      r0,#0x61
        0x00000d98:    d028        (.      BEQ      0xdec ; __vfscanf + 428
        0x00000d9a:    2863        c(      CMP      r0,#0x63
        0x00000d9c:    d07c        |.      BEQ      0xe98 ; __vfscanf + 600
        0x00000d9e:    2864        d(      CMP      r0,#0x64
        0x00000da0:    d123        #.      BNE      0xdea ; __vfscanf + 426
        0x00000da2:    e05a        Z.      B        0xe5a ; __vfscanf + 538
        0x00000da4:    e0d0        ..      B        0xf48 ; __vfscanf + 776
        0x00000da6:    286f        o(      CMP      r0,#0x6f
        0x00000da8:    d048        H.      BEQ      0xe3c ; __vfscanf + 508
        0x00000daa:    dc08        ..      BGT      0xdbe ; __vfscanf + 382
        0x00000dac:    2866        f(      CMP      r0,#0x66
        0x00000dae:    d01d        ..      BEQ      0xdec ; __vfscanf + 428
        0x00000db0:    2867        g(      CMP      r0,#0x67
        0x00000db2:    d01b        ..      BEQ      0xdec ; __vfscanf + 428
        0x00000db4:    2869        i(      CMP      r0,#0x69
        0x00000db6:    d021        !.      BEQ      0xdfc ; __vfscanf + 444
        0x00000db8:    286e        n(      CMP      r0,#0x6e
        0x00000dba:    d116        ..      BNE      0xdea ; __vfscanf + 426
        0x00000dbc:    e027        '.      B        0xe0e ; __vfscanf + 462
        0x00000dbe:    2870        p(      CMP      r0,#0x70
        0x00000dc0:    d045        E.      BEQ      0xe4e ; __vfscanf + 526
        0x00000dc2:    2873        s(      CMP      r0,#0x73
        0x00000dc4:    d068        h.      BEQ      0xe98 ; __vfscanf + 600
        0x00000dc6:    2875        u(      CMP      r0,#0x75
        0x00000dc8:    d047        G.      BEQ      0xe5a ; __vfscanf + 538
        0x00000dca:    2878        x(      CMP      r0,#0x78
        0x00000dcc:    d10d        ..      BNE      0xdea ; __vfscanf + 426
        0x00000dce:    e04d        M.      B        0xe6c ; __vfscanf + 556
        0x00000dd0:    69a1        .i      LDR      r1,[r4,#0x18]
        0x00000dd2:    980b        ..      LDR      r0,[sp,#0x2c]
        0x00000dd4:    4788        .G      BLX      r1
        0x00000dd6:    4605        .F      MOV      r5,r0
        0x00000dd8:    2825        %(      CMP      r0,#0x25
        0x00000dda:    f43faf69    ?.i.    BEQ      0xcb0 ; __vfscanf + 112
        0x00000dde:    69e1        .i      LDR      r1,[r4,#0x1c]
        0x00000de0:    980b        ..      LDR      r0,[sp,#0x2c]
        0x00000de2:    4788        .G      BLX      r1
        0x00000de4:    1c6d        m.      ADDS     r5,r5,#1
        0x00000de6:    f43faf6a    ?.j.    BEQ      0xcbe ; __vfscanf + 126
        0x00000dea:    e0b3        ..      B        0xf54 ; __vfscanf + 788
        0x00000dec:    4623        #F      MOV      r3,r4
        0x00000dee:    466a        jF      MOV      r2,sp
        0x00000df0:    f06f0001    o...    MVN      r0,#1
        0x00000df4:    990b        ..      LDR      r1,[sp,#0x2c]
        0x00000df6:    f3af8000    ....    NOP.W    
        0x00000dfa:    e09e        ..      B        0xf3a ; __vfscanf + 762
        0x00000dfc:    f0450040    E.@.    ORR      r0,r5,#0x40
        0x00000e00:    6060        ``      STR      r0,[r4,#4]
        0x00000e02:    07a8        ..      LSLS     r0,r5,#30
        0x00000e04:    4623        #F      MOV      r3,r4
        0x00000e06:    f04f0200    O...    MOV      r2,#0
        0x00000e0a:    d436        6.      BMI      0xe7a ; __vfscanf + 570
        0x00000e0c:    e03e        >.      B        0xe8c ; __vfscanf + 588
        0x00000e0e:    07e8        ..      LSLS     r0,r5,#31
        0x00000e10:    f47faf47    ..G.    BNE      0xca2 ; __vfscanf + 98
        0x00000e14:    6820         h      LDR      r0,[r4,#0]
        0x00000e16:    1d01        ..      ADDS     r1,r0,#4
        0x00000e18:    6021        !`      STR      r1,[r4,#0]
        0x00000e1a:    6800        .h      LDR      r0,[r0,#0]
        0x00000e1c:    0529        ).      LSLS     r1,r5,#20
        0x00000e1e:    d501        ..      BPL      0xe24 ; __vfscanf + 484
        0x00000e20:    7006        .p      STRB     r6,[r0,#0]
        0x00000e22:    e71b        ..      B        0xc5c ; __vfscanf + 28
        0x00000e24:    0729        ).      LSLS     r1,r5,#28
        0x00000e26:    d501        ..      BPL      0xe2c ; __vfscanf + 492
        0x00000e28:    8006        ..      STRH     r6,[r0,#0]
        0x00000e2a:    e717        ..      B        0xc5c ; __vfscanf + 28
        0x00000e2c:    07a9        ..      LSLS     r1,r5,#30
        0x00000e2e:    d503        ..      BPL      0xe38 ; __vfscanf + 504
        0x00000e30:    17f1        ..      ASRS     r1,r6,#31
        0x00000e32:    e9c06100    ...a    STRD     r6,r1,[r0,#0]
        0x00000e36:    e711        ..      B        0xc5c ; __vfscanf + 28
        0x00000e38:    6006        .`      STR      r6,[r0,#0]
        0x00000e3a:    e70f        ..      B        0xc5c ; __vfscanf + 28
        0x00000e3c:    f0450040    E.@.    ORR      r0,r5,#0x40
        0x00000e40:    6060        ``      STR      r0,[r4,#4]
        0x00000e42:    07a8        ..      LSLS     r0,r5,#30
        0x00000e44:    4623        #F      MOV      r3,r4
        0x00000e46:    f04f0208    O...    MOV      r2,#8
        0x00000e4a:    d416        ..      BMI      0xe7a ; __vfscanf + 570
        0x00000e4c:    e01e        ..      B        0xe8c ; __vfscanf + 588
        0x00000e4e:    f640010e    @...    MOV      r1,#0x80e
        0x00000e52:    ea250001    %...    BIC      r0,r5,r1
        0x00000e56:    6060        ``      STR      r0,[r4,#4]
        0x00000e58:    e016        ..      B        0xe88 ; __vfscanf + 584
        0x00000e5a:    f0450040    E.@.    ORR      r0,r5,#0x40
        0x00000e5e:    6060        ``      STR      r0,[r4,#4]
        0x00000e60:    07a8        ..      LSLS     r0,r5,#30
        0x00000e62:    4623        #F      MOV      r3,r4
        0x00000e64:    f04f020a    O...    MOV      r2,#0xa
        0x00000e68:    d407        ..      BMI      0xe7a ; __vfscanf + 570
        0x00000e6a:    e00f        ..      B        0xe8c ; __vfscanf + 588
        0x00000e6c:    f0450040    E.@.    ORR      r0,r5,#0x40
        0x00000e70:    6060        ``      STR      r0,[r4,#4]
        0x00000e72:    07a8        ..      LSLS     r0,r5,#30
        0x00000e74:    d508        ..      BPL      0xe88 ; __vfscanf + 584
        0x00000e76:    4623        #F      MOV      r3,r4
        0x00000e78:    2210        ."      MOVS     r2,#0x10
        0x00000e7a:    f06f0001    o...    MVN      r0,#1
        0x00000e7e:    990b        ..      LDR      r1,[sp,#0x2c]
        0x00000e80:    f3af8000    ....    NOP.W    
        0x00000e84:    e059        Y.      B        0xf3a ; __vfscanf + 762
        0x00000e86:    e007        ..      B        0xe98 ; __vfscanf + 600
        0x00000e88:    4623        #F      MOV      r3,r4
        0x00000e8a:    2210        ."      MOVS     r2,#0x10
        0x00000e8c:    f06f0001    o...    MVN      r0,#1
        0x00000e90:    990b        ..      LDR      r1,[sp,#0x2c]
        0x00000e92:    f7fffa99    ....    BL       _scanf_int ; 0x3c8
        0x00000e96:    e050        P.      B        0xf3a ; __vfscanf + 762
        0x00000e98:    f04f0900    O...    MOV      r9,#0
        0x00000e9c:    464f        OF      MOV      r7,r9
        0x00000e9e:    464b        KF      MOV      r3,r9
        0x00000ea0:    2863        c(      CMP      r0,#0x63
        0x00000ea2:    d002        ..      BEQ      0xeaa ; __vfscanf + 618
        0x00000ea4:    285b        [(      CMP      r0,#0x5b
        0x00000ea6:    d006        ..      BEQ      0xeb6 ; __vfscanf + 630
        0x00000ea8:    e040        @.      B        0xf2c ; __vfscanf + 748
        0x00000eaa:    06e8        ..      LSLS     r0,r5,#27
        0x00000eac:    d401        ..      BMI      0xeb2 ; __vfscanf + 626
        0x00000eae:    2001        .       MOVS     r0,#1
        0x00000eb0:    60a0        .`      STR      r0,[r4,#8]
        0x00000eb2:    2701        .'      MOVS     r7,#1
        0x00000eb4:    e03a        :.      B        0xf2c ; __vfscanf + 748
        0x00000eb6:    6962        bi      LDR      r2,[r4,#0x14]
        0x00000eb8:    2101        .!      MOVS     r1,#1
        0x00000eba:    9801        ..      LDR      r0,[sp,#4]
        0x00000ebc:    4790        .G      BLX      r2
        0x00000ebe:    285e        ^(      CMP      r0,#0x5e
        0x00000ec0:    d105        ..      BNE      0xece ; __vfscanf + 654
        0x00000ec2:    f04f0901    O...    MOV      r9,#1
        0x00000ec6:    6962        bi      LDR      r2,[r4,#0x14]
        0x00000ec8:    4649        IF      MOV      r1,r9
        0x00000eca:    9801        ..      LDR      r0,[sp,#4]
        0x00000ecc:    4790        .G      BLX      r2
        0x00000ece:    6921        !i      LDR      r1,[r4,#0x10]
        0x00000ed0:    b939        9.      CBNZ     r1,0xee2 ; __vfscanf + 674
        0x00000ed2:    2100        .!      MOVS     r1,#0
        0x00000ed4:    460a        .F      MOV      r2,r1
        0x00000ed6:    4653        SF      MOV      r3,r10
        0x00000ed8:    f8432021    C.!     STR      r2,[r3,r1,LSL #2]
        0x00000edc:    1c49        I.      ADDS     r1,r1,#1
        0x00000ede:    2908        .)      CMP      r1,#8
        0x00000ee0:    dbfa        ..      BLT      0xed8 ; __vfscanf + 664
        0x00000ee2:    b3b0        ..      CBZ      r0,0xf52 ; __vfscanf + 786
        0x00000ee4:    6921        !i      LDR      r1,[r4,#0x10]
        0x00000ee6:    b969        i.      CBNZ     r1,0xf04 ; __vfscanf + 708
        0x00000ee8:    17c1        ..      ASRS     r1,r0,#31
        0x00000eea:    eb0062d1    ...b    ADD      r2,r0,r1,LSR #27
        0x00000eee:    1153        S.      ASRS     r3,r2,#5
        0x00000ef0:    eb0a0183    ....    ADD      r1,r10,r3,LSL #2
        0x00000ef4:    f022021f    "...    BIC      r2,r2,#0x1f
        0x00000ef8:    1a82        ..      SUBS     r2,r0,r2
        0x00000efa:    2001        .       MOVS     r0,#1
        0x00000efc:    680b        .h      LDR      r3,[r1,#0]
        0x00000efe:    4090        .@      LSLS     r0,r0,r2
        0x00000f00:    4303        .C      ORRS     r3,r3,r0
        0x00000f02:    600b        .`      STR      r3,[r1,#0]
        0x00000f04:    6962        bi      LDR      r2,[r4,#0x14]
        0x00000f06:    2101        .!      MOVS     r1,#1
        0x00000f08:    9801        ..      LDR      r0,[sp,#4]
        0x00000f0a:    4790        .G      BLX      r2
        0x00000f0c:    285d        ](      CMP      r0,#0x5d
        0x00000f0e:    d1e8        ..      BNE      0xee2 ; __vfscanf + 674
        0x00000f10:    f1b90f00    ....    CMP      r9,#0
        0x00000f14:    d009        ..      BEQ      0xf2a ; __vfscanf + 746
        0x00000f16:    2000        .       MOVS     r0,#0
        0x00000f18:    4651        QF      MOV      r1,r10
        0x00000f1a:    f8512020    Q.      LDR      r2,[r1,r0,LSL #2]
        0x00000f1e:    43d2        .C      MVNS     r2,r2
        0x00000f20:    f8412020    A.      STR      r2,[r1,r0,LSL #2]
        0x00000f24:    1c40        @.      ADDS     r0,r0,#1
        0x00000f26:    2808        .(      CMP      r0,#8
        0x00000f28:    dbf7        ..      BLT      0xf1a ; __vfscanf + 730
        0x00000f2a:    ab02        ..      ADD      r3,sp,#8
        0x00000f2c:    4622        "F      MOV      r2,r4
        0x00000f2e:    9700        ..      STR      r7,[sp,#0]
        0x00000f30:    f06f0001    o...    MVN      r0,#1
        0x00000f34:    990b        ..      LDR      r1,[sp,#0x2c]
        0x00000f36:    f3af8000    ....    NOP.W    
        0x00000f3a:    2800        .(      CMP      r0,#0
        0x00000f3c:    da0c        ..      BGE      0xf58 ; __vfscanf + 792
        0x00000f3e:    1c40        @.      ADDS     r0,r0,#1
        0x00000f40:    d108        ..      BNE      0xf54 ; __vfscanf + 788
        0x00000f42:    f1bb0f00    ....    CMP      r11,#0
        0x00000f46:    d005        ..      BEQ      0xf54 ; __vfscanf + 788
        0x00000f48:    f04f30ff    O..0    MOV      r0,#0xffffffff
        0x00000f4c:    b00d        ..      ADD      sp,sp,#0x34
        0x00000f4e:    e8bd8ff0    ....    POP      {r4-r11,pc}
        0x00000f52:    e7ff        ..      B        0xf54 ; __vfscanf + 788
        0x00000f54:    4640        @F      MOV      r0,r8
        0x00000f56:    e7f9        ..      B        0xf4c ; __vfscanf + 780
        0x00000f58:    07e9        ..      LSLS     r1,r5,#31
        0x00000f5a:    d101        ..      BNE      0xf60 ; __vfscanf + 800
        0x00000f5c:    f1080801    ....    ADD      r8,r8,#1
        0x00000f60:    4406        .D      ADD      r6,r6,r0
        0x00000f62:    f04f0b00    O...    MOV      r11,#0
        0x00000f66:    e679        y.      B        0xc5c ; __vfscanf + 28
    $d
        0x00000f68:    0ccccccc    ....    DCD    214748364
    $t
    i.ADC_Init
    ADC_Init
        0x00000f6c:    b510        ..      PUSH     {r4,lr}
        0x00000f6e:    4c1d        .L      LDR      r4,[pc,#116] ; [0xfe4] = 0x40043000
        0x00000f70:    2100        .!      MOVS     r1,#0
        0x00000f72:    4620         F      MOV      r0,r4
        0x00000f74:    f000fb46    ..F.    BL       EADC_Open ; 0x1604
        0x00000f78:    2306        .#      MOVS     r3,#6
        0x00000f7a:    2200        ."      MOVS     r2,#0
        0x00000f7c:    4619        .F      MOV      r1,r3
        0x00000f7e:    4620         F      MOV      r0,r4
        0x00000f80:    f000fb30    ..0.    BL       EADC_ConfigSampleModule ; 0x15e4
        0x00000f84:    2305        .#      MOVS     r3,#5
        0x00000f86:    2200        ."      MOVS     r2,#0
        0x00000f88:    4619        .F      MOV      r1,r3
        0x00000f8a:    4620         F      MOV      r0,r4
        0x00000f8c:    f000fb2a    ..*.    BL       EADC_ConfigSampleModule ; 0x15e4
        0x00000f90:    2304        .#      MOVS     r3,#4
        0x00000f92:    2200        ."      MOVS     r2,#0
        0x00000f94:    4619        .F      MOV      r1,r3
        0x00000f96:    4620         F      MOV      r0,r4
        0x00000f98:    f000fb24    ..$.    BL       EADC_ConfigSampleModule ; 0x15e4
        0x00000f9c:    2303        .#      MOVS     r3,#3
        0x00000f9e:    2200        ."      MOVS     r2,#0
        0x00000fa0:    4619        .F      MOV      r1,r3
        0x00000fa2:    4620         F      MOV      r0,r4
        0x00000fa4:    f000fb1e    ....    BL       EADC_ConfigSampleModule ; 0x15e4
        0x00000fa8:    2302        .#      MOVS     r3,#2
        0x00000faa:    2200        ."      MOVS     r2,#0
        0x00000fac:    4619        .F      MOV      r1,r3
        0x00000fae:    4620         F      MOV      r0,r4
        0x00000fb0:    f000fb18    ....    BL       EADC_ConfigSampleModule ; 0x15e4
        0x00000fb4:    2301        .#      MOVS     r3,#1
        0x00000fb6:    2200        ."      MOVS     r2,#0
        0x00000fb8:    4619        .F      MOV      r1,r3
        0x00000fba:    4620         F      MOV      r0,r4
        0x00000fbc:    f000fb12    ....    BL       EADC_ConfigSampleModule ; 0x15e4
        0x00000fc0:    2001        .       MOVS     r0,#1
        0x00000fc2:    f8c400f8    ....    STR      r0,[r4,#0xf8]
        0x00000fc6:    6d20         m      LDR      r0,[r4,#0x50]
        0x00000fc8:    f0400004    @...    ORR      r0,r0,#4
        0x00000fcc:    6520         e      STR      r0,[r4,#0x50]
        0x00000fce:    f8d400d0    ....    LDR      r0,[r4,#0xd0]
        0x00000fd2:    f0400040    @.@.    ORR      r0,r0,#0x40
        0x00000fd6:    f8c400d0    ....    STR      r0,[r4,#0xd0]
        0x00000fda:    e8bd4010    ...@    POP      {r4,lr}
        0x00000fde:    202a        *       MOVS     r0,#0x2a
        0x00000fe0:    f000bdac    ....    B.W      NVIC_EnableIRQ ; 0x1b3c
    $d
        0x00000fe4:    40043000    .0.@    DCD    1074016256
    $t
    i.Bcd2HexConversion
    Bcd2HexConversion
        0x00000fe8:    b510        ..      PUSH     {r4,lr}
        0x00000fea:    7802        .x      LDRB     r2,[r0,#0]
        0x00000fec:    210a        .!      MOVS     r1,#0xa
        0x00000fee:    fbb2f3f1    ....    UDIV     r3,r2,r1
        0x00000ff2:    fbb2f4f1    ....    UDIV     r4,r2,r1
        0x00000ff6:    fb012214    ..."    MLS      r2,r1,r4,r2
        0x00000ffa:    ea421103    B...    ORR      r1,r2,r3,LSL #4
        0x00000ffe:    7001        .p      STRB     r1,[r0,#0]
        0x00001000:    bd10        ..      POP      {r4,pc}
    i.CLK_DisablePLL
    CLK_DisablePLL
        0x00001002:    f04f4080    O..@    MOV      r0,#0x40000000
        0x00001006:    f8d01240    ..@.    LDR      r1,[r0,#0x240]
        0x0000100a:    f4413180    A..1    ORR      r1,r1,#0x10000
        0x0000100e:    f8c01240    ..@.    STR      r1,[r0,#0x240]
        0x00001012:    4770        pG      BX       lr
    i.CLK_EnableModuleClock
    CLK_EnableModuleClock
        0x00001014:    f000021f    ....    AND      r2,r0,#0x1f
        0x00001018:    2101        .!      MOVS     r1,#1
        0x0000101a:    4091        .@      LSLS     r1,r1,r2
        0x0000101c:    4a03        .J      LDR      r2,[pc,#12] ; [0x102c] = 0x40000204
        0x0000101e:    0f80        ..      LSRS     r0,r0,#30
        0x00001020:    eb020080    ....    ADD      r0,r2,r0,LSL #2
        0x00001024:    6802        .h      LDR      r2,[r0,#0]
        0x00001026:    430a        .C      ORRS     r2,r2,r1
        0x00001028:    6002        .`      STR      r2,[r0,#0]
        0x0000102a:    4770        pG      BX       lr
    $d
        0x0000102c:    40000204    ...@    DCD    1073742340
    $t
    i.CLK_EnablePLL
    CLK_EnablePLL
        0x00001030:    e92d4ff8    -..O    PUSH     {r3-r11,lr}
        0x00001034:    460d        .F      MOV      r5,r1
        0x00001036:    4604        .F      MOV      r4,r0
        0x00001038:    f7ffffe3    ....    BL       CLK_DisablePLL ; 0x1002
        0x0000103c:    f04f4080    O..@    MOV      r0,#0x40000000
        0x00001040:    4e48        HN      LDR      r6,[pc,#288] ; [0x1164] = 0xb71b00
        0x00001042:    f8d01200    ....    LDR      r1,[r0,#0x200]
        0x00001046:    b1c4        ..      CBZ      r4,0x107a ; CLK_EnablePLL + 74
        0x00001048:    f0410104    A...    ORR      r1,r1,#4
        0x0000104c:    f8c01200    ....    STR      r1,[r0,#0x200]
        0x00001050:    2010        .       MOVS     r0,#0x10
        0x00001052:    f000fa09    ....    BL       CLK_WaitClockReady ; 0x1468
        0x00001056:    f44f2000    O..     MOV      r0,#0x80000
        0x0000105a:    9000        ..      STR      r0,[sp,#0]
        0x0000105c:    4842        BH      LDR      r0,[pc,#264] ; [0x1168] = 0xfd050f80
        0x0000105e:    4943        CI      LDR      r1,[pc,#268] ; [0x116c] = 0x1ad27480
        0x00001060:    4428        (D      ADD      r0,r0,r5
        0x00001062:    46b3        .F      MOV      r11,r6
        0x00001064:    4288        .B      CMP      r0,r1
        0x00001066:    d86d        m.      BHI      0x1144 ; CLK_EnablePLL + 276
        0x00001068:    f04f0900    O...    MOV      r9,#0
        0x0000106c:    f04f32ff    O..2    MOV      r2,#0xffffffff
        0x00001070:    464f        OF      MOV      r7,r9
        0x00001072:    464e        NF      MOV      r6,r9
        0x00001074:    46ae        .F      MOV      lr,r5
        0x00001076:    2001        .       MOVS     r0,#1
        0x00001078:    e015        ..      B        0x10a6 ; CLK_EnablePLL + 118
        0x0000107a:    f0410101    A...    ORR      r1,r1,#1
        0x0000107e:    f8c01200    ....    STR      r1,[r0,#0x200]
        0x00001082:    2001        .       MOVS     r0,#1
        0x00001084:    f000f9f0    ....    BL       CLK_WaitClockReady ; 0x1468
        0x00001088:    2000        .       MOVS     r0,#0
        0x0000108a:    e7e6        ..      B        0x105a ; CLK_EnablePLL + 42
        0x0000108c:    b3f2        ..      CBZ      r2,0x110c ; CLK_EnablePLL + 220
        0x0000108e:    2803        .(      CMP      r0,#3
        0x00001090:    d039        9.      BEQ      0x1106 ; CLK_EnablePLL + 214
        0x00001092:    2804        .(      CMP      r0,#4
        0x00001094:    d002        ..      BEQ      0x109c ; CLK_EnablePLL + 108
        0x00001096:    2802        .(      CMP      r0,#2
        0x00001098:    d105        ..      BNE      0x10a6 ; CLK_EnablePLL + 118
        0x0000109a:    e002        ..      B        0x10a2 ; CLK_EnablePLL + 114
        0x0000109c:    ea4f058e    O...    LSL      r5,lr,#2
        0x000010a0:    e001        ..      B        0x10a6 ; CLK_EnablePLL + 118
        0x000010a2:    ea4f054e    O.N.    LSL      r5,lr,#1
        0x000010a6:    2302        .#      MOVS     r3,#2
        0x000010a8:    b36a        j.      CBZ      r2,0x1106 ; CLK_EnablePLL + 214
        0x000010aa:    fbbbf1f3    ....    UDIV     r1,r11,r3
        0x000010ae:    4c30        0L      LDR      r4,[pc,#192] ; [0x1170] = 0xffc2f700
        0x000010b0:    f8dfc0bc    ....    LDR      r12,[pc,#188] ; [0x1170] = 0xffc2f700
        0x000010b4:    440c        .D      ADD      r4,r4,r1
        0x000010b6:    f1cc0c00    ....    RSB      r12,r12,#0
        0x000010ba:    4564        dE      CMP      r4,r12
        0x000010bc:    d820         .      BHI      0x1100 ; CLK_EnablePLL + 208
        0x000010be:    2402        .$      MOVS     r4,#2
        0x000010c0:    f3c10a5d    ..].    UBFX     r10,r1,#1,#30
        0x000010c4:    f8dfc0a0    ....    LDR      r12,[pc,#160] ; [0x1168] = 0xfd050f80
        0x000010c8:    fb0af104    ....    MUL      r1,r10,r4
        0x000010cc:    eb01080c    ....    ADD      r8,r1,r12
        0x000010d0:    f8dfc0a0    ....    LDR      r12,[pc,#160] ; [0x1174] = 0x47868c0
        0x000010d4:    45e0        .E      CMP      r8,r12
        0x000010d6:    d80e        ..      BHI      0x10f6 ; CLK_EnablePLL + 198
        0x000010d8:    ebb10f95    ....    CMP      r1,r5,LSR #2
        0x000010dc:    d902        ..      BLS      0x10e4 ; CLK_EnablePLL + 180
        0x000010de:    eba10195    ....    SUB      r1,r1,r5,LSR #2
        0x000010e2:    e001        ..      B        0x10e8 ; CLK_EnablePLL + 184
        0x000010e4:    ebc10195    ....    RSB      r1,r1,r5,LSR #2
        0x000010e8:    4291        .B      CMP      r1,r2
        0x000010ea:    d204        ..      BCS      0x10f6 ; CLK_EnablePLL + 198
        0x000010ec:    000a        ..      MOVS     r2,r1
        0x000010ee:    4699        .F      MOV      r9,r3
        0x000010f0:    4627        'F      MOV      r7,r4
        0x000010f2:    4606        .F      MOV      r6,r0
        0x000010f4:    d004        ..      BEQ      0x1100 ; CLK_EnablePLL + 208
        0x000010f6:    f2402101    @..!    MOV      r1,#0x201
        0x000010fa:    1c64        d.      ADDS     r4,r4,#1
        0x000010fc:    428c        .B      CMP      r4,r1
        0x000010fe:    d9e1        ..      BLS      0x10c4 ; CLK_EnablePLL + 148
        0x00001100:    1c5b        [.      ADDS     r3,r3,#1
        0x00001102:    2b20         +      CMP      r3,#0x20
        0x00001104:    d9d0        ..      BLS      0x10a8 ; CLK_EnablePLL + 120
        0x00001106:    1c40        @.      ADDS     r0,r0,#1
        0x00001108:    2804        .(      CMP      r0,#4
        0x0000110a:    e000        ..      B        0x110e ; CLK_EnablePLL + 222
        0x0000110c:    e000        ..      B        0x1110 ; CLK_EnablePLL + 224
        0x0000110e:    d9bd        ..      BLS      0x108c ; CLK_EnablePLL + 92
        0x00001110:    4819        .H      LDR      r0,[pc,#100] ; [0x1178] = 0xffffc000
        0x00001112:    9900        ..      LDR      r1,[sp,#0]
        0x00001114:    eb003086    ...0    ADD      r0,r0,r6,LSL #14
        0x00001118:    4a18        .J      LDR      r2,[pc,#96] ; [0x117c] = 0xfffffe00
        0x0000111a:    4308        .C      ORRS     r0,r0,r1
        0x0000111c:    eb022149    ..I!    ADD      r1,r2,r9,LSL #9
        0x00001120:    4308        .C      ORRS     r0,r0,r1
        0x00001122:    1eb9        ..      SUBS     r1,r7,#2
        0x00001124:    4308        .C      ORRS     r0,r0,r1
        0x00001126:    f04f4180    O..A    MOV      r1,#0x40000000
        0x0000112a:    f8c10240    ..@.    STR      r0,[r1,#0x240]
        0x0000112e:    2004        .       MOVS     r0,#4
        0x00001130:    f000f99a    ....    BL       CLK_WaitClockReady ; 0x1468
        0x00001134:    fb06f609    ....    MUL      r6,r6,r9
        0x00001138:    fbbbf0f6    ....    UDIV     r0,r11,r6
        0x0000113c:    4378        xC      MULS     r0,r7,r0
        0x0000113e:    0040        @.      LSLS     r0,r0,#1
        0x00001140:    e8bd8ff8    ....    POP      {r3-r11,pc}
        0x00001144:    b15c        \.      CBZ      r4,0x115e ; CLK_EnablePLL + 302
        0x00001146:    490e        .I      LDR      r1,[pc,#56] ; [0x1180] = 0x8421e
        0x00001148:    f04f4080    O..@    MOV      r0,#0x40000000
        0x0000114c:    f8c01240    ..@.    STR      r1,[r0,#0x240]
        0x00001150:    2004        .       MOVS     r0,#4
        0x00001152:    f000f989    ....    BL       CLK_WaitClockReady ; 0x1468
        0x00001156:    e8bd4ff8    ...O    POP      {r3-r11,lr}
        0x0000115a:    f000b881    ....    B.W      CLK_GetPLLClockFreq ; 0x1260
        0x0000115e:    f244211e    D..!    MOV      r1,#0x421e
        0x00001162:    e7f1        ..      B        0x1148 ; CLK_EnablePLL + 280
    $d
        0x00001164:    00b71b00    ....    DCD    12000000
        0x00001168:    fd050f80    ....    DCD    4244967296
        0x0000116c:    1ad27480    .t..    DCD    450000000
        0x00001170:    ffc2f700    ....    DCD    4290967296
        0x00001174:    047868c0    .hx.    DCD    75000000
        0x00001178:    ffffc000    ....    DCD    4294950912
        0x0000117c:    fffffe00    ....    DCD    4294966784
        0x00001180:    0008421e    .B..    DCD    541214
    $t
    i.CLK_EnableXtalRC
    CLK_EnableXtalRC
        0x00001184:    f04f4180    O..A    MOV      r1,#0x40000000
        0x00001188:    f8d12200    ..."    LDR      r2,[r1,#0x200]
        0x0000118c:    4302        .C      ORRS     r2,r2,r0
        0x0000118e:    f8c12200    ..."    STR      r2,[r1,#0x200]
        0x00001192:    4770        pG      BX       lr
    i.CLK_GetPCLK0Freq
    CLK_GetPCLK0Freq
        0x00001194:    b510        ..      PUSH     {r4,lr}
        0x00001196:    f003fb0b    ....    BL       SystemCoreClockUpdate ; 0x47b0
        0x0000119a:    f04f4180    O..A    MOV      r1,#0x40000000
        0x0000119e:    f8d10234    ..4.    LDR      r0,[r1,#0x234]
        0x000011a2:    0742        B.      LSLS     r2,r0,#29
        0x000011a4:    4813        .H      LDR      r0,[pc,#76] ; [0x11f4] = 0x20000000
        0x000011a6:    d017        ..      BEQ      0x11d8 ; CLK_GetPCLK0Freq + 68
        0x000011a8:    f8d12234    ..4"    LDR      r2,[r1,#0x234]
        0x000011ac:    f0020207    ....    AND      r2,r2,#7
        0x000011b0:    2a01        .*      CMP      r2,#1
        0x000011b2:    d013        ..      BEQ      0x11dc ; CLK_GetPCLK0Freq + 72
        0x000011b4:    f8d12234    ..4"    LDR      r2,[r1,#0x234]
        0x000011b8:    f0020207    ....    AND      r2,r2,#7
        0x000011bc:    2a02        .*      CMP      r2,#2
        0x000011be:    d010        ..      BEQ      0x11e2 ; CLK_GetPCLK0Freq + 78
        0x000011c0:    f8d12234    ..4"    LDR      r2,[r1,#0x234]
        0x000011c4:    f0020207    ....    AND      r2,r2,#7
        0x000011c8:    2a03        .*      CMP      r2,#3
        0x000011ca:    d00d        ..      BEQ      0x11e8 ; CLK_GetPCLK0Freq + 84
        0x000011cc:    f8d11234    ..4.    LDR      r1,[r1,#0x234]
        0x000011d0:    f0010107    ....    AND      r1,r1,#7
        0x000011d4:    2904        .)      CMP      r1,#4
        0x000011d6:    d00a        ..      BEQ      0x11ee ; CLK_GetPCLK0Freq + 90
        0x000011d8:    6800        .h      LDR      r0,[r0,#0]
        0x000011da:    bd10        ..      POP      {r4,pc}
        0x000011dc:    6800        .h      LDR      r0,[r0,#0]
        0x000011de:    0840        @.      LSRS     r0,r0,#1
        0x000011e0:    bd10        ..      POP      {r4,pc}
        0x000011e2:    6800        .h      LDR      r0,[r0,#0]
        0x000011e4:    0880        ..      LSRS     r0,r0,#2
        0x000011e6:    bd10        ..      POP      {r4,pc}
        0x000011e8:    6800        .h      LDR      r0,[r0,#0]
        0x000011ea:    08c0        ..      LSRS     r0,r0,#3
        0x000011ec:    bd10        ..      POP      {r4,pc}
        0x000011ee:    6800        .h      LDR      r0,[r0,#0]
        0x000011f0:    0900        ..      LSRS     r0,r0,#4
        0x000011f2:    bd10        ..      POP      {r4,pc}
    $d
        0x000011f4:    20000000    ...     DCD    536870912
    $t
    i.CLK_GetPCLK1Freq
    CLK_GetPCLK1Freq
        0x000011f8:    b510        ..      PUSH     {r4,lr}
        0x000011fa:    f003fad9    ....    BL       SystemCoreClockUpdate ; 0x47b0
        0x000011fe:    f04f4180    O..A    MOV      r1,#0x40000000
        0x00001202:    f8d10234    ..4.    LDR      r0,[r1,#0x234]
        0x00001206:    f0100f70    ..p.    TST      r0,#0x70
        0x0000120a:    4814        .H      LDR      r0,[pc,#80] ; [0x125c] = 0x20000000
        0x0000120c:    d017        ..      BEQ      0x123e ; CLK_GetPCLK1Freq + 70
        0x0000120e:    f8d12234    ..4"    LDR      r2,[r1,#0x234]
        0x00001212:    f3c21202    ....    UBFX     r2,r2,#4,#3
        0x00001216:    2a01        .*      CMP      r2,#1
        0x00001218:    d013        ..      BEQ      0x1242 ; CLK_GetPCLK1Freq + 74
        0x0000121a:    f8d12234    ..4"    LDR      r2,[r1,#0x234]
        0x0000121e:    f3c21202    ....    UBFX     r2,r2,#4,#3
        0x00001222:    2a02        .*      CMP      r2,#2
        0x00001224:    d010        ..      BEQ      0x1248 ; CLK_GetPCLK1Freq + 80
        0x00001226:    f8d12234    ..4"    LDR      r2,[r1,#0x234]
        0x0000122a:    f3c21202    ....    UBFX     r2,r2,#4,#3
        0x0000122e:    2a03        .*      CMP      r2,#3
        0x00001230:    d00d        ..      BEQ      0x124e ; CLK_GetPCLK1Freq + 86
        0x00001232:    f8d11234    ..4.    LDR      r1,[r1,#0x234]
        0x00001236:    f3c11102    ....    UBFX     r1,r1,#4,#3
        0x0000123a:    2904        .)      CMP      r1,#4
        0x0000123c:    d00a        ..      BEQ      0x1254 ; CLK_GetPCLK1Freq + 92
        0x0000123e:    6800        .h      LDR      r0,[r0,#0]
        0x00001240:    bd10        ..      POP      {r4,pc}
        0x00001242:    6800        .h      LDR      r0,[r0,#0]
        0x00001244:    0840        @.      LSRS     r0,r0,#1
        0x00001246:    bd10        ..      POP      {r4,pc}
        0x00001248:    6800        .h      LDR      r0,[r0,#0]
        0x0000124a:    0880        ..      LSRS     r0,r0,#2
        0x0000124c:    bd10        ..      POP      {r4,pc}
        0x0000124e:    6800        .h      LDR      r0,[r0,#0]
        0x00001250:    08c0        ..      LSRS     r0,r0,#3
        0x00001252:    bd10        ..      POP      {r4,pc}
        0x00001254:    6800        .h      LDR      r0,[r0,#0]
        0x00001256:    0900        ..      LSRS     r0,r0,#4
        0x00001258:    bd10        ..      POP      {r4,pc}
    $d
        0x0000125a:    0000        ..      DCW    0
        0x0000125c:    20000000    ...     DCD    536870912
    $t
    i.CLK_GetPLLClockFreq
    CLK_GetPLLClockFreq
        0x00001260:    b508        ..      PUSH     {r3,lr}
        0x00001262:    a110        ..      ADR      r1,{pc}+0x42 ; 0x12a4
        0x00001264:    2000        .       MOVS     r0,#0
        0x00001266:    6809        .h      LDR      r1,[r1,#0]
        0x00001268:    9100        ..      STR      r1,[sp,#0]
        0x0000126a:    f04f4180    O..A    MOV      r1,#0x40000000
        0x0000126e:    f8d11240    ..@.    LDR      r1,[r1,#0x240]
        0x00001272:    f4112fa0    .../    TST      r1,#0x50000
        0x00001276:    d113        ..      BNE      0x12a0 ; CLK_GetPLLClockFreq + 64
        0x00001278:    480b        .H      LDR      r0,[pc,#44] ; [0x12a8] = 0xb71b00
        0x0000127a:    038a        ..      LSLS     r2,r1,#14
        0x0000127c:    d410        ..      BMI      0x12a0 ; CLK_GetPLLClockFreq + 64
        0x0000127e:    f3c10008    ....    UBFX     r0,r1,#0,#9
        0x00001282:    f3c13281    ...2    UBFX     r2,r1,#14,#2
        0x00001286:    4b09        .K      LDR      r3,[pc,#36] ; [0x12ac] = 0x2dc6c0
        0x00001288:    1c80        ..      ADDS     r0,r0,#2
        0x0000128a:    f81d2002    ...     LDRB     r2,[sp,r2]
        0x0000128e:    f3c12144    ..D!    UBFX     r1,r1,#9,#5
        0x00001292:    4358        XC      MULS     r0,r3,r0
        0x00001294:    1c49        I.      ADDS     r1,r1,#1
        0x00001296:    fb11f102    ....    SMULBB   r1,r1,r2
        0x0000129a:    fbb0f0f1    ....    UDIV     r0,r0,r1
        0x0000129e:    00c0        ..      LSLS     r0,r0,#3
        0x000012a0:    bd08        ..      POP      {r3,pc}
    $d
        0x000012a2:    0000        ..      DCW    0
        0x000012a4:    04020201    ....    DCD    67240449
        0x000012a8:    00b71b00    ....    DCD    12000000
        0x000012ac:    002dc6c0    ..-.    DCD    3000000
    $t
    i.CLK_SetCoreClock
    CLK_SetCoreClock
        0x000012b0:    b570        p.      PUSH     {r4-r6,lr}
        0x000012b2:    f04f4480    O..D    MOV      r4,#0x40000000
        0x000012b6:    4606        .F      MOV      r6,r0
        0x000012b8:    f8d40250    ..P.    LDR      r0,[r4,#0x250]
        0x000012bc:    f0000510    ....    AND      r5,r0,#0x10
        0x000012c0:    481b        .H      LDR      r0,[pc,#108] ; [0x1330] = 0xb71b000
        0x000012c2:    4286        .B      CMP      r6,r0
        0x000012c4:    d900        ..      BLS      0x12c8 ; CLK_SetCoreClock + 24
        0x000012c6:    4606        .F      MOV      r6,r0
        0x000012c8:    f8d40200    ....    LDR      r0,[r4,#0x200]
        0x000012cc:    f0400004    @...    ORR      r0,r0,#4
        0x000012d0:    f8c40200    ....    STR      r0,[r4,#0x200]
        0x000012d4:    2010        .       MOVS     r0,#0x10
        0x000012d6:    f5047400    ...t    ADD      r4,r4,#0x200
        0x000012da:    f000f8c5    ....    BL       CLK_WaitClockReady ; 0x1468
        0x000012de:    6920         i      LDR      r0,[r4,#0x10]
        0x000012e0:    f0400007    @...    ORR      r0,r0,#7
        0x000012e4:    6120         a      STR      r0,[r4,#0x10]
        0x000012e6:    6a20         j      LDR      r0,[r4,#0x20]
        0x000012e8:    f020000f     ...    BIC      r0,r0,#0xf
        0x000012ec:    6220         b      STR      r0,[r4,#0x20]
        0x000012ee:    6820         h      LDR      r0,[r4,#0]
        0x000012f0:    f5a47400    ...t    SUB      r4,r4,#0x200
        0x000012f4:    07c0        ..      LSLS     r0,r0,#31
        0x000012f6:    4631        1F      MOV      r1,r6
        0x000012f8:    d004        ..      BEQ      0x1304 ; CLK_SetCoreClock + 84
        0x000012fa:    2000        .       MOVS     r0,#0
        0x000012fc:    f7fffe98    ....    BL       CLK_EnablePLL ; 0x1030
        0x00001300:    4606        .F      MOV      r6,r0
        0x00001302:    e008        ..      B        0x1316 ; CLK_SetCoreClock + 102
        0x00001304:    f44f2000    O..     MOV      r0,#0x80000
        0x00001308:    f7fffe92    ....    BL       CLK_EnablePLL ; 0x1030
        0x0000130c:    4606        .F      MOV      r6,r0
        0x0000130e:    f8d40250    ..P.    LDR      r0,[r4,#0x250]
        0x00001312:    f0000510    ....    AND      r5,r0,#0x10
        0x00001316:    2100        .!      MOVS     r1,#0
        0x00001318:    2002        .       MOVS     r0,#2
        0x0000131a:    f000f80b    ....    BL       CLK_SetHCLK ; 0x1334
        0x0000131e:    b92d        -.      CBNZ     r5,0x132c ; CLK_SetCoreClock + 124
        0x00001320:    f8d40200    ....    LDR      r0,[r4,#0x200]
        0x00001324:    f0200004     ...    BIC      r0,r0,#4
        0x00001328:    f8c40200    ....    STR      r0,[r4,#0x200]
        0x0000132c:    4630        0F      MOV      r0,r6
        0x0000132e:    bd70        p.      POP      {r4-r6,pc}
    $d
        0x00001330:    0b71b000    ..q.    DCD    192000000
    $t
    i.CLK_SetHCLK
    CLK_SetHCLK
        0x00001334:    e92d41f0    -..A    PUSH     {r4-r8,lr}
        0x00001338:    f04f4480    O..D    MOV      r4,#0x40000000
        0x0000133c:    4607        .F      MOV      r7,r0
        0x0000133e:    f8d40250    ..P.    LDR      r0,[r4,#0x250]
        0x00001342:    460e        .F      MOV      r6,r1
        0x00001344:    f0000510    ....    AND      r5,r0,#0x10
        0x00001348:    f8d40200    ....    LDR      r0,[r4,#0x200]
        0x0000134c:    f0400004    @...    ORR      r0,r0,#4
        0x00001350:    f8c40200    ....    STR      r0,[r4,#0x200]
        0x00001354:    2010        .       MOVS     r0,#0x10
        0x00001356:    f5047400    ...t    ADD      r4,r4,#0x200
        0x0000135a:    f000f885    ....    BL       CLK_WaitClockReady ; 0x1468
        0x0000135e:    6920         i      LDR      r0,[r4,#0x10]
        0x00001360:    f0400007    @...    ORR      r0,r0,#7
        0x00001364:    6120         a      STR      r0,[r4,#0x10]
        0x00001366:    6a20         j      LDR      r0,[r4,#0x20]
        0x00001368:    f020000f     ...    BIC      r0,r0,#0xf
        0x0000136c:    4330        0C      ORRS     r0,r0,r6
        0x0000136e:    6220         b      STR      r0,[r4,#0x20]
        0x00001370:    6920         i      LDR      r0,[r4,#0x10]
        0x00001372:    f0200007     ...    BIC      r0,r0,#7
        0x00001376:    4338        8C      ORRS     r0,r0,r7
        0x00001378:    6120         a      STR      r0,[r4,#0x10]
        0x0000137a:    f5a47400    ...t    SUB      r4,r4,#0x200
        0x0000137e:    f003fa17    ....    BL       SystemCoreClockUpdate ; 0x47b0
        0x00001382:    2d00        .-      CMP      r5,#0
        0x00001384:    d105        ..      BNE      0x1392 ; CLK_SetHCLK + 94
        0x00001386:    f8d40200    ....    LDR      r0,[r4,#0x200]
        0x0000138a:    f0200004     ...    BIC      r0,r0,#4
        0x0000138e:    f8c40200    ....    STR      r0,[r4,#0x200]
        0x00001392:    e8bd81f0    ....    POP      {r4-r8,pc}
        0x00001396:    0000        ..      MOVS     r0,r0
    i.CLK_SetModuleClock
    CLK_SetModuleClock
        0x00001398:    b5f0        ..      PUSH     {r4-r7,lr}
        0x0000139a:    f4103f7f    ...?    TST      r0,#0x3fc00
        0x0000139e:    d02e        ..      BEQ      0x13fe ; CLK_SetModuleClock + 102
        0x000013a0:    f04f4380    O..C    MOV      r3,#0x40000000
        0x000013a4:    f8d331f4    ...1    LDR      r3,[r3,#0x1f4]
        0x000013a8:    f8dfc078    ..x.    LDR      r12,[pc,#120] ; [0x1424] = 0x4000022c
        0x000013ac:    b2df        ..      UXTB     r7,r3
        0x000013ae:    4b1d        .K      LDR      r3,[pc,#116] ; [0x1424] = 0x4000022c
        0x000013b0:    f3c04481    ...D    UBFX     r4,r0,#18,#2
        0x000013b4:    3b0c        .;      SUBS     r3,r3,#0xc
        0x000013b6:    ea6f4590    o..E    MVN      r5,r0,LSR #18
        0x000013ba:    f10c0604    ....    ADD      r6,r12,#4
        0x000013be:    eb030384    ....    ADD      r3,r3,r4,LSL #2
        0x000013c2:    2f01        ./      CMP      r7,#1
        0x000013c4:    d002        ..      BEQ      0x13cc ; CLK_SetModuleClock + 52
        0x000013c6:    2c02        .,      CMP      r4,#2
        0x000013c8:    d00d        ..      BEQ      0x13e6 ; CLK_SetModuleClock + 78
        0x000013ca:    e001        ..      B        0x13d0 ; CLK_SetModuleClock + 56
        0x000013cc:    2c02        .,      CMP      r4,#2
        0x000013ce:    d002        ..      BEQ      0x13d6 ; CLK_SetModuleClock + 62
        0x000013d0:    07ac        ..      LSLS     r4,r5,#30
        0x000013d2:    d00a        ..      BEQ      0x13ea ; CLK_SetModuleClock + 82
        0x000013d4:    e00a        ..      B        0x13ec ; CLK_SetModuleClock + 84
        0x000013d6:    43c3        .C      MVNS     r3,r0
        0x000013d8:    06dc        ..      LSLS     r4,r3,#27
        0x000013da:    4b13        .K      LDR      r3,[pc,#76] ; [0x1428] = 0x40000228
        0x000013dc:    d006        ..      BEQ      0x13ec ; CLK_SetModuleClock + 84
        0x000013de:    f000041f    ....    AND      r4,r0,#0x1f
        0x000013e2:    2c1d        .,      CMP      r4,#0x1d
        0x000013e4:    d002        ..      BEQ      0x13ec ; CLK_SetModuleClock + 84
        0x000013e6:    4663        cF      MOV      r3,r12
        0x000013e8:    e000        ..      B        0x13ec ; CLK_SetModuleClock + 84
        0x000013ea:    4633        3F      MOV      r3,r6
        0x000013ec:    681c        .h      LDR      r4,[r3,#0]
        0x000013ee:    f3c02587    ...%    UBFX     r5,r0,#10,#8
        0x000013f2:    f3c01644    ..D.    UBFX     r6,r0,#5,#5
        0x000013f6:    40b5        .@      LSLS     r5,r5,r6
        0x000013f8:    43ac        .C      BICS     r4,r4,r5
        0x000013fa:    4314        .C      ORRS     r4,r4,r2
        0x000013fc:    601c        .`      STR      r4,[r3,#0]
        0x000013fe:    0e42        B.      LSRS     r2,r0,#25
        0x00001400:    0752        R.      LSLS     r2,r2,#29
        0x00001402:    d00e        ..      BEQ      0x1422 ; CLK_SetModuleClock + 138
        0x00001404:    4b08        .K      LDR      r3,[pc,#32] ; [0x1428] = 0x40000228
        0x00001406:    f3c07201    ...r    UBFX     r2,r0,#28,#2
        0x0000140a:    3b18        .;      SUBS     r3,r3,#0x18
        0x0000140c:    eb030282    ....    ADD      r2,r3,r2,LSL #2
        0x00001410:    6813        .h      LDR      r3,[r2,#0]
        0x00001412:    f3c06442    ..Bd    UBFX     r4,r0,#25,#3
        0x00001416:    f3c05004    ...P    UBFX     r0,r0,#20,#5
        0x0000141a:    4084        .@      LSLS     r4,r4,r0
        0x0000141c:    43a3        .C      BICS     r3,r3,r4
        0x0000141e:    430b        .C      ORRS     r3,r3,r1
        0x00001420:    6013        .`      STR      r3,[r2,#0]
        0x00001422:    bdf0        ..      POP      {r4-r7,pc}
    $d
        0x00001424:    4000022c    ,..@    DCD    1073742380
        0x00001428:    40000228    (..@    DCD    1073742376
    $t
    i.CLK_SysTickLongDelay
    CLK_SysTickLongDelay
        0x0000142c:    b570        p.      PUSH     {r4-r6,lr}
        0x0000142e:    4a0d        .J      LDR      r2,[pc,#52] ; [0x1464] = 0x20000004
        0x00001430:    490b        .I      LDR      r1,[pc,#44] ; [0x1460] = 0x55555
        0x00001432:    2605        .&      MOVS     r6,#5
        0x00001434:    6814        .h      LDR      r4,[r2,#0]
        0x00001436:    2500        .%      MOVS     r5,#0
        0x00001438:    f04f22e0    O.."    MOV      r2,#0xe000e000
        0x0000143c:    4288        .B      CMP      r0,r1
        0x0000143e:    d901        ..      BLS      0x1444 ; CLK_SysTickLongDelay + 24
        0x00001440:    1a40        @.      SUBS     r0,r0,r1
        0x00001442:    e001        ..      B        0x1448 ; CLK_SysTickLongDelay + 28
        0x00001444:    4601        .F      MOV      r1,r0
        0x00001446:    2000        .       MOVS     r0,#0
        0x00001448:    fb01f304    ....    MUL      r3,r1,r4
        0x0000144c:    6153        Sa      STR      r3,[r2,#0x14]
        0x0000144e:    6195        .a      STR      r5,[r2,#0x18]
        0x00001450:    6116        .a      STR      r6,[r2,#0x10]
        0x00001452:    6913        .i      LDR      r3,[r2,#0x10]
        0x00001454:    03db        ..      LSLS     r3,r3,#15
        0x00001456:    d5fc        ..      BPL      0x1452 ; CLK_SysTickLongDelay + 38
        0x00001458:    6115        .a      STR      r5,[r2,#0x10]
        0x0000145a:    2800        .(      CMP      r0,#0
        0x0000145c:    d1ee        ..      BNE      0x143c ; CLK_SysTickLongDelay + 16
        0x0000145e:    bd70        p.      POP      {r4-r6,pc}
    $d
        0x00001460:    00055555    UU..    DCD    349525
        0x00001464:    20000004    ...     DCD    536870916
    $t
    i.CLK_WaitClockReady
    CLK_WaitClockReady
        0x00001468:    b570        p.      PUSH     {r4-r6,lr}
        0x0000146a:    4605        .F      MOV      r5,r0
        0x0000146c:    480b        .H      LDR      r0,[pc,#44] ; [0x149c] = 0x20000000
        0x0000146e:    4e0c        .N      LDR      r6,[pc,#48] ; [0x14a0] = 0x20000ed8
        0x00001470:    2401        .$      MOVS     r4,#1
        0x00001472:    6800        .h      LDR      r0,[r0,#0]
        0x00001474:    0841        A.      LSRS     r1,r0,#1
        0x00001476:    2000        .       MOVS     r0,#0
        0x00001478:    07a2        ..      LSLS     r2,r4,#30
        0x0000147a:    6030        0`      STR      r0,[r6,#0]
        0x0000147c:    e001        ..      B        0x1482 ; CLK_WaitClockReady + 26
        0x0000147e:    1e49        I.      SUBS     r1,r1,#1
        0x00001480:    d006        ..      BEQ      0x1490 ; CLK_WaitClockReady + 40
        0x00001482:    f8d23250    ..P2    LDR      r3,[r2,#0x250]
        0x00001486:    ea350003    5...    BICS     r0,r5,r3
        0x0000148a:    d1f8        ..      BNE      0x147e ; CLK_WaitClockReady + 22
        0x0000148c:    b109        ..      CBZ      r1,0x1492 ; CLK_WaitClockReady + 42
        0x0000148e:    e003        ..      B        0x1498 ; CLK_WaitClockReady + 48
        0x00001490:    2400        .$      MOVS     r4,#0
        0x00001492:    f04f30ff    O..0    MOV      r0,#0xffffffff
        0x00001496:    6030        0`      STR      r0,[r6,#0]
        0x00001498:    4620         F      MOV      r0,r4
        0x0000149a:    bd70        p.      POP      {r4-r6,pc}
    $d
        0x0000149c:    20000000    ...     DCD    536870912
        0x000014a0:    20000ed8    ...     DCD    536874712
    $t
    i.Check2Phase
    Check2Phase
        0x000014a4:    480a        .H      LDR      r0,[pc,#40] ; [0x14d0] = 0x20000fc0
        0x000014a6:    b510        ..      PUSH     {r4,lr}
        0x000014a8:    6840        @h      LDR      r0,[r0,#4]
        0x000014aa:    490a        .I      LDR      r1,[pc,#40] ; [0x14d4] = 0x42dc0000
        0x000014ac:    4288        .B      CMP      r0,r1
        0x000014ae:    db04        ..      BLT      0x14ba ; Check2Phase + 22
        0x000014b0:    a009        ..      ADR      r0,{pc}+0x28 ; 0x14d8
        0x000014b2:    f000f871    ..q.    BL       Debug ; 0x1598
        0x000014b6:    2003        .       MOVS     r0,#3
        0x000014b8:    bd10        ..      POP      {r4,pc}
        0x000014ba:    490d        .I      LDR      r1,[pc,#52] ; [0x14f0] = 0x42da0000
        0x000014bc:    4288        .B      CMP      r0,r1
        0x000014be:    dc04        ..      BGT      0x14ca ; Check2Phase + 38
        0x000014c0:    a00c        ..      ADR      r0,{pc}+0x34 ; 0x14f4
        0x000014c2:    f000f869    ..i.    BL       Debug ; 0x1598
        0x000014c6:    2002        .       MOVS     r0,#2
        0x000014c8:    bd10        ..      POP      {r4,pc}
        0x000014ca:    2000        .       MOVS     r0,#0
        0x000014cc:    bd10        ..      POP      {r4,pc}
    $d
        0x000014ce:    0000        ..      DCW    0
        0x000014d0:    20000fc0    ...     DCD    536874944
        0x000014d4:    42dc0000    ...B    DCD    1121714176
        0x000014d8:    6f570d0a    ..Wo    DCD    1867975946
        0x000014dc:    6e696b72    rkin    DCD    1852402546
        0x000014e0:    6e6f2067    g on    DCD    1852776551
        0x000014e4:    70203320     3 p    DCD    1881158432
        0x000014e8:    65736168    hase    DCD    1702060392
        0x000014ec:    00000d0a    ....    DCD    3338
        0x000014f0:    42da0000    ...B    DCD    1121583104
        0x000014f4:    6f570d0a    ..Wo    DCD    1867975946
        0x000014f8:    6e696b72    rkin    DCD    1852402546
        0x000014fc:    6e6f2067    g on    DCD    1852776551
        0x00001500:    70203220     2 p    DCD    1881158176
        0x00001504:    65736168    hase    DCD    1702060392
        0x00001508:    00000d0a    ....    DCD    3338
    $t
    i.Config_GPIOs
    Config_GPIOs
        0x0000150c:    b570        p.      PUSH     {r4-r6,lr}
        0x0000150e:    f04f2440    O.@$    MOV      r4,#0x40004000
        0x00001512:    2201        ."      MOVS     r2,#1
        0x00001514:    211f        .!      MOVS     r1,#0x1f
        0x00001516:    4620         F      MOV      r0,r4
        0x00001518:    f000f9d8    ....    BL       GPIO_SetMode ; 0x18cc
        0x0000151c:    4d1b        .M      LDR      r5,[pc,#108] ; [0x158c] = 0x40004080
        0x0000151e:    2200        ."      MOVS     r2,#0
        0x00001520:    21f0        .!      MOVS     r1,#0xf0
        0x00001522:    4628        (F      MOV      r0,r5
        0x00001524:    f000f9d2    ....    BL       GPIO_SetMode ; 0x18cc
        0x00001528:    2200        ."      MOVS     r2,#0
        0x0000152a:    210c        .!      MOVS     r1,#0xc
        0x0000152c:    4628        (F      MOV      r0,r5
        0x0000152e:    f000f9cd    ....    BL       GPIO_SetMode ; 0x18cc
        0x00001532:    4e16        .N      LDR      r6,[pc,#88] ; [0x158c] = 0x40004080
        0x00001534:    2200        ."      MOVS     r2,#0
        0x00001536:    36c0        .6      ADDS     r6,r6,#0xc0
        0x00001538:    2130        0!      MOVS     r1,#0x30
        0x0000153a:    4630        0F      MOV      r0,r6
        0x0000153c:    f000f9c6    ....    BL       GPIO_SetMode ; 0x18cc
        0x00001540:    2201        ."      MOVS     r2,#1
        0x00001542:    f44f6170    O.pa    MOV      r1,#0xf00
        0x00001546:    4620         F      MOV      r0,r4
        0x00001548:    f000f9c0    ....    BL       GPIO_SetMode ; 0x18cc
        0x0000154c:    2201        ."      MOVS     r2,#1
        0x0000154e:    2140        @!      MOVS     r1,#0x40
        0x00001550:    4630        0F      MOV      r0,r6
        0x00001552:    f000f9bb    ....    BL       GPIO_SetMode ; 0x18cc
        0x00001556:    f640711f    @..q    MOV      r1,#0xf1f
        0x0000155a:    4620         F      MOV      r0,r4
        0x0000155c:    f000f9aa    ....    BL       GPIO_DisableInt ; 0x18b4
        0x00001560:    21fc        .!      MOVS     r1,#0xfc
        0x00001562:    4628        (F      MOV      r0,r5
        0x00001564:    f000f9a6    ....    BL       GPIO_DisableInt ; 0x18b4
        0x00001568:    2170        p!      MOVS     r1,#0x70
        0x0000156a:    4630        0F      MOV      r0,r6
        0x0000156c:    f000f9a2    ....    BL       GPIO_DisableInt ; 0x18b4
        0x00001570:    4907        .I      LDR      r1,[pc,#28] ; [0x1590] = 0x4000482c
        0x00001572:    2000        .       MOVS     r0,#0
        0x00001574:    6008        .`      STR      r0,[r1,#0]
        0x00001576:    4906        .I      LDR      r1,[pc,#24] ; [0x1590] = 0x4000482c
        0x00001578:    3908        .9      SUBS     r1,r1,#8
        0x0000157a:    6008        .`      STR      r0,[r1,#0]
        0x0000157c:    1d09        ..      ADDS     r1,r1,#4
        0x0000157e:    6008        .`      STR      r0,[r1,#0]
        0x00001580:    4903        .I      LDR      r1,[pc,#12] ; [0x1590] = 0x4000482c
        0x00001582:    390c        .9      SUBS     r1,r1,#0xc
        0x00001584:    6008        .`      STR      r0,[r1,#0]
        0x00001586:    4903        .I      LDR      r1,[pc,#12] ; [0x1594] = 0x40004958
        0x00001588:    6008        .`      STR      r0,[r1,#0]
        0x0000158a:    bd70        p.      POP      {r4-r6,pc}
    $d
        0x0000158c:    40004080    .@.@    DCD    1073758336
        0x00001590:    4000482c    ,H.@    DCD    1073760300
        0x00001594:    40004958    XI.@    DCD    1073760600
    $t
    i.Debug
    Debug
        0x00001598:    b40f        ..      PUSH     {r0-r3}
        0x0000159a:    480b        .H      LDR      r0,[pc,#44] ; [0x15c8] = 0x2000119b
        0x0000159c:    b510        ..      PUSH     {r4,lr}
        0x0000159e:    f44f6480    O..d    MOV      r4,#0x400
        0x000015a2:    4621        !F      MOV      r1,r4
        0x000015a4:    f7fefe98    ....    BL       __aeabi_memclr ; 0x2d8
        0x000015a8:    ab03        ..      ADD      r3,sp,#0xc
        0x000015aa:    4621        !F      MOV      r1,r4
        0x000015ac:    4806        .H      LDR      r0,[pc,#24] ; [0x15c8] = 0x2000119b
        0x000015ae:    9a02        ..      LDR      r2,[sp,#8]
        0x000015b0:    f003fef8    ....    BL       __0vsnprintf ; 0x53a4
        0x000015b4:    4804        .H      LDR      r0,[pc,#16] ; [0x15c8] = 0x2000119b
        0x000015b6:    f7fefeb8    ....    BL       strlen ; 0x32a
        0x000015ba:    4601        .F      MOV      r1,r0
        0x000015bc:    4802        .H      LDR      r0,[pc,#8] ; [0x15c8] = 0x2000119b
        0x000015be:    f004fc51    ..Q.    BL       debug ; 0x5e64
        0x000015c2:    bc10        ..      POP      {r4}
        0x000015c4:    f85dfb14    ]...    LDR      pc,[sp],#0x14
    $d
        0x000015c8:    2000119b    ...     DCD    536875419
    $t
    i.EADC00_IRQHandler
    EADC00_IRQHandler
        0x000015cc:    4903        .I      LDR      r1,[pc,#12] ; [0x15dc] = 0x2000002c
        0x000015ce:    2001        .       MOVS     r0,#1
        0x000015d0:    6488        .d      STR      r0,[r1,#0x48]
        0x000015d2:    4903        .I      LDR      r1,[pc,#12] ; [0x15e0] = 0x40043000
        0x000015d4:    f8c100f8    ....    STR      r0,[r1,#0xf8]
        0x000015d8:    4770        pG      BX       lr
    $d
        0x000015da:    0000        ..      DCW    0
        0x000015dc:    2000002c    ,..     DCD    536870956
        0x000015e0:    40043000    .0.@    DCD    1074016256
    $t
    i.EADC_ConfigSampleModule
    EADC_ConfigSampleModule
        0x000015e4:    b510        ..      PUSH     {r4,lr}
        0x000015e6:    eb000081    ....    ADD      r0,r0,r1,LSL #2
        0x000015ea:    f8501f80    P...    LDR      r1,[r0,#0x80]!
        0x000015ee:    4c04        .L      LDR      r4,[pc,#16] ; [0x1600] = 0xffe0ffc0
        0x000015f0:    4021        !@      ANDS     r1,r1,r4
        0x000015f2:    6001        .`      STR      r1,[r0,#0]
        0x000015f4:    6801        .h      LDR      r1,[r0,#0]
        0x000015f6:    431a        .C      ORRS     r2,r2,r3
        0x000015f8:    4311        .C      ORRS     r1,r1,r2
        0x000015fa:    6001        .`      STR      r1,[r0,#0]
        0x000015fc:    bd10        ..      POP      {r4,pc}
    $d
        0x000015fe:    0000        ..      DCW    0
        0x00001600:    ffe0ffc0    ....    DCD    4292935616
    $t
    i.EADC_Open
    EADC_Open
        0x00001604:    b510        ..      PUSH     {r4,lr}
        0x00001606:    4a0d        .J      LDR      r2,[pc,#52] ; [0x163c] = 0x20000000
        0x00001608:    4b0d        .K      LDR      r3,[pc,#52] ; [0x1640] = 0x20000edc
        0x0000160a:    2400        .$      MOVS     r4,#0
        0x0000160c:    6812        .h      LDR      r2,[r2,#0]
        0x0000160e:    601c        .`      STR      r4,[r3,#0]
        0x00001610:    6d04        .m      LDR      r4,[r0,#0x50]
        0x00001612:    f4247480    $..t    BIC      r4,r4,#0x100
        0x00001616:    6504        .e      STR      r4,[r0,#0x50]
        0x00001618:    6d04        .m      LDR      r4,[r0,#0x50]
        0x0000161a:    f0410101    A...    ORR      r1,r1,#1
        0x0000161e:    430c        .C      ORRS     r4,r4,r1
        0x00001620:    6504        .e      STR      r4,[r0,#0x50]
        0x00001622:    e001        ..      B        0x1628 ; EADC_Open + 36
        0x00001624:    1e52        R.      SUBS     r2,r2,#1
        0x00001626:    d004        ..      BEQ      0x1632 ; EADC_Open + 46
        0x00001628:    f8d01110    ....    LDR      r1,[r0,#0x110]
        0x0000162c:    07c9        ..      LSLS     r1,r1,#31
        0x0000162e:    d0f9        ..      BEQ      0x1624 ; EADC_Open + 32
        0x00001630:    bd10        ..      POP      {r4,pc}
        0x00001632:    f04f30ff    O..0    MOV      r0,#0xffffffff
        0x00001636:    6018        .`      STR      r0,[r3,#0]
        0x00001638:    bd10        ..      POP      {r4,pc}
    $d
        0x0000163a:    0000        ..      DCW    0
        0x0000163c:    20000000    ...     DCD    536870912
        0x00001640:    20000edc    ...     DCD    536874716
    $t
    i.FMC_Close
    FMC_Close
        0x00001644:    4802        .H      LDR      r0,[pc,#8] ; [0x1650] = 0x4000c000
        0x00001646:    6801        .h      LDR      r1,[r0,#0]
        0x00001648:    f0210101    !...    BIC      r1,r1,#1
        0x0000164c:    6001        .`      STR      r1,[r0,#0]
        0x0000164e:    4770        pG      BX       lr
    $d
        0x00001650:    4000c000    ...@    DCD    1073790976
    $t
    i.FMC_Erase
    FMC_Erase
        0x00001654:    4b15        .K      LDR      r3,[pc,#84] ; [0x16ac] = 0x20000ee0
        0x00001656:    2100        .!      MOVS     r1,#0
        0x00001658:    f5b01f00    ....    CMP      r0,#0x200000
        0x0000165c:    6019        .`      STR      r1,[r3,#0]
        0x0000165e:    d019        ..      BEQ      0x1694 ; FMC_Erase + 64
        0x00001660:    4a13        .J      LDR      r2,[pc,#76] ; [0x16b0] = 0x4000c000
        0x00001662:    2122        "!      MOVS     r1,#0x22
        0x00001664:    60d1        .`      STR      r1,[r2,#0xc]
        0x00001666:    6050        P`      STR      r0,[r2,#4]
        0x00001668:    2001        .       MOVS     r0,#1
        0x0000166a:    6110        .a      STR      r0,[r2,#0x10]
        0x0000166c:    4811        .H      LDR      r0,[pc,#68] ; [0x16b4] = 0x20000000
        0x0000166e:    6801        .h      LDR      r1,[r0,#0]
        0x00001670:    200a        .       MOVS     r0,#0xa
        0x00001672:    fbb1f0f0    ....    UDIV     r0,r1,r0
        0x00001676:    0081        ..      LSLS     r1,r0,#2
        0x00001678:    1e08        ..      SUBS     r0,r1,#0
        0x0000167a:    f1a10101    ....    SUB      r1,r1,#1
        0x0000167e:    dd03        ..      BLE      0x1688 ; FMC_Erase + 52
        0x00001680:    f8d200c0    ....    LDR      r0,[r2,#0xc0]
        0x00001684:    07c0        ..      LSLS     r0,r0,#31
        0x00001686:    d1f7        ..      BNE      0x1678 ; FMC_Erase + 36
        0x00001688:    f04f30ff    O..0    MOV      r0,#0xffffffff
        0x0000168c:    2900        .)      CMP      r1,#0
        0x0000168e:    dc03        ..      BGT      0x1698 ; FMC_Erase + 68
        0x00001690:    6018        .`      STR      r0,[r3,#0]
        0x00001692:    4770        pG      BX       lr
        0x00001694:    f000b810    ....    B.W      FMC_Erase_SPROM ; 0x16b8
        0x00001698:    6811        .h      LDR      r1,[r2,#0]
        0x0000169a:    0649        I.      LSLS     r1,r1,#25
        0x0000169c:    d504        ..      BPL      0x16a8 ; FMC_Erase + 84
        0x0000169e:    6811        .h      LDR      r1,[r2,#0]
        0x000016a0:    f0410140    A.@.    ORR      r1,r1,#0x40
        0x000016a4:    6011        .`      STR      r1,[r2,#0]
        0x000016a6:    e7f3        ..      B        0x1690 ; FMC_Erase + 60
        0x000016a8:    2000        .       MOVS     r0,#0
        0x000016aa:    4770        pG      BX       lr
    $d
        0x000016ac:    20000ee0    ...     DCD    536874720
        0x000016b0:    4000c000    ...@    DCD    1073790976
        0x000016b4:    20000000    ...     DCD    536870912
    $t
    i.FMC_Erase_SPROM
    FMC_Erase_SPROM
        0x000016b8:    4b15        .K      LDR      r3,[pc,#84] ; [0x1710] = 0x20000ee0
        0x000016ba:    2000        .       MOVS     r0,#0
        0x000016bc:    4a15        .J      LDR      r2,[pc,#84] ; [0x1714] = 0x4000c000
        0x000016be:    6018        .`      STR      r0,[r3,#0]
        0x000016c0:    2022        "       MOVS     r0,#0x22
        0x000016c2:    60d0        .`      STR      r0,[r2,#0xc]
        0x000016c4:    f44f1000    O...    MOV      r0,#0x200000
        0x000016c8:    6050        P`      STR      r0,[r2,#4]
        0x000016ca:    4813        .H      LDR      r0,[pc,#76] ; [0x1718] = 0x55aa03
        0x000016cc:    6090        .`      STR      r0,[r2,#8]
        0x000016ce:    2001        .       MOVS     r0,#1
        0x000016d0:    6110        .a      STR      r0,[r2,#0x10]
        0x000016d2:    4812        .H      LDR      r0,[pc,#72] ; [0x171c] = 0x20000000
        0x000016d4:    210a        .!      MOVS     r1,#0xa
        0x000016d6:    6800        .h      LDR      r0,[r0,#0]
        0x000016d8:    fbb0f0f1    ....    UDIV     r0,r0,r1
        0x000016dc:    0081        ..      LSLS     r1,r0,#2
        0x000016de:    1e08        ..      SUBS     r0,r1,#0
        0x000016e0:    f1a10101    ....    SUB      r1,r1,#1
        0x000016e4:    dd03        ..      BLE      0x16ee ; FMC_Erase_SPROM + 54
        0x000016e6:    f8d200c0    ....    LDR      r0,[r2,#0xc0]
        0x000016ea:    07c0        ..      LSLS     r0,r0,#31
        0x000016ec:    d1f7        ..      BNE      0x16de ; FMC_Erase_SPROM + 38
        0x000016ee:    f04f30ff    O..0    MOV      r0,#0xffffffff
        0x000016f2:    2900        .)      CMP      r1,#0
        0x000016f4:    dc01        ..      BGT      0x16fa ; FMC_Erase_SPROM + 66
        0x000016f6:    6018        .`      STR      r0,[r3,#0]
        0x000016f8:    4770        pG      BX       lr
        0x000016fa:    6811        .h      LDR      r1,[r2,#0]
        0x000016fc:    0649        I.      LSLS     r1,r1,#25
        0x000016fe:    d504        ..      BPL      0x170a ; FMC_Erase_SPROM + 82
        0x00001700:    6811        .h      LDR      r1,[r2,#0]
        0x00001702:    f0410140    A.@.    ORR      r1,r1,#0x40
        0x00001706:    6011        .`      STR      r1,[r2,#0]
        0x00001708:    e7f5        ..      B        0x16f6 ; FMC_Erase_SPROM + 62
        0x0000170a:    2000        .       MOVS     r0,#0
        0x0000170c:    4770        pG      BX       lr
    $d
        0x0000170e:    0000        ..      DCW    0
        0x00001710:    20000ee0    ...     DCD    536874720
        0x00001714:    4000c000    ...@    DCD    1073790976
        0x00001718:    0055aa03    ..U.    DCD    5614083
        0x0000171c:    20000000    ...     DCD    536870912
    $t
    i.FMC_Open
    FMC_Open
        0x00001720:    4802        .H      LDR      r0,[pc,#8] ; [0x172c] = 0x4000c000
        0x00001722:    6801        .h      LDR      r1,[r0,#0]
        0x00001724:    f0410101    A...    ORR      r1,r1,#1
        0x00001728:    6001        .`      STR      r1,[r0,#0]
        0x0000172a:    4770        pG      BX       lr
    $d
        0x0000172c:    4000c000    ...@    DCD    1073790976
    $t
    i.FMC_Read
    FMC_Read
        0x00001730:    4b0e        .K      LDR      r3,[pc,#56] ; [0x176c] = 0x20000ee0
        0x00001732:    490f        .I      LDR      r1,[pc,#60] ; [0x1770] = 0x4000c000
        0x00001734:    2200        ."      MOVS     r2,#0
        0x00001736:    601a        .`      STR      r2,[r3,#0]
        0x00001738:    60ca        .`      STR      r2,[r1,#0xc]
        0x0000173a:    6048        H`      STR      r0,[r1,#4]
        0x0000173c:    2001        .       MOVS     r0,#1
        0x0000173e:    6108        .a      STR      r0,[r1,#0x10]
        0x00001740:    480c        .H      LDR      r0,[pc,#48] ; [0x1774] = 0x20000000
        0x00001742:    220a        ."      MOVS     r2,#0xa
        0x00001744:    6800        .h      LDR      r0,[r0,#0]
        0x00001746:    fbb0f0f2    ....    UDIV     r0,r0,r2
        0x0000174a:    0040        @.      LSLS     r0,r0,#1
        0x0000174c:    1e02        ..      SUBS     r2,r0,#0
        0x0000174e:    f1a00001    ....    SUB      r0,r0,#1
        0x00001752:    dd03        ..      BLE      0x175c ; FMC_Read + 44
        0x00001754:    f8d120c0    ...     LDR      r2,[r1,#0xc0]
        0x00001758:    07d2        ..      LSLS     r2,r2,#31
        0x0000175a:    d1f7        ..      BNE      0x174c ; FMC_Read + 28
        0x0000175c:    2800        .(      CMP      r0,#0
        0x0000175e:    dc03        ..      BGT      0x1768 ; FMC_Read + 56
        0x00001760:    f04f30ff    O..0    MOV      r0,#0xffffffff
        0x00001764:    6018        .`      STR      r0,[r3,#0]
        0x00001766:    4770        pG      BX       lr
        0x00001768:    6888        .h      LDR      r0,[r1,#8]
        0x0000176a:    4770        pG      BX       lr
    $d
        0x0000176c:    20000ee0    ...     DCD    536874720
        0x00001770:    4000c000    ...@    DCD    1073790976
        0x00001774:    20000000    ...     DCD    536870912
    $t
    i.FMC_ReadConfig
    FMC_ReadConfig
        0x00001778:    b570        p.      PUSH     {r4-r6,lr}
        0x0000177a:    4605        .F      MOV      r5,r0
        0x0000177c:    460e        .F      MOV      r6,r1
        0x0000177e:    2400        .$      MOVS     r4,#0
        0x00001780:    f44f1040    O.@.    MOV      r0,#0x300000
        0x00001784:    f7ffffd4    ....    BL       FMC_Read ; 0x1730
        0x00001788:    6028        (`      STR      r0,[r5,#0]
        0x0000178a:    4807        .H      LDR      r0,[pc,#28] ; [0x17a8] = 0x20000ee0
        0x0000178c:    6800        .h      LDR      r0,[r0,#0]
        0x0000178e:    2800        .(      CMP      r0,#0
        0x00001790:    d108        ..      BNE      0x17a4 ; FMC_ReadConfig + 44
        0x00001792:    2e02        ..      CMP      r6,#2
        0x00001794:    d201        ..      BCS      0x179a ; FMC_ReadConfig + 34
        0x00001796:    1e84        ..      SUBS     r4,r0,#2
        0x00001798:    e003        ..      B        0x17a2 ; FMC_ReadConfig + 42
        0x0000179a:    4804        .H      LDR      r0,[pc,#16] ; [0x17ac] = 0x300004
        0x0000179c:    f7ffffc8    ....    BL       FMC_Read ; 0x1730
        0x000017a0:    6068        h`      STR      r0,[r5,#4]
        0x000017a2:    4620         F      MOV      r0,r4
        0x000017a4:    bd70        p.      POP      {r4-r6,pc}
    $d
        0x000017a6:    0000        ..      DCW    0
        0x000017a8:    20000ee0    ...     DCD    536874720
        0x000017ac:    00300004    ..0.    DCD    3145732
    $t
    i.FMC_Write
    FMC_Write
        0x000017b0:    4b14        .K      LDR      r3,[pc,#80] ; [0x1804] = 0x20000ee0
        0x000017b2:    b510        ..      PUSH     {r4,lr}
        0x000017b4:    2200        ."      MOVS     r2,#0
        0x000017b6:    601a        .`      STR      r2,[r3,#0]
        0x000017b8:    4a13        .J      LDR      r2,[pc,#76] ; [0x1808] = 0x4000c000
        0x000017ba:    2421        !$      MOVS     r4,#0x21
        0x000017bc:    60d4        .`      STR      r4,[r2,#0xc]
        0x000017be:    6050        P`      STR      r0,[r2,#4]
        0x000017c0:    6091        .`      STR      r1,[r2,#8]
        0x000017c2:    2001        .       MOVS     r0,#1
        0x000017c4:    6110        .a      STR      r0,[r2,#0x10]
        0x000017c6:    4811        .H      LDR      r0,[pc,#68] ; [0x180c] = 0x20000000
        0x000017c8:    210a        .!      MOVS     r1,#0xa
        0x000017ca:    6800        .h      LDR      r0,[r0,#0]
        0x000017cc:    fbb0f0f1    ....    UDIV     r0,r0,r1
        0x000017d0:    0041        A.      LSLS     r1,r0,#1
        0x000017d2:    1e08        ..      SUBS     r0,r1,#0
        0x000017d4:    f1a10101    ....    SUB      r1,r1,#1
        0x000017d8:    dd03        ..      BLE      0x17e2 ; FMC_Write + 50
        0x000017da:    f8d200c0    ....    LDR      r0,[r2,#0xc0]
        0x000017de:    07c0        ..      LSLS     r0,r0,#31
        0x000017e0:    d1f7        ..      BNE      0x17d2 ; FMC_Write + 34
        0x000017e2:    f04f30ff    O..0    MOV      r0,#0xffffffff
        0x000017e6:    2900        .)      CMP      r1,#0
        0x000017e8:    dc01        ..      BGT      0x17ee ; FMC_Write + 62
        0x000017ea:    6018        .`      STR      r0,[r3,#0]
        0x000017ec:    bd10        ..      POP      {r4,pc}
        0x000017ee:    6c11        .l      LDR      r1,[r2,#0x40]
        0x000017f0:    0649        I.      LSLS     r1,r1,#25
        0x000017f2:    d504        ..      BPL      0x17fe ; FMC_Write + 78
        0x000017f4:    6c11        .l      LDR      r1,[r2,#0x40]
        0x000017f6:    f0410140    A.@.    ORR      r1,r1,#0x40
        0x000017fa:    6411        .d      STR      r1,[r2,#0x40]
        0x000017fc:    e7f5        ..      B        0x17ea ; FMC_Write + 58
        0x000017fe:    2000        .       MOVS     r0,#0
        0x00001800:    bd10        ..      POP      {r4,pc}
    $d
        0x00001802:    0000        ..      DCW    0
        0x00001804:    20000ee0    ...     DCD    536874720
        0x00001808:    4000c000    ...@    DCD    1073790976
        0x0000180c:    20000000    ...     DCD    536870912
    $t
    i.FMC_WriteConfig
    FMC_WriteConfig
        0x00001810:    e92d4ff0    -..O    PUSH     {r4-r11,lr}
        0x00001814:    4d24        $M      LDR      r5,[pc,#144] ; [0x18a8] = 0x4000c000
        0x00001816:    4606        .F      MOV      r6,r0
        0x00001818:    4688        .F      MOV      r8,r1
        0x0000181a:    6828        (h      LDR      r0,[r5,#0]
        0x0000181c:    f0400010    @...    ORR      r0,r0,#0x10
        0x00001820:    6028        (`      STR      r0,[r5,#0]
        0x00001822:    01af        ..      LSLS     r7,r5,#6
        0x00001824:    4638        8F      MOV      r0,r7
        0x00001826:    f7ffff15    ....    BL       FMC_Erase ; 0x1654
        0x0000182a:    f04f3bff    O..;    MOV      r11,#0xffffffff
        0x0000182e:    b110        ..      CBZ      r0,0x1836 ; FMC_WriteConfig + 38
        0x00001830:    4658        XF      MOV      r0,r11
        0x00001832:    e8bd8ff0    ....    POP      {r4-r11,pc}
        0x00001836:    4638        8F      MOV      r0,r7
        0x00001838:    f7ffff7a    ..z.    BL       FMC_Read ; 0x1730
        0x0000183c:    1c40        @.      ADDS     r0,r0,#1
        0x0000183e:    d125        %.      BNE      0x188c ; FMC_WriteConfig + 124
        0x00001840:    481a        .H      LDR      r0,[pc,#104] ; [0x18ac] = 0x300004
        0x00001842:    f7ffff75    ..u.    BL       FMC_Read ; 0x1730
        0x00001846:    1c40        @.      ADDS     r0,r0,#1
        0x00001848:    d120         .      BNE      0x188c ; FMC_WriteConfig + 124
        0x0000184a:    4818        .H      LDR      r0,[pc,#96] ; [0x18ac] = 0x300004
        0x0000184c:    1d00        ..      ADDS     r0,r0,#4
        0x0000184e:    f7ffff6f    ..o.    BL       FMC_Read ; 0x1730
        0x00001852:    f24a51a6    J..Q    MOV      r1,#0xa5a6
        0x00001856:    42c8        .B      CMN      r0,r1
        0x00001858:    d118        ..      BNE      0x188c ; FMC_WriteConfig + 124
        0x0000185a:    4815        .H      LDR      r0,[pc,#84] ; [0x18b0] = 0x20000ee0
        0x0000185c:    6801        .h      LDR      r1,[r0,#0]
        0x0000185e:    b9a9        ..      CBNZ     r1,0x188c ; FMC_WriteConfig + 124
        0x00001860:    2400        .$      MOVS     r4,#0
        0x00001862:    46b9        .F      MOV      r9,r7
        0x00001864:    4682        .F      MOV      r10,r0
        0x00001866:    e017        ..      B        0x1898 ; FMC_WriteConfig + 136
        0x00001868:    eb090084    ....    ADD      r0,r9,r4,LSL #2
        0x0000186c:    f8561024    V.$.    LDR      r1,[r6,r4,LSL #2]
        0x00001870:    4607        .F      MOV      r7,r0
        0x00001872:    f7ffff9d    ....    BL       FMC_Write ; 0x17b0
        0x00001876:    b948        H.      CBNZ     r0,0x188c ; FMC_WriteConfig + 124
        0x00001878:    4638        8F      MOV      r0,r7
        0x0000187a:    f7ffff59    ..Y.    BL       FMC_Read ; 0x1730
        0x0000187e:    f8561024    V.$.    LDR      r1,[r6,r4,LSL #2]
        0x00001882:    4288        .B      CMP      r0,r1
        0x00001884:    d102        ..      BNE      0x188c ; FMC_WriteConfig + 124
        0x00001886:    f8da0000    ....    LDR      r0,[r10,#0]
        0x0000188a:    b120         .      CBZ      r0,0x1896 ; FMC_WriteConfig + 134
        0x0000188c:    6828        (h      LDR      r0,[r5,#0]
        0x0000188e:    f0200010     ...    BIC      r0,r0,#0x10
        0x00001892:    6028        (`      STR      r0,[r5,#0]
        0x00001894:    e7cc        ..      B        0x1830 ; FMC_WriteConfig + 32
        0x00001896:    1c64        d.      ADDS     r4,r4,#1
        0x00001898:    4544        DE      CMP      r4,r8
        0x0000189a:    d3e5        ..      BCC      0x1868 ; FMC_WriteConfig + 88
        0x0000189c:    6828        (h      LDR      r0,[r5,#0]
        0x0000189e:    f0200010     ...    BIC      r0,r0,#0x10
        0x000018a2:    6028        (`      STR      r0,[r5,#0]
        0x000018a4:    2000        .       MOVS     r0,#0
        0x000018a6:    e7c4        ..      B        0x1832 ; FMC_WriteConfig + 34
    $d
        0x000018a8:    4000c000    ...@    DCD    1073790976
        0x000018ac:    00300004    ..0.    DCD    3145732
        0x000018b0:    20000ee0    ...     DCD    536874720
    $t
    i.GPIO_DisableInt
    GPIO_DisableInt
        0x000018b4:    6982        .i      LDR      r2,[r0,#0x18]
        0x000018b6:    2301        .#      MOVS     r3,#1
        0x000018b8:    408b        .@      LSLS     r3,r3,r1
        0x000018ba:    439a        .C      BICS     r2,r2,r3
        0x000018bc:    6182        .a      STR      r2,[r0,#0x18]
        0x000018be:    69c2        .i      LDR      r2,[r0,#0x1c]
        0x000018c0:    f04f1301    O...    MOV      r3,#0x10001
        0x000018c4:    408b        .@      LSLS     r3,r3,r1
        0x000018c6:    439a        .C      BICS     r2,r2,r3
        0x000018c8:    61c2        .a      STR      r2,[r0,#0x1c]
        0x000018ca:    4770        pG      BX       lr
    i.GPIO_SetMode
    GPIO_SetMode
        0x000018cc:    b5f0        ..      PUSH     {r4-r7,lr}
        0x000018ce:    2300        .#      MOVS     r3,#0
        0x000018d0:    2701        .'      MOVS     r7,#1
        0x000018d2:    2503        .%      MOVS     r5,#3
        0x000018d4:    fa07f403    ....    LSL      r4,r7,r3
        0x000018d8:    438c        .C      BICS     r4,r4,r1
        0x000018da:    d109        ..      BNE      0x18f0 ; GPIO_SetMode + 36
        0x000018dc:    6806        .h      LDR      r6,[r0,#0]
        0x000018de:    005c        \.      LSLS     r4,r3,#1
        0x000018e0:    fa05fc04    ....    LSL      r12,r5,r4
        0x000018e4:    ea26060c    &...    BIC      r6,r6,r12
        0x000018e8:    fa02f404    ....    LSL      r4,r2,r4
        0x000018ec:    4326        &C      ORRS     r6,r6,r4
        0x000018ee:    6006        .`      STR      r6,[r0,#0]
        0x000018f0:    1c5b        [.      ADDS     r3,r3,#1
        0x000018f2:    2b10        .+      CMP      r3,#0x10
        0x000018f4:    d3ee        ..      BCC      0x18d4 ; GPIO_SetMode + 8
        0x000018f6:    bdf0        ..      POP      {r4-r7,pc}
    i.Hard_Fault_Handler
    Hard_Fault_Handler
    __tagsym$$used
        0x000018f8:    4604        .F      MOV      r4,r0
        0x000018fa:    a003        ..      ADR      r0,{pc}+0xe ; 0x1908
        0x000018fc:    f003fd2e    ....    BL       __0printf ; 0x535c
        0x00001900:    4620         F      MOV      r0,r4
        0x00001902:    f005f975    ..u.    BL       stackDump ; 0x6bf0
        0x00001906:    e7fe        ..      B        0x1906 ; Hard_Fault_Handler + 14
    $d
        0x00001908:    48206e49    In H    DCD    1210084937
        0x0000190c:    20647261    ard     DCD    543453793
        0x00001910:    6c756146    Faul    DCD    1819631942
        0x00001914:    61482074    t Ha    DCD    1632116852
        0x00001918:    656c646e    ndle    DCD    1701602414
        0x0000191c:    00000a72    r...    DCD    2674
    $t
    i.Hex2BcdConversion
    Hex2BcdConversion
        0x00001920:    7801        .x      LDRB     r1,[r0,#0]
        0x00001922:    f001020f    ....    AND      r2,r1,#0xf
        0x00001926:    0909        ..      LSRS     r1,r1,#4
        0x00001928:    eb010181    ....    ADD      r1,r1,r1,LSL #2
        0x0000192c:    eb020141    ..A.    ADD      r1,r2,r1,LSL #1
        0x00001930:    7001        .p      STRB     r1,[r0,#0]
        0x00001932:    4770        pG      BX       lr
    i.I2C0_IRQHandler
    I2C0_IRQHandler
        0x00001934:    4907        .I      LDR      r1,[pc,#28] ; [0x1954] = 0x40080000
        0x00001936:    68c8        .h      LDR      r0,[r1,#0xc]
        0x00001938:    694a        Ji      LDR      r2,[r1,#0x14]
        0x0000193a:    43d2        .C      MVNS     r2,r2
        0x0000193c:    07d2        ..      LSLS     r2,r2,#31
        0x0000193e:    d005        ..      BEQ      0x194c ; I2C0_IRQHandler + 24
        0x00001940:    4905        .I      LDR      r1,[pc,#20] ; [0x1958] = 0x20000ee4
        0x00001942:    688a        .h      LDR      r2,[r1,#8]
        0x00001944:    2a00        .*      CMP      r2,#0
        0x00001946:    d004        ..      BEQ      0x1952 ; I2C0_IRQHandler + 30
        0x00001948:    6889        .h      LDR      r1,[r1,#8]
        0x0000194a:    4708        .G      BX       r1
        0x0000194c:    4608        .F      MOV      r0,r1
        0x0000194e:    f000b821    ..!.    B.W      I2C_ClearTimeoutFlag ; 0x1994
        0x00001952:    4770        pG      BX       lr
    $d
        0x00001954:    40080000    ...@    DCD    1074266112
        0x00001958:    20000ee4    ...     DCD    536874724
    $t
    i.I2C0_Write_RTC
    I2C0_Write_RTC
        0x0000195c:    4b0a        .K      LDR      r3,[pc,#40] ; [0x1988] = 0x20000ee4
        0x0000195e:    7158        Xq      STRB     r0,[r3,#5]
        0x00001960:    70d9        .p      STRB     r1,[r3,#3]
        0x00001962:    2100        .!      MOVS     r1,#0
        0x00001964:    7019        .p      STRB     r1,[r3,#0]
        0x00001966:    711a        .q      STRB     r2,[r3,#4]
        0x00001968:    4808        .H      LDR      r0,[pc,#32] ; [0x198c] = 0x1a5d
        0x0000196a:    6098        .`      STR      r0,[r3,#8]
        0x0000196c:    4808        .H      LDR      r0,[pc,#32] ; [0x1990] = 0x40080000
        0x0000196e:    6802        .h      LDR      r2,[r0,#0]
        0x00001970:    f022023c    ".<.    BIC      r2,r2,#0x3c
        0x00001974:    f0420220    B. .    ORR      r2,r2,#0x20
        0x00001978:    6002        .`      STR      r2,[r0,#0]
        0x0000197a:    7818        .x      LDRB     r0,[r3,#0]
        0x0000197c:    2800        .(      CMP      r0,#0
        0x0000197e:    d0fc        ..      BEQ      0x197a ; I2C0_Write_RTC + 30
        0x00001980:    7019        .p      STRB     r1,[r3,#0]
        0x00001982:    7059        Yp      STRB     r1,[r3,#1]
        0x00001984:    4770        pG      BX       lr
    $d
        0x00001986:    0000        ..      DCW    0
        0x00001988:    20000ee4    ...     DCD    536874724
        0x0000198c:    00001a5d    ]...    DCD    6749
        0x00001990:    40080000    ...@    DCD    1074266112
    $t
    i.I2C_ClearTimeoutFlag
    I2C_ClearTimeoutFlag
        0x00001994:    6941        Ai      LDR      r1,[r0,#0x14]
        0x00001996:    f0410101    A...    ORR      r1,r1,#1
        0x0000199a:    6141        Aa      STR      r1,[r0,#0x14]
        0x0000199c:    4770        pG      BX       lr
        0x0000199e:    0000        ..      MOVS     r0,r0
    i.I2C_MasterRx
    I2C_MasterRx
        0x000019a0:    b530        0.      PUSH     {r4,r5,lr}
        0x000019a2:    4b2b        +K      LDR      r3,[pc,#172] ; [0x1a50] = 0x20000ee4
        0x000019a4:    4a2b        +J      LDR      r2,[pc,#172] ; [0x1a54] = 0x40080000
        0x000019a6:    2808        .(      CMP      r0,#8
        0x000019a8:    7959        Yy      LDRB     r1,[r3,#5]
        0x000019aa:    d022        ".      BEQ      0x19f2 ; I2C_MasterRx + 82
        0x000019ac:    2818        .(      CMP      r0,#0x18
        0x000019ae:    d022        ".      BEQ      0x19f6 ; I2C_MasterRx + 86
        0x000019b0:    2820         (      CMP      r0,#0x20
        0x000019b2:    d025        %.      BEQ      0x1a00 ; I2C_MasterRx + 96
        0x000019b4:    2828        ((      CMP      r0,#0x28
        0x000019b6:    d029        ).      BEQ      0x1a0c ; I2C_MasterRx + 108
        0x000019b8:    2501        .%      MOVS     r5,#1
        0x000019ba:    2810        .(      CMP      r0,#0x10
        0x000019bc:    d02c        ,.      BEQ      0x1a18 ; I2C_MasterRx + 120
        0x000019be:    2840        @(      CMP      r0,#0x40
        0x000019c0:    d040        @.      BEQ      0x1a44 ; I2C_MasterRx + 164
        0x000019c2:    4619        .F      MOV      r1,r3
        0x000019c4:    4c24        $L      LDR      r4,[pc,#144] ; [0x1a58] = 0x20004774
        0x000019c6:    79c9        .y      LDRB     r1,[r1,#7]
        0x000019c8:    2858        X(      CMP      r0,#0x58
        0x000019ca:    d028        (.      BEQ      0x1a1e ; I2C_MasterRx + 126
        0x000019cc:    2850        P(      CMP      r0,#0x50
        0x000019ce:    d116        ..      BNE      0x19fe ; I2C_MasterRx + 94
        0x000019d0:    6890        .h      LDR      r0,[r2,#8]
        0x000019d2:    5460        `T      STRB     r0,[r4,r1]
        0x000019d4:    1c49        I.      ADDS     r1,r1,#1
        0x000019d6:    b2c8        ..      UXTB     r0,r1
        0x000019d8:    71d8        .q      STRB     r0,[r3,#7]
        0x000019da:    2801        .(      CMP      r0,#1
        0x000019dc:    d032        2.      BEQ      0x1a44 ; I2C_MasterRx + 164
        0x000019de:    7859        Yx      LDRB     r1,[r3,#1]
        0x000019e0:    1e40        @.      SUBS     r0,r0,#1
        0x000019e2:    4281        .B      CMP      r1,r0
        0x000019e4:    da2b        +.      BGE      0x1a3e ; I2C_MasterRx + 158
        0x000019e6:    6810        .h      LDR      r0,[r2,#0]
        0x000019e8:    f020003c     .<.    BIC      r0,r0,#0x3c
        0x000019ec:    f040000c    @...    ORR      r0,r0,#0xc
        0x000019f0:    e004        ..      B        0x19fc ; I2C_MasterRx + 92
        0x000019f2:    0048        H.      LSLS     r0,r1,#1
        0x000019f4:    e000        ..      B        0x19f8 ; I2C_MasterRx + 88
        0x000019f6:    7898        .x      LDRB     r0,[r3,#2]
        0x000019f8:    6090        .`      STR      r0,[r2,#8]
        0x000019fa:    e023        #.      B        0x1a44 ; I2C_MasterRx + 164
        0x000019fc:    6010        .`      STR      r0,[r2,#0]
        0x000019fe:    bd30        0.      POP      {r4,r5,pc}
        0x00001a00:    6810        .h      LDR      r0,[r2,#0]
        0x00001a02:    f020003c     .<.    BIC      r0,r0,#0x3c
        0x00001a06:    f0400038    @.8.    ORR      r0,r0,#0x38
        0x00001a0a:    e7f7        ..      B        0x19fc ; I2C_MasterRx + 92
        0x00001a0c:    6810        .h      LDR      r0,[r2,#0]
        0x00001a0e:    f020003c     .<.    BIC      r0,r0,#0x3c
        0x00001a12:    f0400028    @.(.    ORR      r0,r0,#0x28
        0x00001a16:    e7f1        ..      B        0x19fc ; I2C_MasterRx + 92
        0x00001a18:    eb050041    ..A.    ADD      r0,r5,r1,LSL #1
        0x00001a1c:    e7ec        ..      B        0x19f8 ; I2C_MasterRx + 88
        0x00001a1e:    6890        .h      LDR      r0,[r2,#8]
        0x00001a20:    7198        .q      STRB     r0,[r3,#6]
        0x00001a22:    2901        .)      CMP      r1,#1
        0x00001a24:    d003        ..      BEQ      0x1a2e ; I2C_MasterRx + 142
        0x00001a26:    6890        .h      LDR      r0,[r2,#8]
        0x00001a28:    4421        !D      ADD      r1,r1,r4
        0x00001a2a:    f8010c01    ....    STRB     r0,[r1,#-1]
        0x00001a2e:    6810        .h      LDR      r0,[r2,#0]
        0x00001a30:    f020003c     .<.    BIC      r0,r0,#0x3c
        0x00001a34:    f0400018    @...    ORR      r0,r0,#0x18
        0x00001a38:    6010        .`      STR      r0,[r2,#0]
        0x00001a3a:    701d        .p      STRB     r5,[r3,#0]
        0x00001a3c:    bd30        0.      POP      {r4,r5,pc}
        0x00001a3e:    7859        Yx      LDRB     r1,[r3,#1]
        0x00001a40:    4281        .B      CMP      r1,r0
        0x00001a42:    d1fb        ..      BNE      0x1a3c ; I2C_MasterRx + 156
        0x00001a44:    6810        .h      LDR      r0,[r2,#0]
        0x00001a46:    f020003c     .<.    BIC      r0,r0,#0x3c
        0x00001a4a:    f0400008    @...    ORR      r0,r0,#8
        0x00001a4e:    e7d5        ..      B        0x19fc ; I2C_MasterRx + 92
    $d
        0x00001a50:    20000ee4    ...     DCD    536874724
        0x00001a54:    40080000    ...@    DCD    1074266112
        0x00001a58:    20004774    tG.     DCD    536889204
    $t
    i.I2C_MasterTx
    I2C_MasterTx
        0x00001a5c:    4916        .I      LDR      r1,[pc,#88] ; [0x1ab8] = 0x40080000
        0x00001a5e:    4a17        .J      LDR      r2,[pc,#92] ; [0x1abc] = 0x20000ee4
        0x00001a60:    2808        .(      CMP      r0,#8
        0x00001a62:    d010        ..      BEQ      0x1a86 ; I2C_MasterTx + 42
        0x00001a64:    2818        .(      CMP      r0,#0x18
        0x00001a66:    d011        ..      BEQ      0x1a8c ; I2C_MasterTx + 48
        0x00001a68:    2820         (      CMP      r0,#0x20
        0x00001a6a:    d018        ..      BEQ      0x1a9e ; I2C_MasterTx + 66
        0x00001a6c:    2828        ((      CMP      r0,#0x28
        0x00001a6e:    d109        ..      BNE      0x1a84 ; I2C_MasterTx + 40
        0x00001a70:    7850        Px      LDRB     r0,[r2,#1]
        0x00001a72:    b1d0        ..      CBZ      r0,0x1aaa ; I2C_MasterTx + 78
        0x00001a74:    6808        .h      LDR      r0,[r1,#0]
        0x00001a76:    f020003c     .<.    BIC      r0,r0,#0x3c
        0x00001a7a:    f0400018    @...    ORR      r0,r0,#0x18
        0x00001a7e:    6008        .`      STR      r0,[r1,#0]
        0x00001a80:    2001        .       MOVS     r0,#1
        0x00001a82:    7010        .p      STRB     r0,[r2,#0]
        0x00001a84:    4770        pG      BX       lr
        0x00001a86:    7950        Py      LDRB     r0,[r2,#5]
        0x00001a88:    0040        @.      LSLS     r0,r0,#1
        0x00001a8a:    e000        ..      B        0x1a8e ; I2C_MasterTx + 50
        0x00001a8c:    78d0        .x      LDRB     r0,[r2,#3]
        0x00001a8e:    6088        .`      STR      r0,[r1,#8]
        0x00001a90:    6808        .h      LDR      r0,[r1,#0]
        0x00001a92:    f020003c     .<.    BIC      r0,r0,#0x3c
        0x00001a96:    f0400008    @...    ORR      r0,r0,#8
        0x00001a9a:    6008        .`      STR      r0,[r1,#0]
        0x00001a9c:    4770        pG      BX       lr
        0x00001a9e:    6808        .h      LDR      r0,[r1,#0]
        0x00001aa0:    f020003c     .<.    BIC      r0,r0,#0x3c
        0x00001aa4:    f0400038    @.8.    ORR      r0,r0,#0x38
        0x00001aa8:    e7f7        ..      B        0x1a9a ; I2C_MasterTx + 62
        0x00001aaa:    7910        .y      LDRB     r0,[r2,#4]
        0x00001aac:    6088        .`      STR      r0,[r1,#8]
        0x00001aae:    7850        Px      LDRB     r0,[r2,#1]
        0x00001ab0:    1c40        @.      ADDS     r0,r0,#1
        0x00001ab2:    7050        Pp      STRB     r0,[r2,#1]
        0x00001ab4:    e7ec        ..      B        0x1a90 ; I2C_MasterTx + 52
    $d
        0x00001ab6:    0000        ..      DCW    0
        0x00001ab8:    40080000    ...@    DCD    1074266112
        0x00001abc:    20000ee4    ...     DCD    536874724
    $t
    i.I2cReadByte
    I2cReadByte
        0x00001ac0:    4a09        .J      LDR      r2,[pc,#36] ; [0x1ae8] = 0x20000ee4
        0x00001ac2:    7150        Pq      STRB     r0,[r2,#5]
        0x00001ac4:    7091        .p      STRB     r1,[r2,#2]
        0x00001ac6:    4809        .H      LDR      r0,[pc,#36] ; [0x1aec] = 0x19a1
        0x00001ac8:    6090        .`      STR      r0,[r2,#8]
        0x00001aca:    4809        .H      LDR      r0,[pc,#36] ; [0x1af0] = 0x40080000
        0x00001acc:    6801        .h      LDR      r1,[r0,#0]
        0x00001ace:    f021013c    !.<.    BIC      r1,r1,#0x3c
        0x00001ad2:    f0410120    A. .    ORR      r1,r1,#0x20
        0x00001ad6:    6001        .`      STR      r1,[r0,#0]
        0x00001ad8:    7810        .x      LDRB     r0,[r2,#0]
        0x00001ada:    2800        .(      CMP      r0,#0
        0x00001adc:    d0fc        ..      BEQ      0x1ad8 ; I2cReadByte + 24
        0x00001ade:    2000        .       MOVS     r0,#0
        0x00001ae0:    7010        .p      STRB     r0,[r2,#0]
        0x00001ae2:    7990        .y      LDRB     r0,[r2,#6]
        0x00001ae4:    4770        pG      BX       lr
    $d
        0x00001ae6:    0000        ..      DCW    0
        0x00001ae8:    20000ee4    ...     DCD    536874724
        0x00001aec:    000019a1    ....    DCD    6561
        0x00001af0:    40080000    ...@    DCD    1074266112
    $t
    i.LCD_pinConfig
    LCD_pinConfig
        0x00001af4:    b510        ..      PUSH     {r4,lr}
        0x00001af6:    4c10        .L      LDR      r4,[pc,#64] ; [0x1b38] = 0x40004040
        0x00001af8:    2201        ."      MOVS     r2,#1
        0x00001afa:    0391        ..      LSLS     r1,r2,#14
        0x00001afc:    4620         F      MOV      r0,r4
        0x00001afe:    f7fffee5    ....    BL       GPIO_SetMode ; 0x18cc
        0x00001b02:    2201        ."      MOVS     r2,#1
        0x00001b04:    03d1        ..      LSLS     r1,r2,#15
        0x00001b06:    4620         F      MOV      r0,r4
        0x00001b08:    f7fffee0    ....    BL       GPIO_SetMode ; 0x18cc
        0x00001b0c:    2201        ."      MOVS     r2,#1
        0x00001b0e:    02d1        ..      LSLS     r1,r2,#11
        0x00001b10:    4620         F      MOV      r0,r4
        0x00001b12:    f7fffedb    ....    BL       GPIO_SetMode ; 0x18cc
        0x00001b16:    2201        ."      MOVS     r2,#1
        0x00001b18:    0291        ..      LSLS     r1,r2,#10
        0x00001b1a:    4620         F      MOV      r0,r4
        0x00001b1c:    f7fffed6    ....    BL       GPIO_SetMode ; 0x18cc
        0x00001b20:    2201        ."      MOVS     r2,#1
        0x00001b22:    0251        Q.      LSLS     r1,r2,#9
        0x00001b24:    4620         F      MOV      r0,r4
        0x00001b26:    f7fffed1    ....    BL       GPIO_SetMode ; 0x18cc
        0x00001b2a:    4620         F      MOV      r0,r4
        0x00001b2c:    2201        ."      MOVS     r2,#1
        0x00001b2e:    e8bd4010    ...@    POP      {r4,lr}
        0x00001b32:    0211        ..      LSLS     r1,r2,#8
        0x00001b34:    f7ffbeca    ....    B.W      GPIO_SetMode ; 0x18cc
    $d
        0x00001b38:    40004040    @@.@    DCD    1073758272
    $t
    i.NVIC_EnableIRQ
    NVIC_EnableIRQ
        0x00001b3c:    f000021f    ....    AND      r2,r0,#0x1f
        0x00001b40:    2101        .!      MOVS     r1,#1
        0x00001b42:    4091        .@      LSLS     r1,r1,r2
        0x00001b44:    0940        @.      LSRS     r0,r0,#5
        0x00001b46:    0080        ..      LSLS     r0,r0,#2
        0x00001b48:    f10020e0    ...     ADD      r0,r0,#0xe000e000
        0x00001b4c:    f8c01100    ....    STR      r1,[r0,#0x100]
        0x00001b50:    4770        pG      BX       lr
        0x00001b52:    0000        ..      MOVS     r0,r0
    i.Process_Received_Settings
    Process_Received_Settings
        0x00001b54:    e92d4ff0    -..O    PUSH     {r4-r11,lr}
        0x00001b58:    ed2d8b04    -...    VPUSH    {d8-d9}
        0x00001b5c:    b0c3        ..      SUB      sp,sp,#0x10c
        0x00001b5e:    21c8        .!      MOVS     r1,#0xc8
        0x00001b60:    a804        ..      ADD      r0,sp,#0x10
        0x00001b62:    f7fefbb9    ....    BL       __aeabi_memclr ; 0x2d8
        0x00001b66:    4cf5        .L      LDR      r4,[pc,#980] ; [0x1f3c] = 0x20000ef8
        0x00001b68:    7820         x      LDRB     r0,[r4,#0]
        0x00001b6a:    2824        $(      CMP      r0,#0x24
        0x00001b6c:    d00d        ..      BEQ      0x1b8a ; Process_Received_Settings + 54
        0x00001b6e:    21c8        .!      MOVS     r1,#0xc8
        0x00001b70:    a804        ..      ADD      r0,sp,#0x10
        0x00001b72:    f7fefbb1    ....    BL       __aeabi_memclr ; 0x2d8
        0x00001b76:    21c8        .!      MOVS     r1,#0xc8
        0x00001b78:    4620         F      MOV      r0,r4
        0x00001b7a:    f7fefbad    ....    BL       __aeabi_memclr ; 0x2d8
        0x00001b7e:    b043        C.      ADD      sp,sp,#0x10c
        0x00001b80:    2000        .       MOVS     r0,#0
        0x00001b82:    ecbd8b04    ....    VPOP     {d8-d9}
        0x00001b86:    e8bd8ff0    ....    POP      {r4-r11,pc}
        0x00001b8a:    48ec        .H      LDR      r0,[pc,#944] ; [0x1f3c] = 0x20000ef8
        0x00001b8c:    f7fefbcd    ....    BL       strlen ; 0x32a
        0x00001b90:    1e82        ..      SUBS     r2,r0,#2
        0x00001b92:    1c61        a.      ADDS     r1,r4,#1
        0x00001b94:    a804        ..      ADD      r0,sp,#0x10
        0x00001b96:    f7fefb86    ....    BL       __aeabi_memcpy ; 0x2a6
        0x00001b9a:    21c8        .!      MOVS     r1,#0xc8
        0x00001b9c:    48e7        .H      LDR      r0,[pc,#924] ; [0x1f3c] = 0x20000ef8
        0x00001b9e:    f7fefb9b    ....    BL       __aeabi_memclr ; 0x2d8
        0x00001ba2:    ac04        ..      ADD      r4,sp,#0x10
        0x00001ba4:    4620         F      MOV      r0,r4
        0x00001ba6:    f7fefbc0    ....    BL       strlen ; 0x32a
        0x00001baa:    4de5        .M      LDR      r5,[pc,#916] ; [0x1f40] = 0x200000f8
        0x00001bac:    2600        .&      MOVS     r6,#0
        0x00001bae:    b281        ..      UXTH     r1,r0
        0x00001bb0:    81ee        ..      STRH     r6,[r5,#0xe]
        0x00001bb2:    e00a        ..      B        0x1bca ; Process_Received_Settings + 118
        0x00001bb4:    7820         x      LDRB     r0,[r4,#0]
        0x00001bb6:    f1a00241    ..A.    SUB      r2,r0,#0x41
        0x00001bba:    2a19        .*      CMP      r2,#0x19
        0x00001bbc:    d801        ..      BHI      0x1bc2 ; Process_Received_Settings + 110
        0x00001bbe:    3020         0      ADDS     r0,r0,#0x20
        0x00001bc0:    7020         p      STRB     r0,[r4,#0]
        0x00001bc2:    89e8        ..      LDRH     r0,[r5,#0xe]
        0x00001bc4:    1c40        @.      ADDS     r0,r0,#1
        0x00001bc6:    81e8        ..      STRH     r0,[r5,#0xe]
        0x00001bc8:    1c64        d.      ADDS     r4,r4,#1
        0x00001bca:    89e8        ..      LDRH     r0,[r5,#0xe]
        0x00001bcc:    4288        .B      CMP      r0,r1
        0x00001bce:    d3f1        ..      BCC      0x1bb4 ; Process_Received_Settings + 96
        0x00001bd0:    a1dc        ..      ADR      r1,{pc}+0x374 ; 0x1f44
        0x00001bd2:    a804        ..      ADD      r0,sp,#0x10
        0x00001bd4:    f7fefbba    ....    BL       strtok ; 0x34c
        0x00001bd8:    4601        .F      MOV      r1,r0
        0x00001bda:    46b0        .F      MOV      r8,r6
        0x00001bdc:    806e        n.      STRH     r6,[r5,#2]
        0x00001bde:    f8df9368    ..h.    LDR      r9,[pc,#872] ; [0x1f48] = 0x20003a51
        0x00001be2:    46aa        .F      MOV      r10,r5
        0x00001be4:    e010        ..      B        0x1c08 ; Process_Received_Settings + 180
        0x00001be6:    f8ba0002    ....    LDRH     r0,[r10,#2]
        0x00001bea:    4654        TF      MOV      r4,r10
        0x00001bec:    eb000280    ....    ADD      r2,r0,r0,LSL #2
        0x00001bf0:    eb090082    ....    ADD      r0,r9,r2,LSL #2
        0x00001bf4:    f7fefba0    ....    BL       strcpy ; 0x338
        0x00001bf8:    8860        `.      LDRH     r0,[r4,#2]
        0x00001bfa:    a1d2        ..      ADR      r1,{pc}+0x34a ; 0x1f44
        0x00001bfc:    1c40        @.      ADDS     r0,r0,#1
        0x00001bfe:    8060        `.      STRH     r0,[r4,#2]
        0x00001c00:    2000        .       MOVS     r0,#0
        0x00001c02:    f7fefba3    ....    BL       strtok ; 0x34c
        0x00001c06:    4601        .F      MOV      r1,r0
        0x00001c08:    2900        .)      CMP      r1,#0
        0x00001c0a:    d1ec        ..      BNE      0x1be6 ; Process_Received_Settings + 146
        0x00001c0c:    49ce        .I      LDR      r1,[pc,#824] ; [0x1f48] = 0x20003a51
        0x00001c0e:    a0cf        ..      ADR      r0,{pc}+0x33e ; 0x1f4c
        0x00001c10:    f7fffcc2    ....    BL       Debug ; 0x1598
        0x00001c14:    49cc        .I      LDR      r1,[pc,#816] ; [0x1f48] = 0x20003a51
        0x00001c16:    a0cd        ..      ADR      r0,{pc}+0x336 ; 0x1f4c
        0x00001c18:    f003fba0    ....    BL       __0printf ; 0x535c
        0x00001c1c:    48d0        .H      LDR      r0,[pc,#832] ; [0x1f60] = 0x6d04
        0x00001c1e:    f003fb9d    ....    BL       __0printf ; 0x535c
        0x00001c22:    a1d0        ..      ADR      r1,{pc}+0x342 ; 0x1f64
        0x00001c24:    48c8        .H      LDR      r0,[pc,#800] ; [0x1f48] = 0x20003a51
        0x00001c26:    f7fefb62    ..b.    BL       strstr ; 0x2ee
        0x00001c2a:    b110        ..      CBZ      r0,0x1c32 ; Process_Received_Settings + 222
        0x00001c2c:    48cf        .H      LDR      r0,[pc,#828] ; [0x1f6c] = 0x20001187
        0x00001c2e:    f004fcad    ....    BL       motoron ; 0x658c
        0x00001c32:    a1cf        ..      ADR      r1,{pc}+0x33e ; 0x1f70
        0x00001c34:    48c4        .H      LDR      r0,[pc,#784] ; [0x1f48] = 0x20003a51
        0x00001c36:    f7fefb5a    ..Z.    BL       strstr ; 0x2ee
        0x00001c3a:    b110        ..      CBZ      r0,0x1c42 ; Process_Received_Settings + 238
        0x00001c3c:    48cb        .H      LDR      r0,[pc,#812] ; [0x1f6c] = 0x20001187
        0x00001c3e:    f004fc07    ....    BL       motorof ; 0x6450
        0x00001c42:    a1cd        ..      ADR      r1,{pc}+0x336 ; 0x1f78
        0x00001c44:    48c0        .H      LDR      r0,[pc,#768] ; [0x1f48] = 0x20003a51
        0x00001c46:    f7fefb52    ..R.    BL       strstr ; 0x2ee
        0x00001c4a:    b110        ..      CBZ      r0,0x1c52 ; Process_Received_Settings + 254
        0x00001c4c:    48c7        .H      LDR      r0,[pc,#796] ; [0x1f6c] = 0x20001187
        0x00001c4e:    f004fc9d    ....    BL       motoron ; 0x658c
        0x00001c52:    a1cb        ..      ADR      r1,{pc}+0x32e ; 0x1f80
        0x00001c54:    48bc        .H      LDR      r0,[pc,#752] ; [0x1f48] = 0x20003a51
        0x00001c56:    f7fefb4a    ..J.    BL       strstr ; 0x2ee
        0x00001c5a:    b110        ..      CBZ      r0,0x1c62 ; Process_Received_Settings + 270
        0x00001c5c:    48c3        .H      LDR      r0,[pc,#780] ; [0x1f6c] = 0x20001187
        0x00001c5e:    f004fbf7    ....    BL       motorof ; 0x6450
        0x00001c62:    a1c9        ..      ADR      r1,{pc}+0x326 ; 0x1f88
        0x00001c64:    48b8        .H      LDR      r0,[pc,#736] ; [0x1f48] = 0x20003a51
        0x00001c66:    f7fefb42    ..B.    BL       strstr ; 0x2ee
        0x00001c6a:    2800        .(      CMP      r0,#0
        0x00001c6c:    f04184e5    A...    BNE.W    0x363a ; Process_Received_Settings + 6886
        0x00001c70:    a1c7        ..      ADR      r1,{pc}+0x320 ; 0x1f90
        0x00001c72:    48b5        .H      LDR      r0,[pc,#724] ; [0x1f48] = 0x20003a51
        0x00001c74:    f7fefb3b    ..;.    BL       strstr ; 0x2ee
        0x00001c78:    4cb1        .L      LDR      r4,[pc,#708] ; [0x1f40] = 0x200000f8
        0x00001c7a:    4ec7        .N      LDR      r6,[pc,#796] ; [0x1f98] = 0x20001140
        0x00001c7c:    3c80        .<      SUBS     r4,r4,#0x80
        0x00001c7e:    2501        .%      MOVS     r5,#1
        0x00001c80:    b118        ..      CBZ      r0,0x1c8a ; Process_Received_Settings + 310
        0x00001c82:    74a5        .t      STRB     r5,[r4,#0x12]
        0x00001c84:    73b5        .s      STRB     r5,[r6,#0xe]
        0x00001c86:    f001bcd8    ....    B.W      0x363a ; Process_Received_Settings + 6886
        0x00001c8a:    a1c4        ..      ADR      r1,{pc}+0x312 ; 0x1f9c
        0x00001c8c:    48ae        .H      LDR      r0,[pc,#696] ; [0x1f48] = 0x20003a51
        0x00001c8e:    f7fefb2e    ....    BL       strstr ; 0x2ee
        0x00001c92:    b148        H.      CBZ      r0,0x1ca8 ; Process_Received_Settings + 340
        0x00001c94:    49b2        .I      LDR      r1,[pc,#712] ; [0x1f60] = 0x6d04
        0x00001c96:    2234        4"      MOVS     r2,#0x34
        0x00001c98:    311c        .1      ADDS     r1,r1,#0x1c
        0x00001c9a:    a836        6.      ADD      r0,sp,#0xd8
        0x00001c9c:    f7fefb03    ....    BL       __aeabi_memcpy ; 0x2a6
        0x00001ca0:    a836        6.      ADD      r0,sp,#0xd8
        0x00001ca2:    f002ff83    ....    BL       Uart_Send_with_crc ; 0x4bac
        0x00001ca6:    e7ee        ..      B        0x1c86 ; Process_Received_Settings + 306
        0x00001ca8:    a1be        ..      ADR      r1,{pc}+0x2fc ; 0x1fa4
        0x00001caa:    48a7        .H      LDR      r0,[pc,#668] ; [0x1f48] = 0x20003a51
        0x00001cac:    f7fefb1f    ....    BL       strstr ; 0x2ee
        0x00001cb0:    b110        ..      CBZ      r0,0x1cb8 ; Process_Received_Settings + 356
        0x00001cb2:    f004fe39    ..9.    BL       prodset ; 0x6928
        0x00001cb6:    e7e6        ..      B        0x1c86 ; Process_Received_Settings + 306
        0x00001cb8:    a1bc        ..      ADR      r1,{pc}+0x2f4 ; 0x1fac
        0x00001cba:    48a3        .H      LDR      r0,[pc,#652] ; [0x1f48] = 0x20003a51
        0x00001cbc:    f7fefb17    ....    BL       strstr ; 0x2ee
        0x00001cc0:    49a1        .I      LDR      r1,[pc,#644] ; [0x1f48] = 0x20003a51
        0x00001cc2:    4fbd        .O      LDR      r7,[pc,#756] ; [0x1fb8] = 0x20000fe8
        0x00001cc4:    f1010228    ..(.    ADD      r2,r1,#0x28
        0x00001cc8:    3114        .1      ADDS     r1,r1,#0x14
        0x00001cca:    9200        ..      STR      r2,[sp,#0]
        0x00001ccc:    9136        6.      STR      r1,[sp,#0xd8]
        0x00001cce:    2800        .(      CMP      r0,#0
        0x00001cd0:    d07c        |.      BEQ      0x1dcc ; Process_Received_Settings + 632
        0x00001cd2:    f001ff21    ..!.    BL       ReadTimerSettings ; 0x3b18
        0x00001cd6:    9836        6.      LDR      r0,[sp,#0xd8]
        0x00001cd8:    f004fd6c    ..l.    BL       myatof ; 0x67b4
        0x00001cdc:    ec510b10    Q...    VMOV     r0,r1,d0
        0x00001ce0:    f7fefe1a    ....    BL       __aeabi_d2f ; 0x918
        0x00001ce4:    ee090a10    ....    VMOV     s18,r0
        0x00001ce8:    9800        ..      LDR      r0,[sp,#0]
        0x00001cea:    f004fd63    ..c.    BL       myatof ; 0x67b4
        0x00001cee:    ec510b10    Q...    VMOV     r0,r1,d0
        0x00001cf2:    f7fefe11    ....    BL       __aeabi_d2f ; 0x918
        0x00001cf6:    ee080a90    ....    VMOV     s17,r0
        0x00001cfa:    4893        .H      LDR      r0,[pc,#588] ; [0x1f48] = 0x20003a51
        0x00001cfc:    303c        <0      ADDS     r0,r0,#0x3c
        0x00001cfe:    f004fd59    ..Y.    BL       myatof ; 0x67b4
        0x00001d02:    ec510b10    Q...    VMOV     r0,r1,d0
        0x00001d06:    f7fefe07    ....    BL       __aeabi_d2f ; 0x918
        0x00001d0a:    ee080a10    ....    VMOV     s16,r0
        0x00001d0e:    ee180a10    ....    VMOV     r0,s16
        0x00001d12:    f7fefdbe    ....    BL       __aeabi_f2d ; 0x892
        0x00001d16:    4680        .F      MOV      r8,r0
        0x00001d18:    4689        .F      MOV      r9,r1
        0x00001d1a:    ee180a90    ....    VMOV     r0,s17
        0x00001d1e:    f7fefdb8    ....    BL       __aeabi_f2d ; 0x892
        0x00001d22:    4604        .F      MOV      r4,r0
        0x00001d24:    460d        .F      MOV      r5,r1
        0x00001d26:    ee190a10    ....    VMOV     r0,s18
        0x00001d2a:    f7fefdb2    ....    BL       __aeabi_f2d ; 0x892
        0x00001d2e:    e88d0330    ..0.    STM      sp,{r4,r5,r8,r9}
        0x00001d32:    ec410b10    A...    VMOV     d0,r0,r1
        0x00001d36:    a0a1        ..      ADR      r0,{pc}+0x286 ; 0x1fbc
        0x00001d38:    ec532b10    S..+    VMOV     r2,r3,d0
        0x00001d3c:    f7fffc2c    ..,.    BL       Debug ; 0x1598
        0x00001d40:    4ca1        .L      LDR      r4,[pc,#644] ; [0x1fc8] = 0x20000fc0
        0x00001d42:    ed940a00    ....    VLDR     s0,[r4,#0]
        0x00001d46:    eec99a00    ....    VDIV.F32 s19,s18,s0
        0x00001d4a:    ee190a90    ....    VMOV     r0,s19
        0x00001d4e:    f7fefda0    ....    BL       __aeabi_f2d ; 0x892
        0x00001d52:    ec410b10    A...    VMOV     d0,r0,r1
        0x00001d56:    ed971b38    ..8.    VLDR     d1,[r7,#0xe0]
        0x00001d5a:    ec532b10    S..+    VMOV     r2,r3,d0
        0x00001d5e:    ed8d1b00    ....    VSTR     d1,[sp,#0]
        0x00001d62:    a09a        ..      ADR      r0,{pc}+0x26a ; 0x1fcc
        0x00001d64:    37e0        .7      ADDS     r7,r7,#0xe0
        0x00001d66:    f7fffc17    ....    BL       Debug ; 0x1598
        0x00001d6a:    ee190a90    ....    VMOV     r0,s19
        0x00001d6e:    f7fefd90    ....    BL       __aeabi_f2d ; 0x892
        0x00001d72:    ed971b00    ....    VLDR     d1,[r7,#0]
        0x00001d76:    ec532b11    S..+    VMOV     r2,r3,d1
        0x00001d7a:    f7fefc72    ..r.    BL       __aeabi_dmul ; 0x662
        0x00001d7e:    e9c70100    ....    STRD     r0,r1,[r7,#0]
        0x00001d82:    edd40a01    ....    VLDR     s1,[r4,#4]
        0x00001d86:    ee880aa0    ....    VDIV.F32 s0,s17,s1
        0x00001d8a:    ee100a10    ....    VMOV     r0,s0
        0x00001d8e:    f7fefd80    ....    BL       __aeabi_f2d ; 0x892
        0x00001d92:    ed971b02    ....    VLDR     d1,[r7,#8]
        0x00001d96:    ec532b11    S..+    VMOV     r2,r3,d1
        0x00001d9a:    f7fefc62    ..b.    BL       __aeabi_dmul ; 0x662
        0x00001d9e:    e9c70102    ....    STRD     r0,r1,[r7,#8]
        0x00001da2:    edd40a02    ....    VLDR     s1,[r4,#8]
        0x00001da6:    ee880a20    .. .    VDIV.F32 s0,s16,s1
        0x00001daa:    ee100a10    ....    VMOV     r0,s0
        0x00001dae:    f7fefd70    ..p.    BL       __aeabi_f2d ; 0x892
        0x00001db2:    ed971b04    ....    VLDR     d1,[r7,#0x10]
        0x00001db6:    ec532b11    S..+    VMOV     r2,r3,d1
        0x00001dba:    f7fefc52    ..R.    BL       __aeabi_dmul ; 0x662
        0x00001dbe:    e9c70104    ....    STRD     r0,r1,[r7,#0x10]
        0x00001dc2:    f003f841    ..A.    BL       WriteTimerSettings ; 0x4e48
        0x00001dc6:    f001bbb5    ....    B.W      0x3534 ; Process_Received_Settings + 6624
        0x00001dca:    e7ff        ..      B        0x1dcc ; Process_Received_Settings + 632
        0x00001dcc:    a181        ..      ADR      r1,{pc}+0x208 ; 0x1fd4
        0x00001dce:    485e        ^H      LDR      r0,[pc,#376] ; [0x1f48] = 0x20003a51
        0x00001dd0:    f7fefa8d    ....    BL       strstr ; 0x2ee
        0x00001dd4:    b120         .      CBZ      r0,0x1de0 ; Process_Received_Settings + 652
        0x00001dd6:    9836        6.      LDR      r0,[sp,#0xd8]
        0x00001dd8:    f004f86c    ..l.    BL       isDtValidLength ; 0x5eb4
        0x00001ddc:    2801        .(      CMP      r0,#1
        0x00001dde:    d071        q.      BEQ      0x1ec4 ; Process_Received_Settings + 880
        0x00001de0:    a17d        }.      ADR      r1,{pc}+0x1f8 ; 0x1fd8
        0x00001de2:    4859        YH      LDR      r0,[pc,#356] ; [0x1f48] = 0x20003a51
        0x00001de4:    f7fefa83    ....    BL       strstr ; 0x2ee
        0x00001de8:    ed9f8b7d    ..}.    VLDR     d8,[pc,#500] ; [0x1fe0] = 0
        0x00001dec:    b120         .      CBZ      r0,0x1df8 ; Process_Received_Settings + 676
        0x00001dee:    4856        VH      LDR      r0,[pc,#344] ; [0x1f48] = 0x20003a51
        0x00001df0:    f7fefa9b    ....    BL       strlen ; 0x32a
        0x00001df4:    280c        .(      CMP      r0,#0xc
        0x00001df6:    d07c        |.      BEQ      0x1ef2 ; Process_Received_Settings + 926
        0x00001df8:    a17b        {.      ADR      r1,{pc}+0x1f0 ; 0x1fe8
        0x00001dfa:    4853        SH      LDR      r0,[pc,#332] ; [0x1f48] = 0x20003a51
        0x00001dfc:    f7fefa77    ..w.    BL       strstr ; 0x2ee
        0x00001e00:    b120         .      CBZ      r0,0x1e0c ; Process_Received_Settings + 696
        0x00001e02:    4851        QH      LDR      r0,[pc,#324] ; [0x1f48] = 0x20003a51
        0x00001e04:    f7fefa91    ....    BL       strlen ; 0x32a
        0x00001e08:    280c        .(      CMP      r0,#0xc
        0x00001e0a:    d073        s.      BEQ      0x1ef4 ; Process_Received_Settings + 928
        0x00001e0c:    a178        x.      ADR      r1,{pc}+0x1e4 ; 0x1ff0
        0x00001e0e:    484e        NH      LDR      r0,[pc,#312] ; [0x1f48] = 0x20003a51
        0x00001e10:    f7fefa6d    ..m.    BL       strstr ; 0x2ee
        0x00001e14:    b120         .      CBZ      r0,0x1e20 ; Process_Received_Settings + 716
        0x00001e16:    484c        LH      LDR      r0,[pc,#304] ; [0x1f48] = 0x20003a51
        0x00001e18:    f7fefa87    ....    BL       strlen ; 0x32a
        0x00001e1c:    280c        .(      CMP      r0,#0xc
        0x00001e1e:    d06a        j.      BEQ      0x1ef6 ; Process_Received_Settings + 930
        0x00001e20:    a175        u.      ADR      r1,{pc}+0x1d8 ; 0x1ff8
        0x00001e22:    4849        IH      LDR      r0,[pc,#292] ; [0x1f48] = 0x20003a51
        0x00001e24:    f7fefa63    ..c.    BL       strstr ; 0x2ee
        0x00001e28:    b120         .      CBZ      r0,0x1e34 ; Process_Received_Settings + 736
        0x00001e2a:    4847        GH      LDR      r0,[pc,#284] ; [0x1f48] = 0x20003a51
        0x00001e2c:    f7fefa7d    ..}.    BL       strlen ; 0x32a
        0x00001e30:    280c        .(      CMP      r0,#0xc
        0x00001e32:    d07d        }.      BEQ      0x1f30 ; Process_Received_Settings + 988
        0x00001e34:    a172        r.      ADR      r1,{pc}+0x1cc ; 0x2000
        0x00001e36:    4844        DH      LDR      r0,[pc,#272] ; [0x1f48] = 0x20003a51
        0x00001e38:    f7fefa59    ..Y.    BL       strstr ; 0x2ee
        0x00001e3c:    b120         .      CBZ      r0,0x1e48 ; Process_Received_Settings + 756
        0x00001e3e:    4842        BH      LDR      r0,[pc,#264] ; [0x1f48] = 0x20003a51
        0x00001e40:    f7fefa73    ..s.    BL       strlen ; 0x32a
        0x00001e44:    280d        .(      CMP      r0,#0xd
        0x00001e46:    d074        t.      BEQ      0x1f32 ; Process_Received_Settings + 990
        0x00001e48:    a16f        o.      ADR      r1,{pc}+0x1c0 ; 0x2008
        0x00001e4a:    483f        ?H      LDR      r0,[pc,#252] ; [0x1f48] = 0x20003a51
        0x00001e4c:    f7fefa4f    ..O.    BL       strstr ; 0x2ee
        0x00001e50:    b120         .      CBZ      r0,0x1e5c ; Process_Received_Settings + 776
        0x00001e52:    483d        =H      LDR      r0,[pc,#244] ; [0x1f48] = 0x20003a51
        0x00001e54:    f7fefa69    ..i.    BL       strlen ; 0x32a
        0x00001e58:    280d        .(      CMP      r0,#0xd
        0x00001e5a:    d06b        k.      BEQ      0x1f34 ; Process_Received_Settings + 992
        0x00001e5c:    a16c        l.      ADR      r1,{pc}+0x1b4 ; 0x2010
        0x00001e5e:    483a        :H      LDR      r0,[pc,#232] ; [0x1f48] = 0x20003a51
        0x00001e60:    f7fefa45    ..E.    BL       strstr ; 0x2ee
        0x00001e64:    2800        .(      CMP      r0,#0
        0x00001e66:    d066        f.      BEQ      0x1f36 ; Process_Received_Settings + 994
        0x00001e68:    f001fe56    ..V.    BL       ReadTimerSettings ; 0x3b18
        0x00001e6c:    f8991008    ....    LDRB     r1,[r9,#8]
        0x00001e70:    f8993009    ...0    LDRB     r3,[r9,#9]
        0x00001e74:    3930        09      SUBS     r1,r1,#0x30
        0x00001e76:    eb010181    ....    ADD      r1,r1,r1,LSL #2
        0x00001e7a:    3b30        0;      SUBS     r3,r3,#0x30
        0x00001e7c:    eb030141    ..A.    ADD      r1,r3,r1,LSL #1
        0x00001e80:    71b9        .q      STRB     r1,[r7,#6]
        0x00001e82:    f899100a    ....    LDRB     r1,[r9,#0xa]
        0x00001e86:    f899300b    ...0    LDRB     r3,[r9,#0xb]
        0x00001e8a:    3930        09      SUBS     r1,r1,#0x30
        0x00001e8c:    eb010181    ....    ADD      r1,r1,r1,LSL #2
        0x00001e90:    3b30        0;      SUBS     r3,r3,#0x30
        0x00001e92:    eb030141    ..A.    ADD      r1,r3,r1,LSL #1
        0x00001e96:    71f9        .q      STRB     r1,[r7,#7]
        0x00001e98:    f899100c    ....    LDRB     r1,[r9,#0xc]
        0x00001e9c:    3930        09      SUBS     r1,r1,#0x30
        0x00001e9e:    f8aa1006    ....    STRH     r1,[r10,#6]
        0x00001ea2:    f899000d    ....    LDRB     r0,[r9,#0xd]
        0x00001ea6:    eb010181    ....    ADD      r1,r1,r1,LSL #2
        0x00001eaa:    3830        08      SUBS     r0,r0,#0x30
        0x00001eac:    f8aa000c    ....    STRH     r0,[r10,#0xc]
        0x00001eb0:    eb000041    ..A.    ADD      r0,r0,r1,LSL #1
        0x00001eb4:    7238        8r      STRB     r0,[r7,#8]
        0x00001eb6:    f002fe93    ....    BL       WriteSettingsFile ; 0x4be0
        0x00001eba:    7c70        p|      LDRB     r0,[r6,#0x11]
        0x00001ebc:    2801        .(      CMP      r0,#1
        0x00001ebe:    d03b        ;.      BEQ      0x1f38 ; Process_Received_Settings + 996
        0x00001ec0:    e781        ..      B        0x1dc6 ; Process_Received_Settings + 626
        0x00001ec2:    e7ff        ..      B        0x1ec4 ; Process_Received_Settings + 880
        0x00001ec4:    a055        U.      ADR      r0,{pc}+0x158 ; 0x201c
        0x00001ec6:    9936        6.      LDR      r1,[sp,#0xd8]
        0x00001ec8:    f7fffb66    ..f.    BL       Debug ; 0x1598
        0x00001ecc:    ab39        9.      ADD      r3,sp,#0xe4
        0x00001ece:    aa38        8.      ADD      r2,sp,#0xe0
        0x00001ed0:    a937        7.      ADD      r1,sp,#0xdc
        0x00001ed2:    a83c        <.      ADD      r0,sp,#0xf0
        0x00001ed4:    e88d000f    ....    STM      sp,{r0-r3}
        0x00001ed8:    ab3b        ;.      ADD      r3,sp,#0xec
        0x00001eda:    aa3a        :.      ADD      r2,sp,#0xe8
        0x00001edc:    a153        S.      ADR      r1,{pc}+0x150 ; 0x202c
        0x00001ede:    9836        6.      LDR      r0,[sp,#0xd8]
        0x00001ee0:    f7fefa56    ..V.    BL       __0sscanf ; 0x390
        0x00001ee4:    9837        7.      LDR      r0,[sp,#0xdc]
        0x00001ee6:    b247        G.      SXTB     r7,r0
        0x00001ee8:    9838        8.      LDR      r0,[sp,#0xe0]
        0x00001eea:    f3670907    g...    BFI      r9,r7,#0,#8
        0x00001eee:    b242        B.      SXTB     r2,r0
        0x00001ef0:    e002        ..      B        0x1ef8 ; Process_Received_Settings + 932
        0x00001ef2:    e0da        ..      B        0x20aa ; Process_Received_Settings + 1366
        0x00001ef4:    e119        ..      B        0x212a ; Process_Received_Settings + 1494
        0x00001ef6:    e15a        Z.      B        0x21ae ; Process_Received_Settings + 1626
        0x00001ef8:    9839        9.      LDR      r0,[sp,#0xe4]
        0x00001efa:    f362290f    b..)    BFI      r9,r2,#8,#8
        0x00001efe:    b243        C.      SXTB     r3,r0
        0x00001f00:    983c        <.      LDR      r0,[sp,#0xf0]
        0x00001f02:    f3634917    c..I    BFI      r9,r3,#16,#8
        0x00001f06:    b241        A.      SXTB     r1,r0
        0x00001f08:    983b        ;.      LDR      r0,[sp,#0xec]
        0x00001f0a:    f361691f    a..i    BFI      r9,r1,#24,#8
        0x00001f0e:    b240        @.      SXTB     r0,r0
        0x00001f10:    f8cd9004    ....    STR      r9,[sp,#4]
        0x00001f14:    9203        ..      STR      r2,[sp,#0xc]
        0x00001f16:    f3600807    `...    BFI      r8,r0,#0,#8
        0x00001f1a:    4681        .F      MOV      r9,r0
        0x00001f1c:    983a        :.      LDR      r0,[sp,#0xe8]
        0x00001f1e:    468b        .F      MOV      r11,r1
        0x00001f20:    fa4ffc80    O...    SXTB     r12,r0
        0x00001f24:    9302        ..      STR      r3,[sp,#8]
        0x00001f26:    f36c280f    l..(    BFI      r8,r12,#8,#8
        0x00001f2a:    46e2        .F      MOV      r10,r12
        0x00001f2c:    4639        9F      MOV      r1,r7
        0x00001f2e:    e08d        ..      B        0x204c ; Process_Received_Settings + 1272
        0x00001f30:    e17f        ..      B        0x2232 ; Process_Received_Settings + 1758
        0x00001f32:    e1c0        ..      B        0x22b6 ; Process_Received_Settings + 1890
        0x00001f34:    e1ed        ..      B        0x2312 ; Process_Received_Settings + 1982
        0x00001f36:    e21c        ..      B        0x2372 ; Process_Received_Settings + 2078
        0x00001f38:    e219        ..      B        0x236e ; Process_Received_Settings + 2074
    $d
        0x00001f3a:    0000        ..      DCW    0
        0x00001f3c:    20000ef8    ...     DCD    536874744
        0x00001f40:    200000f8    ...     DCD    536871160
        0x00001f44:    0000002c    ,...    DCD    44
        0x00001f48:    20003a51    Q:.     DCD    536885841
        0x00001f4c:    5241550a    .UAR    DCD    1380013322
        0x00001f50:    41442054    T DA    DCD    1094983764
        0x00001f54:    7b3a4154    TA:{    DCD    2067415380
        0x00001f58:    0a7d7325    %s}.    DCD    175993637
        0x00001f5c:    00000000    ....    DCD    0
        0x00001f60:    00006d04    .m..    DCD    27908
        0x00001f64:    6f746f6d    moto    DCD    1869901677
        0x00001f68:    006e6f72    ron.    DCD    7237490
        0x00001f6c:    20001187    ...     DCD    536875399
        0x00001f70:    6f746f6d    moto    DCD    1869901677
        0x00001f74:    00666f72    rof.    DCD    6713202
        0x00001f78:    6f72746d    mtro    DCD    1869771885
        0x00001f7c:    0000006e    n...    DCD    110
        0x00001f80:    6f72746d    mtro    DCD    1869771885
        0x00001f84:    00000066    f...    DCD    102
        0x00001f88:    6478722b    +rxd    DCD    1685615147
        0x00001f8c:    00666d74    tmf.    DCD    6712692
        0x00001f90:    75626564    debu    DCD    1969382756
        0x00001f94:    006e6f67    gon.    DCD    7237479
        0x00001f98:    20001140    @..     DCD    536875328
        0x00001f9c:    74736574    test    DCD    1953719668
        0x00001fa0:    00000031    1...    DCD    49
        0x00001fa4:    646f7270    prod    DCD    1685025392
        0x00001fa8:    00746573    set.    DCD    7628147
        0x00001fac:    746c6f76    volt    DCD    1953263478
        0x00001fb0:    61636761    agca    DCD    1633904481
        0x00001fb4:    0000006c    l...    DCD    108
        0x00001fb8:    20000fe8    ...     DCD    536874984
        0x00001fbc:    252c6625    %f,%    DCD    623666725
        0x00001fc0:    66252c66    f,%f    DCD    1713712230
        0x00001fc4:    00000000    ....    DCD    0
        0x00001fc8:    20000fc0    ...     DCD    536874944
        0x00001fcc:    2c66253a    :%f,    DCD    744891706
        0x00001fd0:    002c6625    %f,.    DCD    2909733
        0x00001fd4:    00007464    dt..    DCD    29796
        0x00001fd8:    6d617264    dram    DCD    1835102820
        0x00001fdc:    00337370    ps3.    DCD    3371888
        0x00001fe0:    00000000    ....    DCD    0
        0x00001fe4:    40240000    ..$@    DCD    1076101120
        0x00001fe8:    6d617264    dram    DCD    1835102820
        0x00001fec:    00327370    ps2.    DCD    3306352
        0x00001ff0:    6d616c6f    olam    DCD    1835101295
        0x00001ff4:    00337370    ps3.    DCD    3371888
        0x00001ff8:    6d616c6f    olam    DCD    1835101295
        0x00001ffc:    00327370    ps2.    DCD    3306352
        0x00002000:    65646e6f    onde    DCD    1701080687
        0x00002004:    0079616c    lay.    DCD    7954796
        0x00002008:    65646473    sdde    DCD    1701078131
        0x0000200c:    0079616c    lay.    DCD    7954796
        0x00002010:    64626673    sfbd    DCD    1684170355
        0x00002014:    79616c65    elay    DCD    2036427877
        0x00002018:    00000000    ....    DCD    0
        0x0000201c:    26440d0a    ..D&    DCD    641993994
        0x00002020:    255b3a54    T:[%    DCD    626735700
        0x00002024:    0d0a5d73    s]..    DCD    218783091
        0x00002028:    00000000    ....    DCD    0
        0x0000202c:    64323025    %02d    DCD    1681010725
        0x00002030:    3230252f    /%02    DCD    842016047
        0x00002034:    30252f64    d/%0    DCD    807743332
        0x00002038:    252f6432    2d/%    DCD    623862834
        0x0000203c:    2f643230    02d/    DCD    795095600
        0x00002040:    64323025    %02d    DCD    1681010725
        0x00002044:    3230252f    /%02    DCD    842016047
        0x00002048:    00000064    d...    DCD    100
    $t
        0x0000204c:    a0ec        ..      ADR      r0,{pc}+0x3b4 ; 0x2400
        0x0000204e:    f8cd8000    ....    STR      r8,[sp,#0]
        0x00002052:    f7fffaa1    ....    BL       Debug ; 0x1598
        0x00002056:    4653        SF      MOV      r3,r10
        0x00002058:    464a        JF      MOV      r2,r9
        0x0000205a:    4659        YF      MOV      r1,r11
        0x0000205c:    a0f1        ..      ADR      r0,{pc}+0x3c8 ; 0x2424
        0x0000205e:    f7fffa9b    ....    BL       Debug ; 0x1598
        0x00002062:    2f00        ./      CMP      r7,#0
        0x00002064:    da05        ..      BGE      0x2072 ; Process_Received_Settings + 1310
        0x00002066:    9803        ..      LDR      r0,[sp,#0xc]
        0x00002068:    2800        .(      CMP      r0,#0
        0x0000206a:    da02        ..      BGE      0x2072 ; Process_Received_Settings + 1310
        0x0000206c:    9802        ..      LDR      r0,[sp,#8]
        0x0000206e:    2800        .(      CMP      r0,#0
        0x00002070:    db08        ..      BLT      0x2084 ; Process_Received_Settings + 1328
        0x00002072:    f1bb0f00    ....    CMP      r11,#0
        0x00002076:    dd05        ..      BLE      0x2084 ; Process_Received_Settings + 1328
        0x00002078:    f1b90f00    ....    CMP      r9,#0
        0x0000207c:    dd02        ..      BLE      0x2084 ; Process_Received_Settings + 1328
        0x0000207e:    f1ba0f00    ....    CMP      r10,#0
        0x00002082:    dc01        ..      BGT      0x2088 ; Process_Received_Settings + 1332
        0x00002084:    a0ed        ..      ADR      r0,{pc}+0x3b8 ; 0x243c
        0x00002086:    e008        ..      B        0x209a ; Process_Received_Settings + 1350
        0x00002088:    e9dd1000    ....    LDRD     r1,r0,[sp,#0]
        0x0000208c:    f002fb38    ..8.    BL       SetDateTime ; 0x4700
        0x00002090:    2800        .(      CMP      r0,#0
        0x00002092:    da01        ..      BGE      0x2098 ; Process_Received_Settings + 1348
        0x00002094:    a0f1        ..      ADR      r0,{pc}+0x3c8 ; 0x245c
        0x00002096:    e000        ..      B        0x209a ; Process_Received_Settings + 1350
        0x00002098:    a0f6        ..      ADR      r0,{pc}+0x3dc ; 0x2474
        0x0000209a:    f7fffa7d    ..}.    BL       Debug ; 0x1598
        0x0000209e:    7c70        p|      LDRB     r0,[r6,#0x11]
        0x000020a0:    2801        .(      CMP      r0,#1
        0x000020a2:    f04182ca    A...    BNE.W    0x363a ; Process_Received_Settings + 6886
        0x000020a6:    2029        )       MOVS     r0,#0x29
        0x000020a8:    e3f0        ..      B        0x288c ; Process_Received_Settings + 3384
        0x000020aa:    f001fd35    ..5.    BL       ReadTimerSettings ; 0x3b18
        0x000020ae:    f8990007    ....    LDRB     r0,[r9,#7]
        0x000020b2:    f44f737a    O.zs    MOV      r3,#0x3e8
        0x000020b6:    3830        08      SUBS     r0,r0,#0x30
        0x000020b8:    b281        ..      UXTH     r1,r0
        0x000020ba:    f8aa1006    ....    STRH     r1,[r10,#6]
        0x000020be:    f8990008    ....    LDRB     r0,[r9,#8]
        0x000020c2:    4359        YC      MULS     r1,r3,r1
        0x000020c4:    3830        08      SUBS     r0,r0,#0x30
        0x000020c6:    b280        ..      UXTH     r0,r0
        0x000020c8:    f8aa0008    ....    STRH     r0,[r10,#8]
        0x000020cc:    f899c009    ....    LDRB     r12,[r9,#9]
        0x000020d0:    eb0003c0    ....    ADD      r3,r0,r0,LSL #3
        0x000020d4:    f1ac0c30    ..0.    SUB      r12,r12,#0x30
        0x000020d8:    fa1ffc8c    ....    UXTH     r12,r12
        0x000020dc:    f8aac00a    ....    STRH     r12,[r10,#0xa]
        0x000020e0:    f899200b    ...     LDRB     r2,[r9,#0xb]
        0x000020e4:    eb031000    ....    ADD      r0,r3,r0,LSL #4
        0x000020e8:    3a30        0:      SUBS     r2,r2,#0x30
        0x000020ea:    eb010080    ....    ADD      r0,r1,r0,LSL #2
        0x000020ee:    b292        ..      UXTH     r2,r2
        0x000020f0:    eb0c018c    ....    ADD      r1,r12,r12,LSL #2
        0x000020f4:    eb000041    ..A.    ADD      r0,r0,r1,LSL #1
        0x000020f8:    f8aa200c    ...     STRH     r2,[r10,#0xc]
        0x000020fc:    4410        .D      ADD      r0,r0,r2
        0x000020fe:    f7fefba2    ....    BL       __aeabi_ui2d ; 0x846
        0x00002102:    ec532b18    S..+    VMOV     r2,r3,d8
        0x00002106:    f7fefb1e    ....    BL       __aeabi_ddiv ; 0x746
        0x0000210a:    ec410b10    A...    VMOV     d0,r0,r1
        0x0000210e:    a0e0        ..      ADR      r0,{pc}+0x382 ; 0x2490
        0x00002110:    ed870b22    ..".    VSTR     d0,[r7,#0x88]
        0x00002114:    ec532b10    S..+    VMOV     r2,r3,d0
        0x00002118:    f7fffa3e    ..>.    BL       Debug ; 0x1598
        0x0000211c:    f002fe94    ....    BL       WriteTimerSettings ; 0x4e48
        0x00002120:    7c70        p|      LDRB     r0,[r6,#0x11]
        0x00002122:    2801        .(      CMP      r0,#1
        0x00002124:    d17e        ~.      BNE      0x2224 ; Process_Received_Settings + 1744
        0x00002126:    203f        ?       MOVS     r0,#0x3f
        0x00002128:    e3fe        ..      B        0x2928 ; Process_Received_Settings + 3540
        0x0000212a:    f001fcf5    ....    BL       ReadTimerSettings ; 0x3b18
        0x0000212e:    f8990007    ....    LDRB     r0,[r9,#7]
        0x00002132:    f44f737a    O.zs    MOV      r3,#0x3e8
        0x00002136:    3830        08      SUBS     r0,r0,#0x30
        0x00002138:    b281        ..      UXTH     r1,r0
        0x0000213a:    f8aa1006    ....    STRH     r1,[r10,#6]
        0x0000213e:    f8990008    ....    LDRB     r0,[r9,#8]
        0x00002142:    4359        YC      MULS     r1,r3,r1
        0x00002144:    3830        08      SUBS     r0,r0,#0x30
        0x00002146:    b280        ..      UXTH     r0,r0
        0x00002148:    f8aa0008    ....    STRH     r0,[r10,#8]
        0x0000214c:    f899c009    ....    LDRB     r12,[r9,#9]
        0x00002150:    eb0003c0    ....    ADD      r3,r0,r0,LSL #3
        0x00002154:    f1ac0c30    ..0.    SUB      r12,r12,#0x30
        0x00002158:    fa1ffc8c    ....    UXTH     r12,r12
        0x0000215c:    f8aac00a    ....    STRH     r12,[r10,#0xa]
        0x00002160:    f899200b    ...     LDRB     r2,[r9,#0xb]
        0x00002164:    eb031000    ....    ADD      r0,r3,r0,LSL #4
        0x00002168:    3a30        0:      SUBS     r2,r2,#0x30
        0x0000216a:    eb010080    ....    ADD      r0,r1,r0,LSL #2
        0x0000216e:    b292        ..      UXTH     r2,r2
        0x00002170:    eb0c018c    ....    ADD      r1,r12,r12,LSL #2
        0x00002174:    eb000041    ..A.    ADD      r0,r0,r1,LSL #1
        0x00002178:    f8aa200c    ...     STRH     r2,[r10,#0xc]
        0x0000217c:    4410        .D      ADD      r0,r0,r2
        0x0000217e:    f7fefb62    ..b.    BL       __aeabi_ui2d ; 0x846
        0x00002182:    ec532b18    S..+    VMOV     r2,r3,d8
        0x00002186:    f7fefade    ....    BL       __aeabi_ddiv ; 0x746
        0x0000218a:    ec410b10    A...    VMOV     d0,r0,r1
        0x0000218e:    a0cd        ..      ADR      r0,{pc}+0x336 ; 0x24c4
        0x00002190:    ed870b20    .. .    VSTR     d0,[r7,#0x80]
        0x00002194:    ec532b10    S..+    VMOV     r2,r3,d0
        0x00002198:    f7fff9fe    ....    BL       Debug ; 0x1598
        0x0000219c:    f002fe54    ..T.    BL       WriteTimerSettings ; 0x4e48
        0x000021a0:    7c70        p|      LDRB     r0,[r6,#0x11]
        0x000021a2:    2801        .(      CMP      r0,#1
        0x000021a4:    d1be        ..      BNE      0x2124 ; Process_Received_Settings + 1488
        0x000021a6:    203e        >       MOVS     r0,#0x3e
        0x000021a8:    e7be        ..      B        0x2128 ; Process_Received_Settings + 1492
        0x000021aa:    7525        %u      STRB     r5,[r4,#0x14]
        0x000021ac:    e60b        ..      B        0x1dc6 ; Process_Received_Settings + 626
        0x000021ae:    f001fcb3    ....    BL       ReadTimerSettings ; 0x3b18
        0x000021b2:    f8990007    ....    LDRB     r0,[r9,#7]
        0x000021b6:    f44f737a    O.zs    MOV      r3,#0x3e8
        0x000021ba:    3830        08      SUBS     r0,r0,#0x30
        0x000021bc:    b281        ..      UXTH     r1,r0
        0x000021be:    f8aa1006    ....    STRH     r1,[r10,#6]
        0x000021c2:    f8990008    ....    LDRB     r0,[r9,#8]
        0x000021c6:    4359        YC      MULS     r1,r3,r1
        0x000021c8:    3830        08      SUBS     r0,r0,#0x30
        0x000021ca:    b280        ..      UXTH     r0,r0
        0x000021cc:    f8aa0008    ....    STRH     r0,[r10,#8]
        0x000021d0:    f899c009    ....    LDRB     r12,[r9,#9]
        0x000021d4:    eb0003c0    ....    ADD      r3,r0,r0,LSL #3
        0x000021d8:    f1ac0c30    ..0.    SUB      r12,r12,#0x30
        0x000021dc:    fa1ffc8c    ....    UXTH     r12,r12
        0x000021e0:    f8aac00a    ....    STRH     r12,[r10,#0xa]
        0x000021e4:    f899200b    ...     LDRB     r2,[r9,#0xb]
        0x000021e8:    eb031000    ....    ADD      r0,r3,r0,LSL #4
        0x000021ec:    3a30        0:      SUBS     r2,r2,#0x30
        0x000021ee:    eb010080    ....    ADD      r0,r1,r0,LSL #2
        0x000021f2:    b292        ..      UXTH     r2,r2
        0x000021f4:    eb0c018c    ....    ADD      r1,r12,r12,LSL #2
        0x000021f8:    eb000041    ..A.    ADD      r0,r0,r1,LSL #1
        0x000021fc:    f8aa200c    ...     STRH     r2,[r10,#0xc]
        0x00002200:    4410        .D      ADD      r0,r0,r2
        0x00002202:    f7fefb20    .. .    BL       __aeabi_ui2d ; 0x846
        0x00002206:    ec532b18    S..+    VMOV     r2,r3,d8
        0x0000220a:    f7fefa9c    ....    BL       __aeabi_ddiv ; 0x746
        0x0000220e:    e9c7012a    ..*.    STRD     r0,r1,[r7,#0xa8]
        0x00002212:    f002fe19    ....    BL       WriteTimerSettings ; 0x4e48
        0x00002216:    7c70        p|      LDRB     r0,[r6,#0x11]
        0x00002218:    2801        .(      CMP      r0,#1
        0x0000221a:    d1c7        ..      BNE      0x21ac ; Process_Received_Settings + 1624
        0x0000221c:    2046        F       MOVS     r0,#0x46
        0x0000221e:    7020         p      STRB     r0,[r4,#0]
        0x00002220:    7525        %u      STRB     r5,[r4,#0x14]
        0x00002222:    e000        ..      B        0x2226 ; Process_Received_Settings + 1746
        0x00002224:    e2f4        ..      B        0x2810 ; Process_Received_Settings + 3260
        0x00002226:    ed970b28    ..(.    VLDR     d0,[r7,#0xa0]
        0x0000222a:    a0b3        ..      ADR      r0,{pc}+0x2ce ; 0x24f8
        0x0000222c:    ec532b10    S..+    VMOV     r2,r3,d0
        0x00002230:    e03e        >.      B        0x22b0 ; Process_Received_Settings + 1884
        0x00002232:    f001fc71    ..q.    BL       ReadTimerSettings ; 0x3b18
        0x00002236:    f8990007    ....    LDRB     r0,[r9,#7]
        0x0000223a:    f44f737a    O.zs    MOV      r3,#0x3e8
        0x0000223e:    3830        08      SUBS     r0,r0,#0x30
        0x00002240:    b281        ..      UXTH     r1,r0
        0x00002242:    f8aa1006    ....    STRH     r1,[r10,#6]
        0x00002246:    f8990008    ....    LDRB     r0,[r9,#8]
        0x0000224a:    4359        YC      MULS     r1,r3,r1
        0x0000224c:    3830        08      SUBS     r0,r0,#0x30
        0x0000224e:    b280        ..      UXTH     r0,r0
        0x00002250:    f8aa0008    ....    STRH     r0,[r10,#8]
        0x00002254:    f899c009    ....    LDRB     r12,[r9,#9]
        0x00002258:    eb0003c0    ....    ADD      r3,r0,r0,LSL #3
        0x0000225c:    f1ac0c30    ..0.    SUB      r12,r12,#0x30
        0x00002260:    fa1ffc8c    ....    UXTH     r12,r12
        0x00002264:    f8aac00a    ....    STRH     r12,[r10,#0xa]
        0x00002268:    f899200b    ...     LDRB     r2,[r9,#0xb]
        0x0000226c:    eb031000    ....    ADD      r0,r3,r0,LSL #4
        0x00002270:    3a30        0:      SUBS     r2,r2,#0x30
        0x00002272:    eb010080    ....    ADD      r0,r1,r0,LSL #2
        0x00002276:    b292        ..      UXTH     r2,r2
        0x00002278:    eb0c018c    ....    ADD      r1,r12,r12,LSL #2
        0x0000227c:    eb000041    ..A.    ADD      r0,r0,r1,LSL #1
        0x00002280:    f8aa200c    ...     STRH     r2,[r10,#0xc]
        0x00002284:    4410        .D      ADD      r0,r0,r2
        0x00002286:    f7fefade    ....    BL       __aeabi_ui2d ; 0x846
        0x0000228a:    ec532b18    S..+    VMOV     r2,r3,d8
        0x0000228e:    f7fefa5a    ..Z.    BL       __aeabi_ddiv ; 0x746
        0x00002292:    e9c70128    ..(.    STRD     r0,r1,[r7,#0xa0]
        0x00002296:    f002fdd7    ....    BL       WriteTimerSettings ; 0x4e48
        0x0000229a:    7c70        p|      LDRB     r0,[r6,#0x11]
        0x0000229c:    2801        .(      CMP      r0,#1
        0x0000229e:    d185        ..      BNE      0x21ac ; Process_Received_Settings + 1624
        0x000022a0:    2045        E       MOVS     r0,#0x45
        0x000022a2:    7020         p      STRB     r0,[r4,#0]
        0x000022a4:    7525        %u      STRB     r5,[r4,#0x14]
        0x000022a6:    ed970b28    ..(.    VLDR     d0,[r7,#0xa0]
        0x000022aa:    a0a0        ..      ADR      r0,{pc}+0x282 ; 0x252c
        0x000022ac:    ec532b10    S..+    VMOV     r2,r3,d0
        0x000022b0:    f7fff972    ..r.    BL       Debug ; 0x1598
        0x000022b4:    e587        ..      B        0x1dc6 ; Process_Received_Settings + 626
        0x000022b6:    f001fc2f    ../.    BL       ReadTimerSettings ; 0x3b18
        0x000022ba:    f8991007    ....    LDRB     r1,[r9,#7]
        0x000022be:    f8993008    ...0    LDRB     r3,[r9,#8]
        0x000022c2:    3930        09      SUBS     r1,r1,#0x30
        0x000022c4:    eb010181    ....    ADD      r1,r1,r1,LSL #2
        0x000022c8:    3b30        0;      SUBS     r3,r3,#0x30
        0x000022ca:    eb030141    ..A.    ADD      r1,r3,r1,LSL #1
        0x000022ce:    7039        9p      STRB     r1,[r7,#0]
        0x000022d0:    f8991009    ....    LDRB     r1,[r9,#9]
        0x000022d4:    f899300a    ...0    LDRB     r3,[r9,#0xa]
        0x000022d8:    3930        09      SUBS     r1,r1,#0x30
        0x000022da:    eb010181    ....    ADD      r1,r1,r1,LSL #2
        0x000022de:    3b30        0;      SUBS     r3,r3,#0x30
        0x000022e0:    eb030141    ..A.    ADD      r1,r3,r1,LSL #1
        0x000022e4:    7079        yp      STRB     r1,[r7,#1]
        0x000022e6:    f899100b    ....    LDRB     r1,[r9,#0xb]
        0x000022ea:    3930        09      SUBS     r1,r1,#0x30
        0x000022ec:    f8aa1006    ....    STRH     r1,[r10,#6]
        0x000022f0:    f899000c    ....    LDRB     r0,[r9,#0xc]
        0x000022f4:    eb010181    ....    ADD      r1,r1,r1,LSL #2
        0x000022f8:    3830        08      SUBS     r0,r0,#0x30
        0x000022fa:    f8aa000c    ....    STRH     r0,[r10,#0xc]
        0x000022fe:    eb000041    ..A.    ADD      r0,r0,r1,LSL #1
        0x00002302:    70b8        .p      STRB     r0,[r7,#2]
        0x00002304:    f002fda0    ....    BL       WriteTimerSettings ; 0x4e48
        0x00002308:    7c70        p|      LDRB     r0,[r6,#0x11]
        0x0000230a:    2801        .(      CMP      r0,#1
        0x0000230c:    d1d2        ..      BNE      0x22b4 ; Process_Received_Settings + 1888
        0x0000230e:    2013        .       MOVS     r0,#0x13
        0x00002310:    e70a        ..      B        0x2128 ; Process_Received_Settings + 1492
        0x00002312:    f001fc01    ....    BL       ReadTimerSettings ; 0x3b18
        0x00002316:    f8991007    ....    LDRB     r1,[r9,#7]
        0x0000231a:    f8993008    ...0    LDRB     r3,[r9,#8]
        0x0000231e:    3930        09      SUBS     r1,r1,#0x30
        0x00002320:    eb010181    ....    ADD      r1,r1,r1,LSL #2
        0x00002324:    3b30        0;      SUBS     r3,r3,#0x30
        0x00002326:    eb030141    ..A.    ADD      r1,r3,r1,LSL #1
        0x0000232a:    70f9        .p      STRB     r1,[r7,#3]
        0x0000232c:    f8991009    ....    LDRB     r1,[r9,#9]
        0x00002330:    f899300a    ...0    LDRB     r3,[r9,#0xa]
        0x00002334:    3930        09      SUBS     r1,r1,#0x30
        0x00002336:    eb010181    ....    ADD      r1,r1,r1,LSL #2
        0x0000233a:    3b30        0;      SUBS     r3,r3,#0x30
        0x0000233c:    eb030141    ..A.    ADD      r1,r3,r1,LSL #1
        0x00002340:    7139        9q      STRB     r1,[r7,#4]
        0x00002342:    f899100b    ....    LDRB     r1,[r9,#0xb]
        0x00002346:    3930        09      SUBS     r1,r1,#0x30
        0x00002348:    f8aa1006    ....    STRH     r1,[r10,#6]
        0x0000234c:    f899000c    ....    LDRB     r0,[r9,#0xc]
        0x00002350:    eb010181    ....    ADD      r1,r1,r1,LSL #2
        0x00002354:    3830        08      SUBS     r0,r0,#0x30
        0x00002356:    f8aa000c    ....    STRH     r0,[r10,#0xc]
        0x0000235a:    eb000041    ..A.    ADD      r0,r0,r1,LSL #1
        0x0000235e:    7178        xq      STRB     r0,[r7,#5]
        0x00002360:    f002fd72    ..r.    BL       WriteTimerSettings ; 0x4e48
        0x00002364:    7c70        p|      LDRB     r0,[r6,#0x11]
        0x00002366:    2801        .(      CMP      r0,#1
        0x00002368:    d1a4        ..      BNE      0x22b4 ; Process_Received_Settings + 1888
        0x0000236a:    2014        .       MOVS     r0,#0x14
        0x0000236c:    e6dc        ..      B        0x2128 ; Process_Received_Settings + 1492
        0x0000236e:    2015        .       MOVS     r0,#0x15
        0x00002370:    e6da        ..      B        0x2128 ; Process_Received_Settings + 1492
        0x00002372:    a17b        {.      ADR      r1,{pc}+0x1ee ; 0x2560
        0x00002374:    487d        }H      LDR      r0,[pc,#500] ; [0x256c] = 0x20003a51
        0x00002376:    f7fdffba    ....    BL       strstr ; 0x2ee
        0x0000237a:    b120         .      CBZ      r0,0x2386 ; Process_Received_Settings + 2098
        0x0000237c:    487b        {H      LDR      r0,[pc,#492] ; [0x256c] = 0x20003a51
        0x0000237e:    f7fdffd4    ....    BL       strlen ; 0x32a
        0x00002382:    280e        .(      CMP      r0,#0xe
        0x00002384:    d00b        ..      BEQ      0x239e ; Process_Received_Settings + 2122
        0x00002386:    a17a        z.      ADR      r1,{pc}+0x1ea ; 0x2570
        0x00002388:    4878        xH      LDR      r0,[pc,#480] ; [0x256c] = 0x20003a51
        0x0000238a:    f7fdffb0    ....    BL       strstr ; 0x2ee
        0x0000238e:    f04f0b2d    O.-.    MOV      r11,#0x2d
        0x00002392:    b398        ..      CBZ      r0,0x23fc ; Process_Received_Settings + 2216
        0x00002394:    f001fbc0    ....    BL       ReadTimerSettings ; 0x3b18
        0x00002398:    f8875041    ..AP    STRB     r5,[r7,#0x41]
        0x0000239c:    e0f7        ..      B        0x258e ; Process_Received_Settings + 2618
        0x0000239e:    f001fbbb    ....    BL       ReadTimerSettings ; 0x3b18
        0x000023a2:    f8991008    ....    LDRB     r1,[r9,#8]
        0x000023a6:    f8993009    ...0    LDRB     r3,[r9,#9]
        0x000023aa:    3930        09      SUBS     r1,r1,#0x30
        0x000023ac:    eb010181    ....    ADD      r1,r1,r1,LSL #2
        0x000023b0:    3b30        0;      SUBS     r3,r3,#0x30
        0x000023b2:    eb030141    ..A.    ADD      r1,r3,r1,LSL #1
        0x000023b6:    f8071f42    ..B.    STRB     r1,[r7,#0x42]!
        0x000023ba:    f899100a    ....    LDRB     r1,[r9,#0xa]
        0x000023be:    f899300b    ...0    LDRB     r3,[r9,#0xb]
        0x000023c2:    3930        09      SUBS     r1,r1,#0x30
        0x000023c4:    eb010181    ....    ADD      r1,r1,r1,LSL #2
        0x000023c8:    3b30        0;      SUBS     r3,r3,#0x30
        0x000023ca:    eb030141    ..A.    ADD      r1,r3,r1,LSL #1
        0x000023ce:    7079        yp      STRB     r1,[r7,#1]
        0x000023d0:    f899100c    ....    LDRB     r1,[r9,#0xc]
        0x000023d4:    3930        09      SUBS     r1,r1,#0x30
        0x000023d6:    f8aa1006    ....    STRH     r1,[r10,#6]
        0x000023da:    f899000d    ....    LDRB     r0,[r9,#0xd]
        0x000023de:    eb010181    ....    ADD      r1,r1,r1,LSL #2
        0x000023e2:    3830        08      SUBS     r0,r0,#0x30
        0x000023e4:    f8aa000c    ....    STRH     r0,[r10,#0xc]
        0x000023e8:    eb000041    ..A.    ADD      r0,r0,r1,LSL #1
        0x000023ec:    70b8        .p      STRB     r0,[r7,#2]
        0x000023ee:    f002fd2b    ..+.    BL       WriteTimerSettings ; 0x4e48
        0x000023f2:    7c70        p|      LDRB     r0,[r6,#0x11]
        0x000023f4:    2801        .(      CMP      r0,#1
        0x000023f6:    d189        ..      BNE      0x230c ; Process_Received_Settings + 1976
        0x000023f8:    202e        .       MOVS     r0,#0x2e
        0x000023fa:    e695        ..      B        0x2128 ; Process_Received_Settings + 1492
        0x000023fc:    e0be        ..      B        0x257c ; Process_Received_Settings + 2600
    $d
        0x000023fe:    0000        ..      DCW    0
        0x00002400:    6f666542    Befo    DCD    1868981570
        0x00002404:    53206572    re S    DCD    1394632050
        0x00002408:    54207465    et T    DCD    1411413093
        0x0000240c:    3a454d49    IME:    DCD    977620297
        0x00002410:    3230255b    [%02    DCD    842016091
        0x00002414:    30253a64    d:%0    DCD    807746148
        0x00002418:    253a6432    2d:%    DCD    624583730
        0x0000241c:    5d643230    02d]    DCD    1566847536
        0x00002420:    0000000a    ....    DCD    10
        0x00002424:    45544144    DATE    DCD    1163149636
        0x00002428:    30255b3a    :[%0    DCD    807754554
        0x0000242c:    252d6432    2d-%    DCD    623731762
        0x00002430:    2d643230    02d-    DCD    761541168
        0x00002434:    64323025    %02d    DCD    1681010725
        0x00002438:    00000a5d    ]...    DCD    2653
        0x0000243c:    737b0a0d    ..{s    DCD    1937443341
        0x00002440:    74207465    et t    DCD    1948284005
        0x00002444:    20656d69    ime     DCD    543518057
        0x00002448:    6d726f66    form    DCD    1836216166
        0x0000244c:    65207461    at e    DCD    1696625761
        0x00002450:    726f7272    rror    DCD    1919906418
        0x00002454:    0a0d7d21    !}..    DCD    168656161
        0x00002458:    00000000    ....    DCD    0
        0x0000245c:    737b0a0d    ..{s    DCD    1937443341
        0x00002460:    74207465    et t    DCD    1948284005
        0x00002464:    20656d69    ime     DCD    543518057
        0x00002468:    6c696166    fail    DCD    1818845542
        0x0000246c:    7d206465    ed }    DCD    2099274853
        0x00002470:    000a0d21    !...    DCD    658721
        0x00002474:    737b0a0d    ..{s    DCD    1937443341
        0x00002478:    74207465    et t    DCD    1948284005
        0x0000247c:    20656d69    ime     DCD    543518057
        0x00002480:    63637573    succ    DCD    1667462515
        0x00002484:    65737365    esse    DCD    1702064997
        0x00002488:    0d7d2164    d!}.    DCD    226304356
        0x0000248c:    0000000a    ....    DCD    10
        0x00002490:    47200d0a    .. G    DCD    1193282826
        0x00002494:    5620746f    ot V    DCD    1444967535
        0x00002498:    65756c61    alue    DCD    1702194273
        0x0000249c:    20666f20     of     DCD    543584032
        0x000024a0:    6d69546e    nTim    DCD    1835619438
        0x000024a4:    65537265    erSe    DCD    1699967589
        0x000024a8:    6e697474    ttin    DCD    1852404852
        0x000024ac:    442e7367    gs.D    DCD    1143894887
        0x000024b0:    706d4172    rAmp    DCD    1886208370
        0x000024b4:    49494973    sIII    DCD    1229539699
        0x000024b8:    25203d20     = %    DCD    622869792
        0x000024bc:    66312e30    0.1f    DCD    1714499120
        0x000024c0:    00000d0a    ....    DCD    3338
        0x000024c4:    47200d0a    .. G    DCD    1193282826
        0x000024c8:    5620746f    ot V    DCD    1444967535
        0x000024cc:    65756c61    alue    DCD    1702194273
        0x000024d0:    20666f20     of     DCD    543584032
        0x000024d4:    6d69546e    nTim    DCD    1835619438
        0x000024d8:    65537265    erSe    DCD    1699967589
        0x000024dc:    6e697474    ttin    DCD    1852404852
        0x000024e0:    442e7367    gs.D    DCD    1143894887
        0x000024e4:    706d4172    rAmp    DCD    1886208370
        0x000024e8:    20494973    sII     DCD    541673843
        0x000024ec:    3025203d    = %0    DCD    807739453
        0x000024f0:    0a66312e    .1f.    DCD    174469422
        0x000024f4:    0000000d    ....    DCD    13
        0x000024f8:    47200d0a    .. G    DCD    1193282826
        0x000024fc:    5620746f    ot V    DCD    1444967535
        0x00002500:    65756c61    alue    DCD    1702194273
        0x00002504:    20666f20     of     DCD    543584032
        0x00002508:    6d69546e    nTim    DCD    1835619438
        0x0000250c:    65537265    erSe    DCD    1699967589
        0x00002510:    6e697474    ttin    DCD    1852404852
        0x00002514:    4f2e7367    gs.O    DCD    1328444263
        0x00002518:    706d416c    lAmp    DCD    1886208364
        0x0000251c:    20494973    sII     DCD    541673843
        0x00002520:    3025203d    = %0    DCD    807739453
        0x00002524:    0a66312e    .1f.    DCD    174469422
        0x00002528:    0000000d    ....    DCD    13
        0x0000252c:    47200d0a    .. G    DCD    1193282826
        0x00002530:    5620746f    ot V    DCD    1444967535
        0x00002534:    65756c61    alue    DCD    1702194273
        0x00002538:    20666f20     of     DCD    543584032
        0x0000253c:    6d69546e    nTim    DCD    1835619438
        0x00002540:    65537265    erSe    DCD    1699967589
        0x00002544:    6e697474    ttin    DCD    1852404852
        0x00002548:    4f2e7367    gs.O    DCD    1328444263
        0x0000254c:    706d416c    lAmp    DCD    1886208364
        0x00002550:    20494973    sII     DCD    541673843
        0x00002554:    3225203d    = %2    DCD    841293885
        0x00002558:    0a66312e    .1f.    DCD    174469422
        0x0000255c:    0000000d    ....    DCD    13
        0x00002560:    64726373    scrd    DCD    1685218163
        0x00002564:    79616c65    elay    DCD    2036427877
        0x00002568:    00000000    ....    DCD    0
        0x0000256c:    20003a51    Q:.     DCD    536885841
        0x00002570:    64726373    scrd    DCD    1685218163
        0x00002574:    79616c65    elay    DCD    2036427877
        0x00002578:    00006e6f    on..    DCD    28271
    $t
        0x0000257c:    a1fb        ..      ADR      r1,{pc}+0x3f0 ; 0x296c
        0x0000257e:    48fe        .H      LDR      r0,[pc,#1016] ; [0x2978] = 0x20003a51
        0x00002580:    f7fdfeb5    ....    BL       strstr ; 0x2ee
        0x00002584:    b148        H.      CBZ      r0,0x259a ; Process_Received_Settings + 2630
        0x00002586:    f001fac7    ....    BL       ReadTimerSettings ; 0x3b18
        0x0000258a:    f8878041    ..A.    STRB     r8,[r7,#0x41]
        0x0000258e:    f002fc5b    ..[.    BL       WriteTimerSettings ; 0x4e48
        0x00002592:    7c70        p|      LDRB     r0,[r6,#0x11]
        0x00002594:    2801        .(      CMP      r0,#1
        0x00002596:    d07d        }.      BEQ      0x2694 ; Process_Received_Settings + 2880
        0x00002598:    e415        ..      B        0x1dc6 ; Process_Received_Settings + 626
        0x0000259a:    a1f8        ..      ADR      r1,{pc}+0x3e2 ; 0x297c
        0x0000259c:    48f6        .H      LDR      r0,[pc,#984] ; [0x2978] = 0x20003a51
        0x0000259e:    f7fdfea6    ....    BL       strstr ; 0x2ee
        0x000025a2:    b120         .      CBZ      r0,0x25ae ; Process_Received_Settings + 2650
        0x000025a4:    48f4        .H      LDR      r0,[pc,#976] ; [0x2978] = 0x20003a51
        0x000025a6:    f003fca3    ....    BL       isValidDRTFormat ; 0x5ef0
        0x000025aa:    2801        .(      CMP      r0,#1
        0x000025ac:    d00c        ..      BEQ      0x25c8 ; Process_Received_Settings + 2676
        0x000025ae:    a1f6        ..      ADR      r1,{pc}+0x3da ; 0x2988
        0x000025b0:    48f1        .H      LDR      r0,[pc,#964] ; [0x2978] = 0x20003a51
        0x000025b2:    f7fdfe9c    ....    BL       strstr ; 0x2ee
        0x000025b6:    f04f0b1c    O...    MOV      r11,#0x1c
        0x000025ba:    b378        x.      CBZ      r0,0x261c ; Process_Received_Settings + 2760
        0x000025bc:    9836        6.      LDR      r0,[sp,#0xd8]
        0x000025be:    f003fc82    ....    BL       isValidCyclicTimerFormat ; 0x5ec6
        0x000025c2:    2801        .(      CMP      r0,#1
        0x000025c4:    d02b        +.      BEQ      0x261e ; Process_Received_Settings + 2762
        0x000025c6:    e02f        /.      B        0x2628 ; Process_Received_Settings + 2772
        0x000025c8:    f001faa6    ....    BL       ReadTimerSettings ; 0x3b18
        0x000025cc:    f8991009    ....    LDRB     r1,[r9,#9]
        0x000025d0:    f899300a    ...0    LDRB     r3,[r9,#0xa]
        0x000025d4:    3930        09      SUBS     r1,r1,#0x30
        0x000025d6:    eb010181    ....    ADD      r1,r1,r1,LSL #2
        0x000025da:    3b30        0;      SUBS     r3,r3,#0x30
        0x000025dc:    eb030141    ..A.    ADD      r1,r3,r1,LSL #1
        0x000025e0:    7339        9s      STRB     r1,[r7,#0xc]
        0x000025e2:    f899100b    ....    LDRB     r1,[r9,#0xb]
        0x000025e6:    f899300c    ...0    LDRB     r3,[r9,#0xc]
        0x000025ea:    3930        09      SUBS     r1,r1,#0x30
        0x000025ec:    eb010181    ....    ADD      r1,r1,r1,LSL #2
        0x000025f0:    3b30        0;      SUBS     r3,r3,#0x30
        0x000025f2:    eb030141    ..A.    ADD      r1,r3,r1,LSL #1
        0x000025f6:    7379        ys      STRB     r1,[r7,#0xd]
        0x000025f8:    f899100d    ....    LDRB     r1,[r9,#0xd]
        0x000025fc:    3930        09      SUBS     r1,r1,#0x30
        0x000025fe:    f8aa1006    ....    STRH     r1,[r10,#6]
        0x00002602:    f899000e    ....    LDRB     r0,[r9,#0xe]
        0x00002606:    eb010181    ....    ADD      r1,r1,r1,LSL #2
        0x0000260a:    3830        08      SUBS     r0,r0,#0x30
        0x0000260c:    f8aa000c    ....    STRH     r0,[r10,#0xc]
        0x00002610:    eb000041    ..A.    ADD      r0,r0,r1,LSL #1
        0x00002614:    73b8        .s      STRB     r0,[r7,#0xe]
        0x00002616:    e097        ..      B        0x2748 ; Process_Received_Settings + 3060
        0x00002618:    2017        .       MOVS     r0,#0x17
        0x0000261a:    e585        ..      B        0x2128 ; Process_Received_Settings + 1492
        0x0000261c:    e004        ..      B        0x2628 ; Process_Received_Settings + 2772
        0x0000261e:    9800        ..      LDR      r0,[sp,#0]
        0x00002620:    f003fc51    ..Q.    BL       isValidCyclicTimerFormat ; 0x5ec6
        0x00002624:    2801        .(      CMP      r0,#1
        0x00002626:    d008        ..      BEQ      0x263a ; Process_Received_Settings + 2790
        0x00002628:    a1db        ..      ADR      r1,{pc}+0x370 ; 0x2998
        0x0000262a:    48d3        .H      LDR      r0,[pc,#844] ; [0x2978] = 0x20003a51
        0x0000262c:    f7fdfe5f    .._.    BL       strstr ; 0x2ee
        0x00002630:    b388        ..      CBZ      r0,0x2696 ; Process_Received_Settings + 2882
        0x00002632:    f001fa71    ..q.    BL       ReadTimerSettings ; 0x3b18
        0x00002636:    75fd        .u      STRB     r5,[r7,#0x17]
        0x00002638:    e7a9        ..      B        0x258e ; Process_Received_Settings + 2618
        0x0000263a:    f001fa6d    ..m.    BL       ReadTimerSettings ; 0x3b18
        0x0000263e:    4648        HF      MOV      r0,r9
        0x00002640:    4652        RF      MOV      r2,r10
        0x00002642:    f8101f14    ....    LDRB     r1,[r0,#0x14]!
        0x00002646:    7843        Cx      LDRB     r3,[r0,#1]
        0x00002648:    3930        09      SUBS     r1,r1,#0x30
        0x0000264a:    eb010181    ....    ADD      r1,r1,r1,LSL #2
        0x0000264e:    3b30        0;      SUBS     r3,r3,#0x30
        0x00002650:    eb030141    ..A.    ADD      r1,r3,r1,LSL #1
        0x00002654:    7639        9v      STRB     r1,[r7,#0x18]
        0x00002656:    7881        .x      LDRB     r1,[r0,#2]
        0x00002658:    78c3        .x      LDRB     r3,[r0,#3]
        0x0000265a:    3930        09      SUBS     r1,r1,#0x30
        0x0000265c:    eb010181    ....    ADD      r1,r1,r1,LSL #2
        0x00002660:    3b30        0;      SUBS     r3,r3,#0x30
        0x00002662:    eb030141    ..A.    ADD      r1,r3,r1,LSL #1
        0x00002666:    7679        yv      STRB     r1,[r7,#0x19]
        0x00002668:    7d01        .}      LDRB     r1,[r0,#0x14]
        0x0000266a:    7d43        C}      LDRB     r3,[r0,#0x15]
        0x0000266c:    3930        09      SUBS     r1,r1,#0x30
        0x0000266e:    eb010181    ....    ADD      r1,r1,r1,LSL #2
        0x00002672:    3b30        0;      SUBS     r3,r3,#0x30
        0x00002674:    eb030141    ..A.    ADD      r1,r3,r1,LSL #1
        0x00002678:    7779        yw      STRB     r1,[r7,#0x1d]
        0x0000267a:    7d81        .}      LDRB     r1,[r0,#0x16]
        0x0000267c:    3930        09      SUBS     r1,r1,#0x30
        0x0000267e:    8111        ..      STRH     r1,[r2,#8]
        0x00002680:    f899002b    ..+.    LDRB     r0,[r9,#0x2b]
        0x00002684:    eb010181    ....    ADD      r1,r1,r1,LSL #2
        0x00002688:    3830        08      SUBS     r0,r0,#0x30
        0x0000268a:    f8aa000a    ....    STRH     r0,[r10,#0xa]
        0x0000268e:    eb000041    ..A.    ADD      r0,r0,r1,LSL #1
        0x00002692:    e001        ..      B        0x2698 ; Process_Received_Settings + 2884
        0x00002694:    e0f7        ..      B        0x2886 ; Process_Received_Settings + 3378
        0x00002696:    e005        ..      B        0x26a4 ; Process_Received_Settings + 2896
        0x00002698:    77b8        .w      STRB     r0,[r7,#0x1e]
        0x0000269a:    f887801a    ....    STRB     r8,[r7,#0x1a]
        0x0000269e:    f887801f    ....    STRB     r8,[r7,#0x1f]
        0x000026a2:    e774        t.      B        0x258e ; Process_Received_Settings + 2618
        0x000026a4:    a1bf        ..      ADR      r1,{pc}+0x300 ; 0x29a4
        0x000026a6:    48b4        .H      LDR      r0,[pc,#720] ; [0x2978] = 0x20003a51
        0x000026a8:    f7fdfe21    ..!.    BL       strstr ; 0x2ee
        0x000026ac:    b120         .      CBZ      r0,0x26b8 ; Process_Received_Settings + 2916
        0x000026ae:    f001fa33    ..3.    BL       ReadTimerSettings ; 0x3b18
        0x000026b2:    f8878017    ....    STRB     r8,[r7,#0x17]
        0x000026b6:    e76a        j.      B        0x258e ; Process_Received_Settings + 2618
        0x000026b8:    a1bd        ..      ADR      r1,{pc}+0x2f8 ; 0x29b0
        0x000026ba:    48af        .H      LDR      r0,[pc,#700] ; [0x2978] = 0x20003a51
        0x000026bc:    f7fdfe17    ....    BL       strstr ; 0x2ee
        0x000026c0:    b120         .      CBZ      r0,0x26cc ; Process_Received_Settings + 2936
        0x000026c2:    48ad        .H      LDR      r0,[pc,#692] ; [0x2978] = 0x20003a51
        0x000026c4:    f7fdfe31    ..1.    BL       strlen ; 0x32a
        0x000026c8:    2810        .(      CMP      r0,#0x10
        0x000026ca:    d00b        ..      BEQ      0x26e4 ; Process_Received_Settings + 2960
        0x000026cc:    a1bc        ..      ADR      r1,{pc}+0x2f4 ; 0x29c0
        0x000026ce:    48aa        .H      LDR      r0,[pc,#680] ; [0x2978] = 0x20003a51
        0x000026d0:    f7fdfe0d    ....    BL       strstr ; 0x2ee
        0x000026d4:    f04f0b4e    O.N.    MOV      r11,#0x4e
        0x000026d8:    b320         .      CBZ      r0,0x2724 ; Process_Received_Settings + 3024
        0x000026da:    f001fa1d    ....    BL       ReadTimerSettings ; 0x3b18
        0x000026de:    f88750d5    ...P    STRB     r5,[r7,#0xd5]
        0x000026e2:    e754        T.      B        0x258e ; Process_Received_Settings + 2618
        0x000026e4:    f001fa18    ....    BL       ReadTimerSettings ; 0x3b18
        0x000026e8:    f899100e    ....    LDRB     r1,[r9,#0xe]
        0x000026ec:    f899200d    ...     LDRB     r2,[r9,#0xd]
        0x000026f0:    3930        09      SUBS     r1,r1,#0x30
        0x000026f2:    f8aa1006    ....    STRH     r1,[r10,#6]
        0x000026f6:    f899000f    ....    LDRB     r0,[r9,#0xf]
        0x000026fa:    2364        d#      MOVS     r3,#0x64
        0x000026fc:    3830        08      SUBS     r0,r0,#0x30
        0x000026fe:    f8aa000c    ....    STRH     r0,[r10,#0xc]
        0x00002702:    3a30        0:      SUBS     r2,r2,#0x30
        0x00002704:    fb12f203    ....    SMULBB   r2,r2,r3
        0x00002708:    eb010181    ....    ADD      r1,r1,r1,LSL #2
        0x0000270c:    eb020141    ..A.    ADD      r1,r2,r1,LSL #1
        0x00002710:    4408        .D      ADD      r0,r0,r1
        0x00002712:    f88700d6    ....    STRB     r0,[r7,#0xd6]
        0x00002716:    f002fb97    ....    BL       WriteTimerSettings ; 0x4e48
        0x0000271a:    7c70        p|      LDRB     r0,[r6,#0x11]
        0x0000271c:    2801        .(      CMP      r0,#1
        0x0000271e:    d177        w.      BNE      0x2810 ; Process_Received_Settings + 3260
        0x00002720:    204f        O       MOVS     r0,#0x4f
        0x00002722:    e501        ..      B        0x2128 ; Process_Received_Settings + 1492
        0x00002724:    a1aa        ..      ADR      r1,{pc}+0x2ac ; 0x29d0
        0x00002726:    4894        .H      LDR      r0,[pc,#592] ; [0x2978] = 0x20003a51
        0x00002728:    f7fdfde1    ....    BL       strstr ; 0x2ee
        0x0000272c:    b120         .      CBZ      r0,0x2738 ; Process_Received_Settings + 3044
        0x0000272e:    f001f9f3    ....    BL       ReadTimerSettings ; 0x3b18
        0x00002732:    f88780d5    ....    STRB     r8,[r7,#0xd5]
        0x00002736:    e72a        *.      B        0x258e ; Process_Received_Settings + 2618
        0x00002738:    a1a9        ..      ADR      r1,{pc}+0x2a8 ; 0x29e0
        0x0000273a:    488f        .H      LDR      r0,[pc,#572] ; [0x2978] = 0x20003a51
        0x0000273c:    f7fdfdd7    ....    BL       strstr ; 0x2ee
        0x00002740:    b148        H.      CBZ      r0,0x2756 ; Process_Received_Settings + 3074
        0x00002742:    f001f9e9    ....    BL       ReadTimerSettings ; 0x3b18
        0x00002746:    727d        }r      STRB     r5,[r7,#9]
        0x00002748:    f002fb7e    ..~.    BL       WriteTimerSettings ; 0x4e48
        0x0000274c:    7c70        p|      LDRB     r0,[r6,#0x11]
        0x0000274e:    2801        .(      CMP      r0,#1
        0x00002750:    f43faf62    ?.b.    BEQ      0x2618 ; Process_Received_Settings + 2756
        0x00002754:    e52a        *.      B        0x21ac ; Process_Received_Settings + 1624
        0x00002756:    a1a5        ..      ADR      r1,{pc}+0x296 ; 0x29ec
        0x00002758:    4887        .H      LDR      r0,[pc,#540] ; [0x2978] = 0x20003a51
        0x0000275a:    f7fdfdc8    ....    BL       strstr ; 0x2ee
        0x0000275e:    b120         .      CBZ      r0,0x276a ; Process_Received_Settings + 3094
        0x00002760:    f001f9da    ....    BL       ReadTimerSettings ; 0x3b18
        0x00002764:    f8878009    ....    STRB     r8,[r7,#9]
        0x00002768:    e7ee        ..      B        0x2748 ; Process_Received_Settings + 3060
        0x0000276a:    a1a3        ..      ADR      r1,{pc}+0x28e ; 0x29f8
        0x0000276c:    4882        .H      LDR      r0,[pc,#520] ; [0x2978] = 0x20003a51
        0x0000276e:    f7fdfdbe    ....    BL       strstr ; 0x2ee
        0x00002772:    f04f0b3b    O.;.    MOV      r11,#0x3b
        0x00002776:    b120         .      CBZ      r0,0x2782 ; Process_Received_Settings + 3118
        0x00002778:    f001f9ce    ....    BL       ReadTimerSettings ; 0x3b18
        0x0000277c:    f8875075    ..uP    STRB     r5,[r7,#0x75]
        0x00002780:    e705        ..      B        0x258e ; Process_Received_Settings + 2618
        0x00002782:    a1a0        ..      ADR      r1,{pc}+0x282 ; 0x2a04
        0x00002784:    487c        |H      LDR      r0,[pc,#496] ; [0x2978] = 0x20003a51
        0x00002786:    f7fdfdb2    ....    BL       strstr ; 0x2ee
        0x0000278a:    b120         .      CBZ      r0,0x2796 ; Process_Received_Settings + 3138
        0x0000278c:    f001f9c4    ....    BL       ReadTimerSettings ; 0x3b18
        0x00002790:    f8878075    ..u.    STRB     r8,[r7,#0x75]
        0x00002794:    e6fb        ..      B        0x258e ; Process_Received_Settings + 2618
        0x00002796:    a19e        ..      ADR      r1,{pc}+0x27a ; 0x2a10
        0x00002798:    4877        wH      LDR      r0,[pc,#476] ; [0x2978] = 0x20003a51
        0x0000279a:    f7fdfda8    ....    BL       strstr ; 0x2ee
        0x0000279e:    f04f0b3a    O.:.    MOV      r11,#0x3a
        0x000027a2:    b120         .      CBZ      r0,0x27ae ; Process_Received_Settings + 3162
        0x000027a4:    f001f9b8    ....    BL       ReadTimerSettings ; 0x3b18
        0x000027a8:    f8875076    ..vP    STRB     r5,[r7,#0x76]
        0x000027ac:    e6ef        ..      B        0x258e ; Process_Received_Settings + 2618
        0x000027ae:    a19c        ..      ADR      r1,{pc}+0x272 ; 0x2a20
        0x000027b0:    4871        qH      LDR      r0,[pc,#452] ; [0x2978] = 0x20003a51
        0x000027b2:    f7fdfd9c    ....    BL       strstr ; 0x2ee
        0x000027b6:    b120         .      CBZ      r0,0x27c2 ; Process_Received_Settings + 3182
        0x000027b8:    f001f9ae    ....    BL       ReadTimerSettings ; 0x3b18
        0x000027bc:    f8878076    ..v.    STRB     r8,[r7,#0x76]
        0x000027c0:    e6e5        ..      B        0x258e ; Process_Received_Settings + 2618
        0x000027c2:    a19b        ..      ADR      r1,{pc}+0x26e ; 0x2a30
        0x000027c4:    486c        lH      LDR      r0,[pc,#432] ; [0x2978] = 0x20003a51
        0x000027c6:    f7fdfd92    ....    BL       strstr ; 0x2ee
        0x000027ca:    f04f0b39    O.9.    MOV      r11,#0x39
        0x000027ce:    b920         .      CBNZ     r0,0x27da ; Process_Received_Settings + 3206
        0x000027d0:    a19b        ..      ADR      r1,{pc}+0x270 ; 0x2a40
        0x000027d2:    4869        iH      LDR      r0,[pc,#420] ; [0x2978] = 0x20003a51
        0x000027d4:    f7fdfd8b    ....    BL       strstr ; 0x2ee
        0x000027d8:    b120         .      CBZ      r0,0x27e4 ; Process_Received_Settings + 3216
        0x000027da:    f001f99d    ....    BL       ReadTimerSettings ; 0x3b18
        0x000027de:    f8875074    ..tP    STRB     r5,[r7,#0x74]
        0x000027e2:    e6d4        ..      B        0x258e ; Process_Received_Settings + 2618
        0x000027e4:    a19a        ..      ADR      r1,{pc}+0x26c ; 0x2a50
        0x000027e6:    4864        dH      LDR      r0,[pc,#400] ; [0x2978] = 0x20003a51
        0x000027e8:    f7fdfd81    ....    BL       strstr ; 0x2ee
        0x000027ec:    b120         .      CBZ      r0,0x27f8 ; Process_Received_Settings + 3236
        0x000027ee:    4862        bH      LDR      r0,[pc,#392] ; [0x2978] = 0x20003a51
        0x000027f0:    f7fdfd9b    ....    BL       strlen ; 0x32a
        0x000027f4:    2810        .(      CMP      r0,#0x10
        0x000027f6:    d00c        ..      BEQ      0x2812 ; Process_Received_Settings + 3262
        0x000027f8:    a198        ..      ADR      r1,{pc}+0x264 ; 0x2a5c
        0x000027fa:    485f        _H      LDR      r0,[pc,#380] ; [0x2978] = 0x20003a51
        0x000027fc:    f7fdfd77    ..w.    BL       strstr ; 0x2ee
        0x00002800:    f04f0b50    O.P.    MOV      r11,#0x50
        0x00002804:    b3a0        ..      CBZ      r0,0x2870 ; Process_Received_Settings + 3356
        0x00002806:    f001f987    ....    BL       ReadTimerSettings ; 0x3b18
        0x0000280a:    f88750d7    ...P    STRB     r5,[r7,#0xd7]
        0x0000280e:    e6be        ..      B        0x258e ; Process_Received_Settings + 2618
        0x00002810:    e0a1        ..      B        0x2956 ; Process_Received_Settings + 3586
        0x00002812:    f001f981    ....    BL       ReadTimerSettings ; 0x3b18
        0x00002816:    f899100a    ....    LDRB     r1,[r9,#0xa]
        0x0000281a:    f899300b    ...0    LDRB     r3,[r9,#0xb]
        0x0000281e:    3930        09      SUBS     r1,r1,#0x30
        0x00002820:    eb010181    ....    ADD      r1,r1,r1,LSL #2
        0x00002824:    3b30        0;      SUBS     r3,r3,#0x30
        0x00002826:    eb030141    ..A.    ADD      r1,r3,r1,LSL #1
        0x0000282a:    f8071fd8    ....    STRB     r1,[r7,#0xd8]!
        0x0000282e:    f899100c    ....    LDRB     r1,[r9,#0xc]
        0x00002832:    f899300d    ...0    LDRB     r3,[r9,#0xd]
        0x00002836:    3930        09      SUBS     r1,r1,#0x30
        0x00002838:    eb010181    ....    ADD      r1,r1,r1,LSL #2
        0x0000283c:    3b30        0;      SUBS     r3,r3,#0x30
        0x0000283e:    eb030141    ..A.    ADD      r1,r3,r1,LSL #1
        0x00002842:    7079        yp      STRB     r1,[r7,#1]
        0x00002844:    f899100e    ....    LDRB     r1,[r9,#0xe]
        0x00002848:    3930        09      SUBS     r1,r1,#0x30
        0x0000284a:    f8aa1006    ....    STRH     r1,[r10,#6]
        0x0000284e:    f899000f    ....    LDRB     r0,[r9,#0xf]
        0x00002852:    eb010181    ....    ADD      r1,r1,r1,LSL #2
        0x00002856:    3830        08      SUBS     r0,r0,#0x30
        0x00002858:    f8aa000c    ....    STRH     r0,[r10,#0xc]
        0x0000285c:    eb000041    ..A.    ADD      r0,r0,r1,LSL #1
        0x00002860:    70b8        .p      STRB     r0,[r7,#2]
        0x00002862:    f002faf1    ....    BL       WriteTimerSettings ; 0x4e48
        0x00002866:    7c70        p|      LDRB     r0,[r6,#0x11]
        0x00002868:    2801        .(      CMP      r0,#1
        0x0000286a:    d174        t.      BNE      0x2956 ; Process_Received_Settings + 3586
        0x0000286c:    2051        Q       MOVS     r0,#0x51
        0x0000286e:    e45b        [.      B        0x2128 ; Process_Received_Settings + 1492
        0x00002870:    e7ff        ..      B        0x2872 ; Process_Received_Settings + 3358
        0x00002872:    a17d        }.      ADR      r1,{pc}+0x1f6 ; 0x2a68
        0x00002874:    4840        @H      LDR      r0,[pc,#256] ; [0x2978] = 0x20003a51
        0x00002876:    f7fdfd3a    ..:.    BL       strstr ; 0x2ee
        0x0000287a:    b140        @.      CBZ      r0,0x288e ; Process_Received_Settings + 3386
        0x0000287c:    f001f94c    ..L.    BL       ReadTimerSettings ; 0x3b18
        0x00002880:    f88780d7    ....    STRB     r8,[r7,#0xd7]
        0x00002884:    e683        ..      B        0x258e ; Process_Received_Settings + 2618
        0x00002886:    f884b000    ....    STRB     r11,[r4,#0]
        0x0000288a:    e48e        ..      B        0x21aa ; Process_Received_Settings + 1622
        0x0000288c:    e2d5        ..      B        0x2e3a ; Process_Received_Settings + 4838
        0x0000288e:    a179        y.      ADR      r1,{pc}+0x1e6 ; 0x2a74
        0x00002890:    4839        9H      LDR      r0,[pc,#228] ; [0x2978] = 0x20003a51
        0x00002892:    f7fdfd2c    ..,.    BL       strstr ; 0x2ee
        0x00002896:    b120         .      CBZ      r0,0x28a2 ; Process_Received_Settings + 3406
        0x00002898:    4837        7H      LDR      r0,[pc,#220] ; [0x2978] = 0x20003a51
        0x0000289a:    f7fdfd46    ..F.    BL       strlen ; 0x32a
        0x0000289e:    280b        .(      CMP      r0,#0xb
        0x000028a0:    d05a        Z.      BEQ      0x2958 ; Process_Received_Settings + 3588
        0x000028a2:    a177        w.      ADR      r1,{pc}+0x1de ; 0x2a80
        0x000028a4:    4834        4H      LDR      r0,[pc,#208] ; [0x2978] = 0x20003a51
        0x000028a6:    f7fdfd22    ..".    BL       strstr ; 0x2ee
        0x000028aa:    b120         .      CBZ      r0,0x28b6 ; Process_Received_Settings + 3426
        0x000028ac:    4832        2H      LDR      r0,[pc,#200] ; [0x2978] = 0x20003a51
        0x000028ae:    f7fdfd3c    ..<.    BL       strlen ; 0x32a
        0x000028b2:    280b        .(      CMP      r0,#0xb
        0x000028b4:    d051        Q.      BEQ      0x295a ; Process_Received_Settings + 3590
        0x000028b6:    a175        u.      ADR      r1,{pc}+0x1d6 ; 0x2a8c
        0x000028b8:    482f        /H      LDR      r0,[pc,#188] ; [0x2978] = 0x20003a51
        0x000028ba:    f7fdfd18    ....    BL       strstr ; 0x2ee
        0x000028be:    b120         .      CBZ      r0,0x28ca ; Process_Received_Settings + 3446
        0x000028c0:    482d        -H      LDR      r0,[pc,#180] ; [0x2978] = 0x20003a51
        0x000028c2:    f7fdfd32    ..2.    BL       strlen ; 0x32a
        0x000028c6:    280c        .(      CMP      r0,#0xc
        0x000028c8:    d048        H.      BEQ      0x295c ; Process_Received_Settings + 3592
        0x000028ca:    a173        s.      ADR      r1,{pc}+0x1ce ; 0x2a98
        0x000028cc:    482a        *H      LDR      r0,[pc,#168] ; [0x2978] = 0x20003a51
        0x000028ce:    f7fdfd0e    ....    BL       strstr ; 0x2ee
        0x000028d2:    b120         .      CBZ      r0,0x28de ; Process_Received_Settings + 3466
        0x000028d4:    4828        (H      LDR      r0,[pc,#160] ; [0x2978] = 0x20003a51
        0x000028d6:    f7fdfd28    ..(.    BL       strlen ; 0x32a
        0x000028da:    280c        .(      CMP      r0,#0xc
        0x000028dc:    d03f        ?.      BEQ      0x295e ; Process_Received_Settings + 3594
        0x000028de:    a171        q.      ADR      r1,{pc}+0x1c6 ; 0x2aa4
        0x000028e0:    4825        %H      LDR      r0,[pc,#148] ; [0x2978] = 0x20003a51
        0x000028e2:    f7fdfd04    ....    BL       strstr ; 0x2ee
        0x000028e6:    b120         .      CBZ      r0,0x28f2 ; Process_Received_Settings + 3486
        0x000028e8:    4823        #H      LDR      r0,[pc,#140] ; [0x2978] = 0x20003a51
        0x000028ea:    f7fdfd1e    ....    BL       strlen ; 0x32a
        0x000028ee:    280c        .(      CMP      r0,#0xc
        0x000028f0:    d036        6.      BEQ      0x2960 ; Process_Received_Settings + 3596
        0x000028f2:    a16f        o.      ADR      r1,{pc}+0x1be ; 0x2ab0
        0x000028f4:    4820         H      LDR      r0,[pc,#128] ; [0x2978] = 0x20003a51
        0x000028f6:    f7fdfcfa    ....    BL       strstr ; 0x2ee
        0x000028fa:    b120         .      CBZ      r0,0x2906 ; Process_Received_Settings + 3506
        0x000028fc:    481e        .H      LDR      r0,[pc,#120] ; [0x2978] = 0x20003a51
        0x000028fe:    f7fdfd14    ....    BL       strlen ; 0x32a
        0x00002902:    280c        .(      CMP      r0,#0xc
        0x00002904:    d02d        -.      BEQ      0x2962 ; Process_Received_Settings + 3598
        0x00002906:    a16d        m.      ADR      r1,{pc}+0x1b6 ; 0x2abc
        0x00002908:    481b        .H      LDR      r0,[pc,#108] ; [0x2978] = 0x20003a51
        0x0000290a:    f7fdfcf0    ....    BL       strstr ; 0x2ee
        0x0000290e:    b120         .      CBZ      r0,0x291a ; Process_Received_Settings + 3526
        0x00002910:    4819        .H      LDR      r0,[pc,#100] ; [0x2978] = 0x20003a51
        0x00002912:    f7fdfd0a    ....    BL       strlen ; 0x32a
        0x00002916:    280a        .(      CMP      r0,#0xa
        0x00002918:    d024        $.      BEQ      0x2964 ; Process_Received_Settings + 3600
        0x0000291a:    a16a        j.      ADR      r1,{pc}+0x1aa ; 0x2ac4
        0x0000291c:    4816        .H      LDR      r0,[pc,#88] ; [0x2978] = 0x20003a51
        0x0000291e:    f7fdfce6    ....    BL       strstr ; 0x2ee
        0x00002922:    b130        0.      CBZ      r0,0x2932 ; Process_Received_Settings + 3550
        0x00002924:    4814        .H      LDR      r0,[pc,#80] ; [0x2978] = 0x20003a51
        0x00002926:    e000        ..      B        0x292a ; Process_Received_Settings + 3542
        0x00002928:    e21f        ..      B        0x2d6a ; Process_Received_Settings + 4630
        0x0000292a:    f7fdfcfe    ....    BL       strlen ; 0x32a
        0x0000292e:    280c        .(      CMP      r0,#0xc
        0x00002930:    d019        ..      BEQ      0x2966 ; Process_Received_Settings + 3602
        0x00002932:    a166        f.      ADR      r1,{pc}+0x19a ; 0x2acc
        0x00002934:    4810        .H      LDR      r0,[pc,#64] ; [0x2978] = 0x20003a51
        0x00002936:    f7fdfcda    ....    BL       strstr ; 0x2ee
        0x0000293a:    b120         .      CBZ      r0,0x2946 ; Process_Received_Settings + 3570
        0x0000293c:    480e        .H      LDR      r0,[pc,#56] ; [0x2978] = 0x20003a51
        0x0000293e:    f7fdfcf4    ....    BL       strlen ; 0x32a
        0x00002942:    280c        .(      CMP      r0,#0xc
        0x00002944:    d010        ..      BEQ      0x2968 ; Process_Received_Settings + 3604
        0x00002946:    a163        c.      ADR      r1,{pc}+0x18e ; 0x2ad4
        0x00002948:    480b        .H      LDR      r0,[pc,#44] ; [0x2978] = 0x20003a51
        0x0000294a:    f7fdfcd0    ....    BL       strstr ; 0x2ee
        0x0000294e:    f04f0b0a    O...    MOV      r11,#0xa
        0x00002952:    2800        .(      CMP      r0,#0
        0x00002954:    e0c2        ..      B        0x2adc ; Process_Received_Settings + 3976
        0x00002956:    e163        c.      B        0x2c20 ; Process_Received_Settings + 4300
        0x00002958:    e0c5        ..      B        0x2ae6 ; Process_Received_Settings + 3986
        0x0000295a:    e0e5        ..      B        0x2b28 ; Process_Received_Settings + 4052
        0x0000295c:    e105        ..      B        0x2b6a ; Process_Received_Settings + 4118
        0x0000295e:    e125        %.      B        0x2bac ; Process_Received_Settings + 4184
        0x00002960:    e147        G.      B        0x2bf2 ; Process_Received_Settings + 4254
        0x00002962:    e169        i.      B        0x2c38 ; Process_Received_Settings + 4324
        0x00002964:    e189        ..      B        0x2c7a ; Process_Received_Settings + 4390
        0x00002966:    e1a4        ..      B        0x2cb2 ; Process_Received_Settings + 4446
        0x00002968:    e1d1        ..      B        0x2d0e ; Process_Received_Settings + 4538
    $d
        0x0000296a:    0000        ..      DCW    0
        0x0000296c:    64726373    scrd    DCD    1685218163
        0x00002970:    79616c65    elay    DCD    2036427877
        0x00002974:    0000666f    of..    DCD    26223
        0x00002978:    20003a51    Q:.     DCD    536885841
        0x0000297c:    65727264    drre    DCD    1701999204
        0x00002980:    72617473    star    DCD    1918989427
        0x00002984:    00000074    t...    DCD    116
        0x00002988:    6c637963    cycl    DCD    1818458467
        0x0000298c:    69746369    icti    DCD    1769235305
        0x00002990:    6f6e6f6d    mono    DCD    1869508461
        0x00002994:    00000066    f...    DCD    102
        0x00002998:    6c637963    cycl    DCD    1818458467
        0x0000299c:    6e6f6369    icon    DCD    1852793705
        0x000029a0:    00000000    ....    DCD    0
        0x000029a4:    6c637963    cycl    DCD    1818458467
        0x000029a8:    666f6369    icof    DCD    1718575977
        0x000029ac:    00000000    ....    DCD    0
        0x000029b0:    65726c6f    olre    DCD    1701997679
        0x000029b4:    72617473    star    DCD    1918989427
        0x000029b8:    6c6f7674    tvol    DCD    1819244148
        0x000029bc:    00000074    t...    DCD    116
        0x000029c0:    65726c6f    olre    DCD    1701997679
        0x000029c4:    72617473    star    DCD    1918989427
        0x000029c8:    6c6f7674    tvol    DCD    1819244148
        0x000029cc:    006e6f74    ton.    DCD    7237492
        0x000029d0:    65726c6f    olre    DCD    1701997679
        0x000029d4:    72617473    star    DCD    1918989427
        0x000029d8:    6c6f7674    tvol    DCD    1819244148
        0x000029dc:    00666f74    tof.    DCD    6713204
        0x000029e0:    65727264    drre    DCD    1701999204
        0x000029e4:    72617473    star    DCD    1918989427
        0x000029e8:    006e6f74    ton.    DCD    7237492
        0x000029ec:    65727264    drre    DCD    1701999204
        0x000029f0:    72617473    star    DCD    1918989427
        0x000029f4:    00666f74    tof.    DCD    6713204
        0x000029f8:    736c6f76    vols    DCD    1936486262
        0x000029fc:    6e6f7070    ppon    DCD    1852797040
        0x00002a00:    00000000    ....    DCD    0
        0x00002a04:    736c6f76    vols    DCD    1936486262
        0x00002a08:    666f7070    ppof    DCD    1718579312
        0x00002a0c:    00000000    ....    DCD    0
        0x00002a10:    72727563    curr    DCD    1920103779
        0x00002a14:    73746e65    ents    DCD    1937010277
        0x00002a18:    6e6f7070    ppon    DCD    1852797040
        0x00002a1c:    00000000    ....    DCD    0
        0x00002a20:    72727563    curr    DCD    1920103779
        0x00002a24:    73746e65    ents    DCD    1937010277
        0x00002a28:    666f7070    ppof    DCD    1718579312
        0x00002a2c:    00000000    ....    DCD    0
        0x00002a30:    65766572    reve    DCD    1702258034
        0x00002a34:    70657372    rsep    DCD    1885696882
        0x00002a38:    65736168    hase    DCD    1702060392
        0x00002a3c:    00006e6f    on..    DCD    28271
        0x00002a40:    65766572    reve    DCD    1702258034
        0x00002a44:    70657372    rsep    DCD    1885696882
        0x00002a48:    65736168    hase    DCD    1702060392
        0x00002a4c:    0000666f    of..    DCD    26223
        0x00002a50:    636f7264    droc    DCD    1668248164
        0x00002a54:    74727563    curt    DCD    1953658211
        0x00002a58:    00006d69    im..    DCD    28009
        0x00002a5c:    636f7264    droc    DCD    1668248164
        0x00002a60:    6f727563    curo    DCD    1869772131
        0x00002a64:    0000006e    n...    DCD    110
        0x00002a68:    636f7264    droc    DCD    1668248164
        0x00002a6c:    6f727563    curo    DCD    1869772131
        0x00002a70:    00000066    f...    DCD    102
        0x00002a74:    76776f6c    lowv    DCD    1987538796
        0x00002a78:    32746c6f    olt2    DCD    846490735
        0x00002a7c:    00000000    ....    DCD    0
        0x00002a80:    76776f6c    lowv    DCD    1987538796
        0x00002a84:    33746c6f    olt3    DCD    863267951
        0x00002a88:    00000000    ....    DCD    0
        0x00002a8c:    68676968    high    DCD    1751607656
        0x00002a90:    746c6f76    volt    DCD    1953263478
        0x00002a94:    00000032    2...    DCD    50
        0x00002a98:    68676968    high    DCD    1751607656
        0x00002a9c:    746c6f76    volt    DCD    1953263478
        0x00002aa0:    00000033    3...    DCD    51
        0x00002aa4:    66666964    diff    DCD    1717987684
        0x00002aa8:    746c6f76    volt    DCD    1953263478
        0x00002aac:    00000032    2...    DCD    50
        0x00002ab0:    66666964    diff    DCD    1717987684
        0x00002ab4:    746c6f76    volt    DCD    1953263478
        0x00002ab8:    00000033    3...    DCD    51
        0x00002abc:    76626d69    imbv    DCD    1986162025
        0x00002ac0:    00746c6f    olt.    DCD    7629935
        0x00002ac4:    63737264    drsc    DCD    1668510308
        0x00002ac8:    00006e61    an..    DCD    28257
        0x00002acc:    63736c6f    olsc    DCD    1668508783
        0x00002ad0:    00006e61    an..    DCD    28257
        0x00002ad4:    6f626673    sfbo    DCD    1868719731
        0x00002ad8:    0000006e    n...    DCD    110
    $t
        0x00002adc:    d07d        }.      BEQ      0x2bda ; Process_Received_Settings + 4230
        0x00002ade:    f000feef    ....    BL       ReadSettingsFile ; 0x38c0
        0x00002ae2:    7075        up      STRB     r5,[r6,#1]
        0x00002ae4:    e14b        K.      B        0x2d7e ; Process_Received_Settings + 4650
        0x00002ae6:    f001f817    ....    BL       ReadTimerSettings ; 0x3b18
        0x00002aea:    f8991009    ....    LDRB     r1,[r9,#9]
        0x00002aee:    f8992008    ...     LDRB     r2,[r9,#8]
        0x00002af2:    3930        09      SUBS     r1,r1,#0x30
        0x00002af4:    b289        ..      UXTH     r1,r1
        0x00002af6:    f8aa1006    ....    STRH     r1,[r10,#6]
        0x00002afa:    f899000a    ....    LDRB     r0,[r9,#0xa]
        0x00002afe:    2364        d#      MOVS     r3,#0x64
        0x00002b00:    3830        08      SUBS     r0,r0,#0x30
        0x00002b02:    b280        ..      UXTH     r0,r0
        0x00002b04:    f8aa000c    ....    STRH     r0,[r10,#0xc]
        0x00002b08:    3a30        0:      SUBS     r2,r2,#0x30
        0x00002b0a:    fb12f203    ....    SMULBB   r2,r2,r3
        0x00002b0e:    eb010181    ....    ADD      r1,r1,r1,LSL #2
        0x00002b12:    eb020141    ..A.    ADD      r1,r2,r1,LSL #1
        0x00002b16:    4408        .D      ADD      r0,r0,r1
        0x00002b18:    64f8        .d      STR      r0,[r7,#0x4c]
        0x00002b1a:    f002f995    ....    BL       WriteTimerSettings ; 0x4e48
        0x00002b1e:    7c70        p|      LDRB     r0,[r6,#0x11]
        0x00002b20:    2801        .(      CMP      r0,#1
        0x00002b22:    d17d        }.      BNE      0x2c20 ; Process_Received_Settings + 4300
        0x00002b24:    2032        2       MOVS     r0,#0x32
        0x00002b26:    e120         .      B        0x2d6a ; Process_Received_Settings + 4630
        0x00002b28:    f000fff6    ....    BL       ReadTimerSettings ; 0x3b18
        0x00002b2c:    f8991009    ....    LDRB     r1,[r9,#9]
        0x00002b30:    f8992008    ...     LDRB     r2,[r9,#8]
        0x00002b34:    3930        09      SUBS     r1,r1,#0x30
        0x00002b36:    b289        ..      UXTH     r1,r1
        0x00002b38:    f8aa1006    ....    STRH     r1,[r10,#6]
        0x00002b3c:    f899000a    ....    LDRB     r0,[r9,#0xa]
        0x00002b40:    2364        d#      MOVS     r3,#0x64
        0x00002b42:    3830        08      SUBS     r0,r0,#0x30
        0x00002b44:    b280        ..      UXTH     r0,r0
        0x00002b46:    f8aa000c    ....    STRH     r0,[r10,#0xc]
        0x00002b4a:    3a30        0:      SUBS     r2,r2,#0x30
        0x00002b4c:    fb12f203    ....    SMULBB   r2,r2,r3
        0x00002b50:    eb010181    ....    ADD      r1,r1,r1,LSL #2
        0x00002b54:    eb020141    ..A.    ADD      r1,r2,r1,LSL #1
        0x00002b58:    4408        .D      ADD      r0,r0,r1
        0x00002b5a:    6538        8e      STR      r0,[r7,#0x50]
        0x00002b5c:    f002f974    ..t.    BL       WriteTimerSettings ; 0x4e48
        0x00002b60:    7c70        p|      LDRB     r0,[r6,#0x11]
        0x00002b62:    2801        .(      CMP      r0,#1
        0x00002b64:    d1dd        ..      BNE      0x2b22 ; Process_Received_Settings + 4046
        0x00002b66:    2033        3       MOVS     r0,#0x33
        0x00002b68:    e0ff        ..      B        0x2d6a ; Process_Received_Settings + 4630
        0x00002b6a:    f000ffd5    ....    BL       ReadTimerSettings ; 0x3b18
        0x00002b6e:    f899100a    ....    LDRB     r1,[r9,#0xa]
        0x00002b72:    f8992009    ...     LDRB     r2,[r9,#9]
        0x00002b76:    3930        09      SUBS     r1,r1,#0x30
        0x00002b78:    b289        ..      UXTH     r1,r1
        0x00002b7a:    f8aa1006    ....    STRH     r1,[r10,#6]
        0x00002b7e:    f899000b    ....    LDRB     r0,[r9,#0xb]
        0x00002b82:    2364        d#      MOVS     r3,#0x64
        0x00002b84:    3830        08      SUBS     r0,r0,#0x30
        0x00002b86:    b280        ..      UXTH     r0,r0
        0x00002b88:    f8aa000c    ....    STRH     r0,[r10,#0xc]
        0x00002b8c:    3a30        0:      SUBS     r2,r2,#0x30
        0x00002b8e:    fb12f203    ....    SMULBB   r2,r2,r3
        0x00002b92:    eb010181    ....    ADD      r1,r1,r1,LSL #2
        0x00002b96:    eb020141    ..A.    ADD      r1,r2,r1,LSL #1
        0x00002b9a:    4408        .D      ADD      r0,r0,r1
        0x00002b9c:    65b8        .e      STR      r0,[r7,#0x58]
        0x00002b9e:    f002f953    ..S.    BL       WriteTimerSettings ; 0x4e48
        0x00002ba2:    7c70        p|      LDRB     r0,[r6,#0x11]
        0x00002ba4:    2801        .(      CMP      r0,#1
        0x00002ba6:    d1bc        ..      BNE      0x2b22 ; Process_Received_Settings + 4046
        0x00002ba8:    2035        5       MOVS     r0,#0x35
        0x00002baa:    e0de        ..      B        0x2d6a ; Process_Received_Settings + 4630
        0x00002bac:    f000ffb4    ....    BL       ReadTimerSettings ; 0x3b18
        0x00002bb0:    f899100a    ....    LDRB     r1,[r9,#0xa]
        0x00002bb4:    f8992009    ...     LDRB     r2,[r9,#9]
        0x00002bb8:    3930        09      SUBS     r1,r1,#0x30
        0x00002bba:    b289        ..      UXTH     r1,r1
        0x00002bbc:    f8aa1006    ....    STRH     r1,[r10,#6]
        0x00002bc0:    f899000b    ....    LDRB     r0,[r9,#0xb]
        0x00002bc4:    2364        d#      MOVS     r3,#0x64
        0x00002bc6:    3830        08      SUBS     r0,r0,#0x30
        0x00002bc8:    b280        ..      UXTH     r0,r0
        0x00002bca:    f8aa000c    ....    STRH     r0,[r10,#0xc]
        0x00002bce:    3a30        0:      SUBS     r2,r2,#0x30
        0x00002bd0:    fb12f203    ....    SMULBB   r2,r2,r3
        0x00002bd4:    eb010181    ....    ADD      r1,r1,r1,LSL #2
        0x00002bd8:    e000        ..      B        0x2bdc ; Process_Received_Settings + 4232
        0x00002bda:    e0c7        ..      B        0x2d6c ; Process_Received_Settings + 4632
        0x00002bdc:    eb020141    ..A.    ADD      r1,r2,r1,LSL #1
        0x00002be0:    4408        .D      ADD      r0,r0,r1
        0x00002be2:    65f8        .e      STR      r0,[r7,#0x5c]
        0x00002be4:    f002f930    ..0.    BL       WriteTimerSettings ; 0x4e48
        0x00002be8:    7c70        p|      LDRB     r0,[r6,#0x11]
        0x00002bea:    2801        .(      CMP      r0,#1
        0x00002bec:    d199        ..      BNE      0x2b22 ; Process_Received_Settings + 4046
        0x00002bee:    2036        6       MOVS     r0,#0x36
        0x00002bf0:    e0bb        ..      B        0x2d6a ; Process_Received_Settings + 4630
        0x00002bf2:    f000ff91    ....    BL       ReadTimerSettings ; 0x3b18
        0x00002bf6:    f899100a    ....    LDRB     r1,[r9,#0xa]
        0x00002bfa:    f8992009    ...     LDRB     r2,[r9,#9]
        0x00002bfe:    3930        09      SUBS     r1,r1,#0x30
        0x00002c00:    b289        ..      UXTH     r1,r1
        0x00002c02:    f8aa1006    ....    STRH     r1,[r10,#6]
        0x00002c06:    f899000b    ....    LDRB     r0,[r9,#0xb]
        0x00002c0a:    2364        d#      MOVS     r3,#0x64
        0x00002c0c:    3830        08      SUBS     r0,r0,#0x30
        0x00002c0e:    b280        ..      UXTH     r0,r0
        0x00002c10:    f8aa000c    ....    STRH     r0,[r10,#0xc]
        0x00002c14:    3a30        0:      SUBS     r2,r2,#0x30
        0x00002c16:    fb12f203    ....    SMULBB   r2,r2,r3
        0x00002c1a:    eb010181    ....    ADD      r1,r1,r1,LSL #2
        0x00002c1e:    e000        ..      B        0x2c22 ; Process_Received_Settings + 4302
        0x00002c20:    e201        ..      B        0x3026 ; Process_Received_Settings + 5330
        0x00002c22:    eb020141    ..A.    ADD      r1,r2,r1,LSL #1
        0x00002c26:    4408        .D      ADD      r0,r0,r1
        0x00002c28:    6638        8f      STR      r0,[r7,#0x60]
        0x00002c2a:    f002f90d    ....    BL       WriteTimerSettings ; 0x4e48
        0x00002c2e:    7c70        p|      LDRB     r0,[r6,#0x11]
        0x00002c30:    2801        .(      CMP      r0,#1
        0x00002c32:    d197        ..      BNE      0x2b64 ; Process_Received_Settings + 4112
        0x00002c34:    2053        S       MOVS     r0,#0x53
        0x00002c36:    e098        ..      B        0x2d6a ; Process_Received_Settings + 4630
        0x00002c38:    f000ff6e    ..n.    BL       ReadTimerSettings ; 0x3b18
        0x00002c3c:    f899000a    ....    LDRB     r0,[r9,#0xa]
        0x00002c40:    f8992009    ...     LDRB     r2,[r9,#9]
        0x00002c44:    3830        08      SUBS     r0,r0,#0x30
        0x00002c46:    b280        ..      UXTH     r0,r0
        0x00002c48:    f8aa0006    ....    STRH     r0,[r10,#6]
        0x00002c4c:    f899100b    ....    LDRB     r1,[r9,#0xb]
        0x00002c50:    2364        d#      MOVS     r3,#0x64
        0x00002c52:    3930        09      SUBS     r1,r1,#0x30
        0x00002c54:    b289        ..      UXTH     r1,r1
        0x00002c56:    f8aa100c    ....    STRH     r1,[r10,#0xc]
        0x00002c5a:    3a30        0:      SUBS     r2,r2,#0x30
        0x00002c5c:    fb12f203    ....    SMULBB   r2,r2,r3
        0x00002c60:    eb000080    ....    ADD      r0,r0,r0,LSL #2
        0x00002c64:    eb020040    ..@.    ADD      r0,r2,r0,LSL #1
        0x00002c68:    4408        .D      ADD      r0,r0,r1
        0x00002c6a:    6678        xf      STR      r0,[r7,#0x64]
        0x00002c6c:    f002f8ec    ....    BL       WriteTimerSettings ; 0x4e48
        0x00002c70:    7c70        p|      LDRB     r0,[r6,#0x11]
        0x00002c72:    2801        .(      CMP      r0,#1
        0x00002c74:    d197        ..      BNE      0x2ba6 ; Process_Received_Settings + 4178
        0x00002c76:    2054        T       MOVS     r0,#0x54
        0x00002c78:    e077        w.      B        0x2d6a ; Process_Received_Settings + 4630
        0x00002c7a:    f000ff4d    ..M.    BL       ReadTimerSettings ; 0x3b18
        0x00002c7e:    f8990008    ....    LDRB     r0,[r9,#8]
        0x00002c82:    f8992007    ...     LDRB     r2,[r9,#7]
        0x00002c86:    3830        08      SUBS     r0,r0,#0x30
        0x00002c88:    b280        ..      UXTH     r0,r0
        0x00002c8a:    f8aa0006    ....    STRH     r0,[r10,#6]
        0x00002c8e:    f8991009    ....    LDRB     r1,[r9,#9]
        0x00002c92:    2364        d#      MOVS     r3,#0x64
        0x00002c94:    3930        09      SUBS     r1,r1,#0x30
        0x00002c96:    b289        ..      UXTH     r1,r1
        0x00002c98:    f8aa100c    ....    STRH     r1,[r10,#0xc]
        0x00002c9c:    3a30        0:      SUBS     r2,r2,#0x30
        0x00002c9e:    fb12f203    ....    SMULBB   r2,r2,r3
        0x00002ca2:    eb000080    ....    ADD      r0,r0,r0,LSL #2
        0x00002ca6:    eb020040    ..@.    ADD      r0,r2,r0,LSL #1
        0x00002caa:    4408        .D      ADD      r0,r0,r1
        0x00002cac:    e318        ..      B        0x32e0 ; Process_Received_Settings + 6028
        0x00002cae:    2037        7       MOVS     r0,#0x37
        0x00002cb0:    e05b        [.      B        0x2d6a ; Process_Received_Settings + 4630
        0x00002cb2:    f000ff31    ..1.    BL       ReadTimerSettings ; 0x3b18
        0x00002cb6:    f8991006    ....    LDRB     r1,[r9,#6]
        0x00002cba:    f8993007    ...0    LDRB     r3,[r9,#7]
        0x00002cbe:    3930        09      SUBS     r1,r1,#0x30
        0x00002cc0:    eb010181    ....    ADD      r1,r1,r1,LSL #2
        0x00002cc4:    3b30        0;      SUBS     r3,r3,#0x30
        0x00002cc6:    eb030141    ..A.    ADD      r1,r3,r1,LSL #1
        0x00002cca:    7439        9t      STRB     r1,[r7,#0x10]
        0x00002ccc:    f8991008    ....    LDRB     r1,[r9,#8]
        0x00002cd0:    f8993009    ...0    LDRB     r3,[r9,#9]
        0x00002cd4:    3930        09      SUBS     r1,r1,#0x30
        0x00002cd6:    eb010181    ....    ADD      r1,r1,r1,LSL #2
        0x00002cda:    3b30        0;      SUBS     r3,r3,#0x30
        0x00002cdc:    eb030141    ..A.    ADD      r1,r3,r1,LSL #1
        0x00002ce0:    7479        yt      STRB     r1,[r7,#0x11]
        0x00002ce2:    f899100a    ....    LDRB     r1,[r9,#0xa]
        0x00002ce6:    3930        09      SUBS     r1,r1,#0x30
        0x00002ce8:    f8aa1006    ....    STRH     r1,[r10,#6]
        0x00002cec:    f899000b    ....    LDRB     r0,[r9,#0xb]
        0x00002cf0:    eb010181    ....    ADD      r1,r1,r1,LSL #2
        0x00002cf4:    3830        08      SUBS     r0,r0,#0x30
        0x00002cf6:    f8aa000c    ....    STRH     r0,[r10,#0xc]
        0x00002cfa:    eb000041    ..A.    ADD      r0,r0,r1,LSL #1
        0x00002cfe:    74b8        .t      STRB     r0,[r7,#0x12]
        0x00002d00:    f002f8a2    ....    BL       WriteTimerSettings ; 0x4e48
        0x00002d04:    7c70        p|      LDRB     r0,[r6,#0x11]
        0x00002d06:    2801        .(      CMP      r0,#1
        0x00002d08:    d193        ..      BNE      0x2c32 ; Process_Received_Settings + 4318
        0x00002d0a:    2019        .       MOVS     r0,#0x19
        0x00002d0c:    e3f4        ..      B        0x34f8 ; Process_Received_Settings + 6564
        0x00002d0e:    f000ff03    ....    BL       ReadTimerSettings ; 0x3b18
        0x00002d12:    f8991006    ....    LDRB     r1,[r9,#6]
        0x00002d16:    f8993007    ...0    LDRB     r3,[r9,#7]
        0x00002d1a:    3930        09      SUBS     r1,r1,#0x30
        0x00002d1c:    eb010181    ....    ADD      r1,r1,r1,LSL #2
        0x00002d20:    3b30        0;      SUBS     r3,r3,#0x30
        0x00002d22:    eb030141    ..A.    ADD      r1,r3,r1,LSL #1
        0x00002d26:    f8071fcc    ....    STRB     r1,[r7,#0xcc]!
        0x00002d2a:    f8991008    ....    LDRB     r1,[r9,#8]
        0x00002d2e:    f8993009    ...0    LDRB     r3,[r9,#9]
        0x00002d32:    3930        09      SUBS     r1,r1,#0x30
        0x00002d34:    eb010181    ....    ADD      r1,r1,r1,LSL #2
        0x00002d38:    3b30        0;      SUBS     r3,r3,#0x30
        0x00002d3a:    eb030141    ..A.    ADD      r1,r3,r1,LSL #1
        0x00002d3e:    7079        yp      STRB     r1,[r7,#1]
        0x00002d40:    f899100a    ....    LDRB     r1,[r9,#0xa]
        0x00002d44:    3930        09      SUBS     r1,r1,#0x30
        0x00002d46:    f8aa1006    ....    STRH     r1,[r10,#6]
        0x00002d4a:    f899000b    ....    LDRB     r0,[r9,#0xb]
        0x00002d4e:    eb010181    ....    ADD      r1,r1,r1,LSL #2
        0x00002d52:    3830        08      SUBS     r0,r0,#0x30
        0x00002d54:    f8aa000c    ....    STRH     r0,[r10,#0xc]
        0x00002d58:    eb000041    ..A.    ADD      r0,r0,r1,LSL #1
        0x00002d5c:    70b8        .p      STRB     r0,[r7,#2]
        0x00002d5e:    f002f873    ..s.    BL       WriteTimerSettings ; 0x4e48
        0x00002d62:    7c70        p|      LDRB     r0,[r6,#0x11]
        0x00002d64:    2801        .(      CMP      r0,#1
        0x00002d66:    d185        ..      BNE      0x2c74 ; Process_Received_Settings + 4384
        0x00002d68:    2047        G       MOVS     r0,#0x47
        0x00002d6a:    e3c5        ..      B        0x34f8 ; Process_Received_Settings + 6564
        0x00002d6c:    a1fc        ..      ADR      r1,{pc}+0x3f4 ; 0x3160
        0x00002d6e:    48fe        .H      LDR      r0,[pc,#1016] ; [0x3168] = 0x20003a51
        0x00002d70:    f7fdfabd    ....    BL       strstr ; 0x2ee
        0x00002d74:    b148        H.      CBZ      r0,0x2d8a ; Process_Received_Settings + 4662
        0x00002d76:    f000fda3    ....    BL       ReadSettingsFile ; 0x38c0
        0x00002d7a:    f8868001    ....    STRB     r8,[r6,#1]
        0x00002d7e:    f001ff2f    ../.    BL       WriteSettingsFile ; 0x4be0
        0x00002d82:    7c70        p|      LDRB     r0,[r6,#0x11]
        0x00002d84:    2801        .(      CMP      r0,#1
        0x00002d86:    d076        v.      BEQ      0x2e76 ; Process_Received_Settings + 4898
        0x00002d88:    e28a        ..      B        0x32a0 ; Process_Received_Settings + 5964
        0x00002d8a:    a1f8        ..      ADR      r1,{pc}+0x3e2 ; 0x316c
        0x00002d8c:    48f6        .H      LDR      r0,[pc,#984] ; [0x3168] = 0x20003a51
        0x00002d8e:    f7fdfaae    ....    BL       strstr ; 0x2ee
        0x00002d92:    f04f0b4c    O.L.    MOV      r11,#0x4c
        0x00002d96:    b120         .      CBZ      r0,0x2da2 ; Process_Received_Settings + 4686
        0x00002d98:    f000fd92    ....    BL       ReadSettingsFile ; 0x38c0
        0x00002d9c:    f88750d3    ...P    STRB     r5,[r7,#0xd3]
        0x00002da0:    e7ed        ..      B        0x2d7e ; Process_Received_Settings + 4650
        0x00002da2:    a1f5        ..      ADR      r1,{pc}+0x3d6 ; 0x3178
        0x00002da4:    48f0        .H      LDR      r0,[pc,#960] ; [0x3168] = 0x20003a51
        0x00002da6:    f7fdfaa2    ....    BL       strstr ; 0x2ee
        0x00002daa:    b120         .      CBZ      r0,0x2db6 ; Process_Received_Settings + 4706
        0x00002dac:    f000fd88    ....    BL       ReadSettingsFile ; 0x38c0
        0x00002db0:    f88780d3    ....    STRB     r8,[r7,#0xd3]
        0x00002db4:    e7e3        ..      B        0x2d7e ; Process_Received_Settings + 4650
        0x00002db6:    a1f3        ..      ADR      r1,{pc}+0x3ce ; 0x3184
        0x00002db8:    48eb        .H      LDR      r0,[pc,#940] ; [0x3168] = 0x20003a51
        0x00002dba:    f7fdfa98    ....    BL       strstr ; 0x2ee
        0x00002dbe:    f04f0b0e    O...    MOV      r11,#0xe
        0x00002dc2:    b130        0.      CBZ      r0,0x2dd2 ; Process_Received_Settings + 4734
        0x00002dc4:    f000fd7c    ..|.    BL       ReadSettingsFile ; 0x38c0
        0x00002dc8:    7135        5q      STRB     r5,[r6,#4]
        0x00002dca:    e00b        ..      B        0x2de4 ; Process_Received_Settings + 4752
        0x00002dcc:    f884b000    ....    STRB     r11,[r4,#0]
        0x00002dd0:    e0ea        ..      B        0x2fa8 ; Process_Received_Settings + 5204
        0x00002dd2:    a1ee        ..      ADR      r1,{pc}+0x3ba ; 0x318c
        0x00002dd4:    48e4        .H      LDR      r0,[pc,#912] ; [0x3168] = 0x20003a51
        0x00002dd6:    f7fdfa8a    ....    BL       strstr ; 0x2ee
        0x00002dda:    b140        @.      CBZ      r0,0x2dee ; Process_Received_Settings + 4762
        0x00002ddc:    f000fd70    ..p.    BL       ReadSettingsFile ; 0x38c0
        0x00002de0:    f8868004    ....    STRB     r8,[r6,#4]
        0x00002de4:    f001fefc    ....    BL       WriteSettingsFile ; 0x4be0
        0x00002de8:    f000fd6a    ..j.    BL       ReadSettingsFile ; 0x38c0
        0x00002dec:    e035        5.      B        0x2e5a ; Process_Received_Settings + 4870
        0x00002dee:    a1e9        ..      ADR      r1,{pc}+0x3a6 ; 0x3194
        0x00002df0:    48dd        .H      LDR      r0,[pc,#884] ; [0x3168] = 0x20003a51
        0x00002df2:    f7fdfa7c    ..|.    BL       strstr ; 0x2ee
        0x00002df6:    f04f0b0d    O...    MOV      r11,#0xd
        0x00002dfa:    b118        ..      CBZ      r0,0x2e04 ; Process_Received_Settings + 4784
        0x00002dfc:    f000fd60    ..`.    BL       ReadSettingsFile ; 0x38c0
        0x00002e00:    70f5        .p      STRB     r5,[r6,#3]
        0x00002e02:    e7ef        ..      B        0x2de4 ; Process_Received_Settings + 4752
        0x00002e04:    a1e5        ..      ADR      r1,{pc}+0x398 ; 0x319c
        0x00002e06:    48d8        .H      LDR      r0,[pc,#864] ; [0x3168] = 0x20003a51
        0x00002e08:    f7fdfa71    ..q.    BL       strstr ; 0x2ee
        0x00002e0c:    b120         .      CBZ      r0,0x2e18 ; Process_Received_Settings + 4804
        0x00002e0e:    f000fd57    ..W.    BL       ReadSettingsFile ; 0x38c0
        0x00002e12:    f8868003    ....    STRB     r8,[r6,#3]
        0x00002e16:    e7e5        ..      B        0x2de4 ; Process_Received_Settings + 4752
        0x00002e18:    a1e2        ..      ADR      r1,{pc}+0x38c ; 0x31a4
        0x00002e1a:    48d3        .H      LDR      r0,[pc,#844] ; [0x3168] = 0x20003a51
        0x00002e1c:    f7fdfa67    ..g.    BL       strstr ; 0x2ee
        0x00002e20:    b168        h.      CBZ      r0,0x2e3e ; Process_Received_Settings + 4842
        0x00002e22:    f000fd4d    ..M.    BL       ReadSettingsFile ; 0x38c0
        0x00002e26:    f886800d    ....    STRB     r8,[r6,#0xd]
        0x00002e2a:    f001fed9    ....    BL       WriteSettingsFile ; 0x4be0
        0x00002e2e:    f000fd47    ..G.    BL       ReadSettingsFile ; 0x38c0
        0x00002e32:    7c70        p|      LDRB     r0,[r6,#0x11]
        0x00002e34:    2801        .(      CMP      r0,#1
        0x00002e36:    d113        ..      BNE      0x2e60 ; Process_Received_Settings + 4876
        0x00002e38:    2012        .       MOVS     r0,#0x12
        0x00002e3a:    7020         p      STRB     r0,[r4,#0]
        0x00002e3c:    e0b4        ..      B        0x2fa8 ; Process_Received_Settings + 5204
        0x00002e3e:    a1db        ..      ADR      r1,{pc}+0x36e ; 0x31ac
        0x00002e40:    48c9        .H      LDR      r0,[pc,#804] ; [0x3168] = 0x20003a51
        0x00002e42:    f7fdfa54    ..T.    BL       strstr ; 0x2ee
        0x00002e46:    f04f0b11    O...    MOV      r11,#0x11
        0x00002e4a:    b150        P.      CBZ      r0,0x2e62 ; Process_Received_Settings + 4878
        0x00002e4c:    f000fd38    ..8.    BL       ReadSettingsFile ; 0x38c0
        0x00002e50:    71f5        .q      STRB     r5,[r6,#7]
        0x00002e52:    f000fd35    ..5.    BL       ReadSettingsFile ; 0x38c0
        0x00002e56:    f001fec3    ....    BL       WriteSettingsFile ; 0x4be0
        0x00002e5a:    7c70        p|      LDRB     r0,[r6,#0x11]
        0x00002e5c:    2801        .(      CMP      r0,#1
        0x00002e5e:    d0b5        ..      BEQ      0x2dcc ; Process_Received_Settings + 4728
        0x00002e60:    e3eb        ..      B        0x363a ; Process_Received_Settings + 6886
        0x00002e62:    a1d4        ..      ADR      r1,{pc}+0x352 ; 0x31b4
        0x00002e64:    48c0        .H      LDR      r0,[pc,#768] ; [0x3168] = 0x20003a51
        0x00002e66:    f7fdfa42    ..B.    BL       strstr ; 0x2ee
        0x00002e6a:    b128        (.      CBZ      r0,0x2e78 ; Process_Received_Settings + 4900
        0x00002e6c:    f000fd28    ..(.    BL       ReadSettingsFile ; 0x38c0
        0x00002e70:    f8868007    ....    STRB     r8,[r6,#7]
        0x00002e74:    e7b6        ..      B        0x2de4 ; Process_Received_Settings + 4752
        0x00002e76:    e3aa        ..      B        0x35ce ; Process_Received_Settings + 6778
        0x00002e78:    a1d0        ..      ADR      r1,{pc}+0x344 ; 0x31bc
        0x00002e7a:    48bb        .H      LDR      r0,[pc,#748] ; [0x3168] = 0x20003a51
        0x00002e7c:    f7fdfa37    ..7.    BL       strstr ; 0x2ee
        0x00002e80:    b348        H.      CBZ      r0,0x2ed6 ; Process_Received_Settings + 4994
        0x00002e82:    f000fe49    ..I.    BL       ReadTimerSettings ; 0x3b18
        0x00002e86:    f8991006    ....    LDRB     r1,[r9,#6]
        0x00002e8a:    f8993007    ...0    LDRB     r3,[r9,#7]
        0x00002e8e:    3930        09      SUBS     r1,r1,#0x30
        0x00002e90:    eb010181    ....    ADD      r1,r1,r1,LSL #2
        0x00002e94:    3b30        0;      SUBS     r3,r3,#0x30
        0x00002e96:    eb030141    ..A.    ADD      r1,r3,r1,LSL #1
        0x00002e9a:    7539        9u      STRB     r1,[r7,#0x14]
        0x00002e9c:    f8991008    ....    LDRB     r1,[r9,#8]
        0x00002ea0:    f8993009    ...0    LDRB     r3,[r9,#9]
        0x00002ea4:    3930        09      SUBS     r1,r1,#0x30
        0x00002ea6:    eb010181    ....    ADD      r1,r1,r1,LSL #2
        0x00002eaa:    3b30        0;      SUBS     r3,r3,#0x30
        0x00002eac:    eb030141    ..A.    ADD      r1,r3,r1,LSL #1
        0x00002eb0:    7579        yu      STRB     r1,[r7,#0x15]
        0x00002eb2:    f899100a    ....    LDRB     r1,[r9,#0xa]
        0x00002eb6:    3930        09      SUBS     r1,r1,#0x30
        0x00002eb8:    f8aa1006    ....    STRH     r1,[r10,#6]
        0x00002ebc:    f899000b    ....    LDRB     r0,[r9,#0xb]
        0x00002ec0:    eb010181    ....    ADD      r1,r1,r1,LSL #2
        0x00002ec4:    3830        08      SUBS     r0,r0,#0x30
        0x00002ec6:    f8aa000c    ....    STRH     r0,[r10,#0xc]
        0x00002eca:    eb000041    ..A.    ADD      r0,r0,r1,LSL #1
        0x00002ece:    75b8        .u      STRB     r0,[r7,#0x16]
        0x00002ed0:    e009        ..      B        0x2ee6 ; Process_Received_Settings + 5010
        0x00002ed2:    201b        .       MOVS     r0,#0x1b
        0x00002ed4:    e310        ..      B        0x34f8 ; Process_Received_Settings + 6564
        0x00002ed6:    a1bb        ..      ADR      r1,{pc}+0x2ee ; 0x31c4
        0x00002ed8:    48a3        .H      LDR      r0,[pc,#652] ; [0x3168] = 0x20003a51
        0x00002eda:    f7fdfa08    ....    BL       strstr ; 0x2ee
        0x00002ede:    b140        @.      CBZ      r0,0x2ef2 ; Process_Received_Settings + 5022
        0x00002ee0:    f000fe1a    ....    BL       ReadTimerSettings ; 0x3b18
        0x00002ee4:    74fd        .t      STRB     r5,[r7,#0x13]
        0x00002ee6:    f001ffaf    ....    BL       WriteTimerSettings ; 0x4e48
        0x00002eea:    7c70        p|      LDRB     r0,[r6,#0x11]
        0x00002eec:    2801        .(      CMP      r0,#1
        0x00002eee:    d0f0        ..      BEQ      0x2ed2 ; Process_Received_Settings + 4990
        0x00002ef0:    e320         .      B        0x3534 ; Process_Received_Settings + 6624
        0x00002ef2:    a1b7        ..      ADR      r1,{pc}+0x2de ; 0x31d0
        0x00002ef4:    489c        .H      LDR      r0,[pc,#624] ; [0x3168] = 0x20003a51
        0x00002ef6:    f7fdf9fa    ....    BL       strstr ; 0x2ee
        0x00002efa:    b120         .      CBZ      r0,0x2f06 ; Process_Received_Settings + 5042
        0x00002efc:    f000fe0c    ....    BL       ReadTimerSettings ; 0x3b18
        0x00002f00:    f8878013    ....    STRB     r8,[r7,#0x13]
        0x00002f04:    e7ef        ..      B        0x2ee6 ; Process_Received_Settings + 5010
        0x00002f06:    a1b5        ..      ADR      r1,{pc}+0x2d6 ; 0x31dc
        0x00002f08:    4897        .H      LDR      r0,[pc,#604] ; [0x3168] = 0x20003a51
        0x00002f0a:    f7fdf9f0    ....    BL       strstr ; 0x2ee
        0x00002f0e:    b3e8        ..      CBZ      r0,0x2f8c ; Process_Received_Settings + 5176
        0x00002f10:    f899100a    ....    LDRB     r1,[r9,#0xa]
        0x00002f14:    4648        HF      MOV      r0,r9
        0x00002f16:    3930        09      SUBS     r1,r1,#0x30
        0x00002f18:    b289        ..      UXTH     r1,r1
        0x00002f1a:    1e4a        J.      SUBS     r2,r1,#1
        0x00002f1c:    4653        SF      MOV      r3,r10
        0x00002f1e:    f8aa100e    ....    STRH     r1,[r10,#0xe]
        0x00002f22:    2a03        .*      CMP      r2,#3
        0x00002f24:    d89c        ..      BHI      0x2e60 ; Process_Received_Settings + 4876
        0x00002f26:    f8102f14    .../    LDRB     r2,[r0,#0x14]!
        0x00002f2a:    4439        9D      ADD      r1,r1,r7
        0x00002f2c:    f890c001    ....    LDRB     r12,[r0,#1]
        0x00002f30:    3a30        0:      SUBS     r2,r2,#0x30
        0x00002f32:    eb020282    ....    ADD      r2,r2,r2,LSL #2
        0x00002f36:    f1ac0c30    ..0.    SUB      r12,r12,#0x30
        0x00002f3a:    eb0c0242    ..B.    ADD      r2,r12,r2,LSL #1
        0x00002f3e:    f8012f23    ..#/    STRB     r2,[r1,#0x23]!
        0x00002f42:    7882        .x      LDRB     r2,[r0,#2]
        0x00002f44:    78c7        .x      LDRB     r7,[r0,#3]
        0x00002f46:    3a30        0:      SUBS     r2,r2,#0x30
        0x00002f48:    eb020282    ....    ADD      r2,r2,r2,LSL #2
        0x00002f4c:    3f30        0?      SUBS     r7,r7,#0x30
        0x00002f4e:    eb070242    ..B.    ADD      r2,r7,r2,LSL #1
        0x00002f52:    714a        Jq      STRB     r2,[r1,#5]
        0x00002f54:    7d02        .}      LDRB     r2,[r0,#0x14]
        0x00002f56:    7d47        G}      LDRB     r7,[r0,#0x15]
        0x00002f58:    3a30        0:      SUBS     r2,r2,#0x30
        0x00002f5a:    eb020282    ....    ADD      r2,r2,r2,LSL #2
        0x00002f5e:    3f30        0?      SUBS     r7,r7,#0x30
        0x00002f60:    eb070242    ..B.    ADD      r2,r7,r2,LSL #1
        0x00002f64:    73ca        .s      STRB     r2,[r1,#0xf]
        0x00002f66:    7d82        .}      LDRB     r2,[r0,#0x16]
        0x00002f68:    46d0        .F      MOV      r8,r10
        0x00002f6a:    3a30        0:      SUBS     r2,r2,#0x30
        0x00002f6c:    811a        ..      STRH     r2,[r3,#8]
        0x00002f6e:    f899002b    ..+.    LDRB     r0,[r9,#0x2b]
        0x00002f72:    eb020282    ....    ADD      r2,r2,r2,LSL #2
        0x00002f76:    3830        08      SUBS     r0,r0,#0x30
        0x00002f78:    f8a8000a    ....    STRH     r0,[r8,#0xa]
        0x00002f7c:    eb000042    ..B.    ADD      r0,r0,r2,LSL #1
        0x00002f80:    7508        .u      STRB     r0,[r1,#0x14]
        0x00002f82:    f001ff61    ..a.    BL       WriteTimerSettings ; 0x4e48
        0x00002f86:    f000fdc7    ....    BL       ReadTimerSettings ; 0x3b18
        0x00002f8a:    e000        ..      B        0x2f8e ; Process_Received_Settings + 5178
        0x00002f8c:    e016        ..      B        0x2fbc ; Process_Received_Settings + 5224
        0x00002f8e:    7c70        p|      LDRB     r0,[r6,#0x11]
        0x00002f90:    2801        .(      CMP      r0,#1
        0x00002f92:    d10a        ..      BNE      0x2faa ; Process_Received_Settings + 5206
        0x00002f94:    f8b8000e    ....    LDRH     r0,[r8,#0xe]
        0x00002f98:    2801        .(      CMP      r0,#1
        0x00002f9a:    d007        ..      BEQ      0x2fac ; Process_Received_Settings + 5208
        0x00002f9c:    2802        .(      CMP      r0,#2
        0x00002f9e:    d007        ..      BEQ      0x2fb0 ; Process_Received_Settings + 5212
        0x00002fa0:    2803        .(      CMP      r0,#3
        0x00002fa2:    d007        ..      BEQ      0x2fb4 ; Process_Received_Settings + 5216
        0x00002fa4:    2804        .(      CMP      r0,#4
        0x00002fa6:    d007        ..      BEQ      0x2fb8 ; Process_Received_Settings + 5220
        0x00002fa8:    7525        %u      STRB     r5,[r4,#0x14]
        0x00002faa:    e346        F.      B        0x363a ; Process_Received_Settings + 6886
        0x00002fac:    2021        !       MOVS     r0,#0x21
        0x00002fae:    e744        D.      B        0x2e3a ; Process_Received_Settings + 4838
        0x00002fb0:    2023        #       MOVS     r0,#0x23
        0x00002fb2:    e742        B.      B        0x2e3a ; Process_Received_Settings + 4838
        0x00002fb4:    2025        %       MOVS     r0,#0x25
        0x00002fb6:    e740        @.      B        0x2e3a ; Process_Received_Settings + 4838
        0x00002fb8:    2027        '       MOVS     r0,#0x27
        0x00002fba:    e73e        >.      B        0x2e3a ; Process_Received_Settings + 4838
        0x00002fbc:    a18a        ..      ADR      r1,{pc}+0x22c ; 0x31e8
        0x00002fbe:    486a        jH      LDR      r0,[pc,#424] ; [0x3168] = 0x20003a51
        0x00002fc0:    f7fdf995    ....    BL       strstr ; 0x2ee
        0x00002fc4:    b130        0.      CBZ      r0,0x2fd4 ; Process_Received_Settings + 5248
        0x00002fc6:    f000fda7    ....    BL       ReadTimerSettings ; 0x3b18
        0x00002fca:    f8875022    .."P    STRB     r5,[r7,#0x22]
        0x00002fce:    e00a        ..      B        0x2fe6 ; Process_Received_Settings + 5266
        0x00002fd0:    2020                MOVS     r0,#0x20
        0x00002fd2:    e291        ..      B        0x34f8 ; Process_Received_Settings + 6564
        0x00002fd4:    a186        ..      ADR      r1,{pc}+0x21c ; 0x31f0
        0x00002fd6:    4864        dH      LDR      r0,[pc,#400] ; [0x3168] = 0x20003a51
        0x00002fd8:    f7fdf989    ....    BL       strstr ; 0x2ee
        0x00002fdc:    b148        H.      CBZ      r0,0x2ff2 ; Process_Received_Settings + 5278
        0x00002fde:    f000fd9b    ....    BL       ReadTimerSettings ; 0x3b18
        0x00002fe2:    f8878022    ..".    STRB     r8,[r7,#0x22]
        0x00002fe6:    f001ff2f    ../.    BL       WriteTimerSettings ; 0x4e48
        0x00002fea:    7c70        p|      LDRB     r0,[r6,#0x11]
        0x00002fec:    2801        .(      CMP      r0,#1
        0x00002fee:    d0ef        ..      BEQ      0x2fd0 ; Process_Received_Settings + 5244
        0x00002ff0:    e2a0        ..      B        0x3534 ; Process_Received_Settings + 6624
        0x00002ff2:    a181        ..      ADR      r1,{pc}+0x206 ; 0x31f8
        0x00002ff4:    485c        \H      LDR      r0,[pc,#368] ; [0x3168] = 0x20003a51
        0x00002ff6:    f7fdf97a    ..z.    BL       strstr ; 0x2ee
        0x00002ffa:    b130        0.      CBZ      r0,0x300a ; Process_Received_Settings + 5302
        0x00002ffc:    f000fd8c    ....    BL       ReadTimerSettings ; 0x3b18
        0x00003000:    f8875049    ..IP    STRB     r5,[r7,#0x49]
        0x00003004:    e00a        ..      B        0x301c ; Process_Received_Settings + 5320
        0x00003006:    2031        1       MOVS     r0,#0x31
        0x00003008:    e276        v.      B        0x34f8 ; Process_Received_Settings + 6564
        0x0000300a:    a17e        ~.      ADR      r1,{pc}+0x1fa ; 0x3204
        0x0000300c:    4856        VH      LDR      r0,[pc,#344] ; [0x3168] = 0x20003a51
        0x0000300e:    f7fdf96e    ..n.    BL       strstr ; 0x2ee
        0x00003012:    b148        H.      CBZ      r0,0x3028 ; Process_Received_Settings + 5332
        0x00003014:    f000fd80    ....    BL       ReadTimerSettings ; 0x3b18
        0x00003018:    f8878049    ..I.    STRB     r8,[r7,#0x49]
        0x0000301c:    f001ff14    ....    BL       WriteTimerSettings ; 0x4e48
        0x00003020:    7c70        p|      LDRB     r0,[r6,#0x11]
        0x00003022:    2801        .(      CMP      r0,#1
        0x00003024:    d0ef        ..      BEQ      0x3006 ; Process_Received_Settings + 5298
        0x00003026:    e285        ..      B        0x3534 ; Process_Received_Settings + 6624
        0x00003028:    a179        y.      ADR      r1,{pc}+0x1e8 ; 0x3210
        0x0000302a:    484f        OH      LDR      r0,[pc,#316] ; [0x3168] = 0x20003a51
        0x0000302c:    f7fdf95f    .._.    BL       strstr ; 0x2ee
        0x00003030:    b130        0.      CBZ      r0,0x3040 ; Process_Received_Settings + 5356
        0x00003032:    f000fd71    ..q.    BL       ReadTimerSettings ; 0x3b18
        0x00003036:    f8875054    ..TP    STRB     r5,[r7,#0x54]
        0x0000303a:    e00a        ..      B        0x3052 ; Process_Received_Settings + 5374
        0x0000303c:    2034        4       MOVS     r0,#0x34
        0x0000303e:    e25b        [.      B        0x34f8 ; Process_Received_Settings + 6564
        0x00003040:    a176        v.      ADR      r1,{pc}+0x1dc ; 0x321c
        0x00003042:    4849        IH      LDR      r0,[pc,#292] ; [0x3168] = 0x20003a51
        0x00003044:    f7fdf953    ..S.    BL       strstr ; 0x2ee
        0x00003048:    b148        H.      CBZ      r0,0x305e ; Process_Received_Settings + 5386
        0x0000304a:    f000fd65    ..e.    BL       ReadTimerSettings ; 0x3b18
        0x0000304e:    f8878054    ..T.    STRB     r8,[r7,#0x54]
        0x00003052:    f001fef9    ....    BL       WriteTimerSettings ; 0x4e48
        0x00003056:    7c70        p|      LDRB     r0,[r6,#0x11]
        0x00003058:    2801        .(      CMP      r0,#1
        0x0000305a:    d0ef        ..      BEQ      0x303c ; Process_Received_Settings + 5352
        0x0000305c:    e26a        j.      B        0x3534 ; Process_Received_Settings + 6624
        0x0000305e:    a172        r.      ADR      r1,{pc}+0x1ca ; 0x3228
        0x00003060:    4841        AH      LDR      r0,[pc,#260] ; [0x3168] = 0x20003a51
        0x00003062:    f7fdf944    ..D.    BL       strstr ; 0x2ee
        0x00003066:    b308        ..      CBZ      r0,0x30ac ; Process_Received_Settings + 5464
        0x00003068:    f000fd56    ..V.    BL       ReadTimerSettings ; 0x3b18
        0x0000306c:    f899100c    ....    LDRB     r1,[r9,#0xc]
        0x00003070:    f899200b    ...     LDRB     r2,[r9,#0xb]
        0x00003074:    3930        09      SUBS     r1,r1,#0x30
        0x00003076:    b289        ..      UXTH     r1,r1
        0x00003078:    f8aa1006    ....    STRH     r1,[r10,#6]
        0x0000307c:    f899000d    ....    LDRB     r0,[r9,#0xd]
        0x00003080:    2364        d#      MOVS     r3,#0x64
        0x00003082:    3830        08      SUBS     r0,r0,#0x30
        0x00003084:    b280        ..      UXTH     r0,r0
        0x00003086:    f8aa000c    ....    STRH     r0,[r10,#0xc]
        0x0000308a:    3a30        0:      SUBS     r2,r2,#0x30
        0x0000308c:    fb12f203    ....    SMULBB   r2,r2,r3
        0x00003090:    eb010181    ....    ADD      r1,r1,r1,LSL #2
        0x00003094:    eb020141    ..A.    ADD      r1,r2,r1,LSL #1
        0x00003098:    4408        .D      ADD      r0,r0,r1
        0x0000309a:    f8c70124    ..$.    STR      r0,[r7,#0x124]
        0x0000309e:    f001fed3    ....    BL       WriteTimerSettings ; 0x4e48
        0x000030a2:    7c70        p|      LDRB     r0,[r6,#0x11]
        0x000030a4:    2801        .(      CMP      r0,#1
        0x000030a6:    d1a3        ..      BNE      0x2ff0 ; Process_Received_Settings + 5276
        0x000030a8:    2066        f       MOVS     r0,#0x66
        0x000030aa:    e225        %.      B        0x34f8 ; Process_Received_Settings + 6564
        0x000030ac:    a161        a.      ADR      r1,{pc}+0x188 ; 0x3234
        0x000030ae:    482e        .H      LDR      r0,[pc,#184] ; [0x3168] = 0x20003a51
        0x000030b0:    f7fdf91d    ....    BL       strstr ; 0x2ee
        0x000030b4:    b370        p.      CBZ      r0,0x3114 ; Process_Received_Settings + 5568
        0x000030b6:    f000fd2f    ../.    BL       ReadTimerSettings ; 0x3b18
        0x000030ba:    f899100b    ....    LDRB     r1,[r9,#0xb]
        0x000030be:    46b8        .F      MOV      r8,r7
        0x000030c0:    3930        09      SUBS     r1,r1,#0x30
        0x000030c2:    f8c71128    ..(.    STR      r1,[r7,#0x128]
        0x000030c6:    f899200c    ...     LDRB     r2,[r9,#0xc]
        0x000030ca:    4657        WF      MOV      r7,r10
        0x000030cc:    3a30        0:      SUBS     r2,r2,#0x30
        0x000030ce:    b292        ..      UXTH     r2,r2
        0x000030d0:    f8aa2006    ...     STRH     r2,[r10,#6]
        0x000030d4:    f899000d    ....    LDRB     r0,[r9,#0xd]
        0x000030d8:    3830        08      SUBS     r0,r0,#0x30
        0x000030da:    b283        ..      UXTH     r3,r0
        0x000030dc:    f8aa300c    ...0    STRH     r3,[r10,#0xc]
        0x000030e0:    a057        W.      ADR      r0,{pc}+0x160 ; 0x3240
        0x000030e2:    f7fefa59    ..Y.    BL       Debug ; 0x1598
        0x000030e6:    f8d80128    ..(.    LDR      r0,[r8,#0x128]
        0x000030ea:    2164        d!      MOVS     r1,#0x64
        0x000030ec:    88fa        ..      LDRH     r2,[r7,#6]
        0x000030ee:    4348        HC      MULS     r0,r1,r0
        0x000030f0:    eb020182    ....    ADD      r1,r2,r2,LSL #2
        0x000030f4:    89bb        ..      LDRH     r3,[r7,#0xc]
        0x000030f6:    eb000041    ..A.    ADD      r0,r0,r1,LSL #1
        0x000030fa:    18c1        ..      ADDS     r1,r0,r3
        0x000030fc:    a057        W.      ADR      r0,{pc}+0x160 ; 0x325c
        0x000030fe:    f8c81128    ..(.    STR      r1,[r8,#0x128]
        0x00003102:    f7fefa49    ..I.    BL       Debug ; 0x1598
        0x00003106:    f001fe9f    ....    BL       WriteTimerSettings ; 0x4e48
        0x0000310a:    7c70        p|      LDRB     r0,[r6,#0x11]
        0x0000310c:    2801        .(      CMP      r0,#1
        0x0000310e:    d18a        ..      BNE      0x3026 ; Process_Received_Settings + 5330
        0x00003110:    2067        g       MOVS     r0,#0x67
        0x00003112:    e1f1        ..      B        0x34f8 ; Process_Received_Settings + 6564
        0x00003114:    a15e        ^.      ADR      r1,{pc}+0x17c ; 0x3290
        0x00003116:    4814        .H      LDR      r0,[pc,#80] ; [0x3168] = 0x20003a51
        0x00003118:    f7fdf8e9    ....    BL       strstr ; 0x2ee
        0x0000311c:    b1f0        ..      CBZ      r0,0x315c ; Process_Received_Settings + 5640
        0x0000311e:    f000fbcf    ....    BL       ReadSettingsFile ; 0x38c0
        0x00003122:    f8991008    ....    LDRB     r1,[r9,#8]
        0x00003126:    f8992007    ...     LDRB     r2,[r9,#7]
        0x0000312a:    3930        09      SUBS     r1,r1,#0x30
        0x0000312c:    b289        ..      UXTH     r1,r1
        0x0000312e:    f8aa1006    ....    STRH     r1,[r10,#6]
        0x00003132:    f8990009    ....    LDRB     r0,[r9,#9]
        0x00003136:    2364        d#      MOVS     r3,#0x64
        0x00003138:    3830        08      SUBS     r0,r0,#0x30
        0x0000313a:    b280        ..      UXTH     r0,r0
        0x0000313c:    f8aa000c    ....    STRH     r0,[r10,#0xc]
        0x00003140:    3a30        0:      SUBS     r2,r2,#0x30
        0x00003142:    fb12f203    ....    SMULBB   r2,r2,r3
        0x00003146:    eb010181    ....    ADD      r1,r1,r1,LSL #2
        0x0000314a:    eb020141    ..A.    ADD      r1,r2,r1,LSL #1
        0x0000314e:    4408        .D      ADD      r0,r0,r1
        0x00003150:    66f8        .f      STR      r0,[r7,#0x6c]
        0x00003152:    f001fd45    ..E.    BL       WriteSettingsFile ; 0x4be0
        0x00003156:    7c70        p|      LDRB     r0,[r6,#0x11]
        0x00003158:    2801        .(      CMP      r0,#1
        0x0000315a:    e09d        ..      B        0x3298 ; Process_Received_Settings + 5956
        0x0000315c:    e0a1        ..      B        0x32a2 ; Process_Received_Settings + 5966
    $d
        0x0000315e:    0000        ..      DCW    0
        0x00003160:    6f626673    sfbo    DCD    1868719731
        0x00003164:    00000066    f...    DCD    102
        0x00003168:    20003a51    Q:.     DCD    536885841
        0x0000316c:    73636670    pfcs    DCD    1935894128
        0x00003170:    6e6f7465    eton    DCD    1852798053
        0x00003174:    00000000    ....    DCD    0
        0x00003178:    73636670    pfcs    DCD    1935894128
        0x0000317c:    666f7465    etof    DCD    1718580325
        0x00003180:    00000000    ....    DCD    0
        0x00003184:    706d7573    sump    DCD    1886221683
        0x00003188:    00006e6f    on..    DCD    28271
        0x0000318c:    706d7573    sump    DCD    1886221683
        0x00003190:    0000666f    of..    DCD    26223
        0x00003194:    6b6e6174    tank    DCD    1802396020
        0x00003198:    00006e6f    on..    DCD    28271
        0x0000319c:    6b6e6174    tank    DCD    1802396020
        0x000031a0:    0000666f    of..    DCD    26223
        0x000031a4:    76727770    pwrv    DCD    1987213168
        0x000031a8:    00666f62    bof.    DCD    6713186
        0x000031ac:    6f626676    vfbo    DCD    1868719734
        0x000031b0:    0000006e    n...    DCD    110
        0x000031b4:    6f626676    vfbo    DCD    1868719734
        0x000031b8:    00000066    f...    DCD    102
        0x000031bc:    7478616d    maxt    DCD    1954046317
        0x000031c0:    00006d69    im..    DCD    28009
        0x000031c4:    7478616d    maxt    DCD    1954046317
        0x000031c8:    6e6f6d69    imon    DCD    1852796265
        0x000031cc:    00000000    ....    DCD    0
        0x000031d0:    7478616d    maxt    DCD    1954046317
        0x000031d4:    666f6d69    imof    DCD    1718578537
        0x000031d8:    00000000    ....    DCD    0
        0x000031dc:    74637472    rtct    DCD    1952674930
        0x000031e0:    6e6f6d69    imon    DCD    1852796265
        0x000031e4:    0000666f    of..    DCD    26223
        0x000031e8:    6f637472    rtco    DCD    1868788850
        0x000031ec:    0000006e    n...    DCD    110
        0x000031f0:    6f637472    rtco    DCD    1868788850
        0x000031f4:    00000066    f...    DCD    102
        0x000031f8:    76776f6c    lowv    DCD    1987538796
        0x000031fc:    6f746c6f    olto    DCD    1869900911
        0x00003200:    0000006e    n...    DCD    110
        0x00003204:    76776f6c    lowv    DCD    1987538796
        0x00003208:    6f746c6f    olto    DCD    1869900911
        0x0000320c:    00000066    f...    DCD    102
        0x00003210:    68676968    high    DCD    1751607656
        0x00003214:    746c6f76    volt    DCD    1953263478
        0x00003218:    00006e6f    on..    DCD    28271
        0x0000321c:    68676968    high    DCD    1751607656
        0x00003220:    746c6f76    volt    DCD    1953263478
        0x00003224:    0000666f    of..    DCD    26223
        0x00003228:    69646968    hidi    DCD    1768188264
        0x0000322c:    6f766666    ffvo    DCD    1870030438
        0x00003230:    0032746c    lt2.    DCD    3306604
        0x00003234:    69646968    hidi    DCD    1768188264
        0x00003238:    6f766666    ffvo    DCD    1870030438
        0x0000323c:    0033746c    lt3.    DCD    3372140
        0x00003240:    48200d0a    .. H    DCD    1210060042
        0x00003244:    20686769    igh     DCD    543713129
        0x00003248:    746c6f56    Volt    DCD    1953263446
        0x0000324c:    25203d20     = %    DCD    622869792
        0x00003250:    64252064    d %d    DCD    1680154724
        0x00003254:    0a642520     %d.    DCD    174335264
        0x00003258:    0000000d    ....    DCD    13
        0x0000325c:    2d2d0d0a    ..--    DCD    757927178
        0x00003260:    2d2d2d2d    ----    DCD    757935405
        0x00003264:    2d2d2d2d    ----    DCD    757935405
        0x00003268:    2d2d2d2d    ----    DCD    757935405
        0x0000326c:    6425202d    - %d    DCD    1680154669
        0x00003270:    20642520     %d     DCD    543434016
        0x00003274:    2d206425    %d -    DCD    757097509
        0x00003278:    2d2d2d2d    ----    DCD    757935405
        0x0000327c:    2d2d2d2d    ----    DCD    757935405
        0x00003280:    2d2d2d2d    ----    DCD    757935405
        0x00003284:    2d2d2d2d    ----    DCD    757935405
        0x00003288:    0d0a2d2d    --..    DCD    218770733
        0x0000328c:    00000000    ....    DCD    0
        0x00003290:    76636670    pfcv    DCD    1986225776
        0x00003294:    00746c6f    olt.    DCD    7629935
    $t
        0x00003298:    d102        ..      BNE      0x32a0 ; Process_Received_Settings + 5964
        0x0000329a:    2038        8       MOVS     r0,#0x38
        0x0000329c:    e17f        ..      B        0x359e ; Process_Received_Settings + 6730
        0x0000329e:    7525        %u      STRB     r5,[r4,#0x14]
        0x000032a0:    e1c9        ..      B        0x3636 ; Process_Received_Settings + 6882
        0x000032a2:    f2af71e8    ...q    ADR      r1,{pc}-0x7e6 ; 0x2abc
        0x000032a6:    48fb        .H      LDR      r0,[pc,#1004] ; [0x3694] = 0x20003a51
        0x000032a8:    f7fdf821    ..!.    BL       strstr ; 0x2ee
        0x000032ac:    b300        ..      CBZ      r0,0x32f0 ; Process_Received_Settings + 6044
        0x000032ae:    f000fc33    ..3.    BL       ReadTimerSettings ; 0x3b18
        0x000032b2:    f8991008    ....    LDRB     r1,[r9,#8]
        0x000032b6:    f8992007    ...     LDRB     r2,[r9,#7]
        0x000032ba:    3930        09      SUBS     r1,r1,#0x30
        0x000032bc:    b289        ..      UXTH     r1,r1
        0x000032be:    f8aa1006    ....    STRH     r1,[r10,#6]
        0x000032c2:    f8990009    ....    LDRB     r0,[r9,#9]
        0x000032c6:    2364        d#      MOVS     r3,#0x64
        0x000032c8:    3830        08      SUBS     r0,r0,#0x30
        0x000032ca:    b280        ..      UXTH     r0,r0
        0x000032cc:    f8aa000c    ....    STRH     r0,[r10,#0xc]
        0x000032d0:    3a30        0:      SUBS     r2,r2,#0x30
        0x000032d2:    fb12f203    ....    SMULBB   r2,r2,r3
        0x000032d6:    eb010181    ....    ADD      r1,r1,r1,LSL #2
        0x000032da:    eb020141    ..A.    ADD      r1,r2,r1,LSL #1
        0x000032de:    4408        .D      ADD      r0,r0,r1
        0x000032e0:    66b8        .f      STR      r0,[r7,#0x68]
        0x000032e2:    f001fdb1    ....    BL       WriteTimerSettings ; 0x4e48
        0x000032e6:    7c70        p|      LDRB     r0,[r6,#0x11]
        0x000032e8:    2801        .(      CMP      r0,#1
        0x000032ea:    f43face0    ?...    BEQ      0x2cae ; Process_Received_Settings + 4442
        0x000032ee:    e121        !.      B        0x3534 ; Process_Received_Settings + 6624
        0x000032f0:    a1e9        ..      ADR      r1,{pc}+0x3a8 ; 0x3698
        0x000032f2:    48e8        .H      LDR      r0,[pc,#928] ; [0x3694] = 0x20003a51
        0x000032f4:    f7fcfffb    ....    BL       strstr ; 0x2ee
        0x000032f8:    b130        0.      CBZ      r0,0x3308 ; Process_Received_Settings + 6068
        0x000032fa:    f000fc0d    ....    BL       ReadTimerSettings ; 0x3b18
        0x000032fe:    f8875077    ..wP    STRB     r5,[r7,#0x77]
        0x00003302:    e00a        ..      B        0x331a ; Process_Received_Settings + 6086
        0x00003304:    2040        @       MOVS     r0,#0x40
        0x00003306:    e0f7        ..      B        0x34f8 ; Process_Received_Settings + 6564
        0x00003308:    a1e5        ..      ADR      r1,{pc}+0x398 ; 0x36a0
        0x0000330a:    48e2        .H      LDR      r0,[pc,#904] ; [0x3694] = 0x20003a51
        0x0000330c:    f7fcffef    ....    BL       strstr ; 0x2ee
        0x00003310:    b148        H.      CBZ      r0,0x3326 ; Process_Received_Settings + 6098
        0x00003312:    f000fc01    ....    BL       ReadTimerSettings ; 0x3b18
        0x00003316:    f8878077    ..w.    STRB     r8,[r7,#0x77]
        0x0000331a:    f001fd95    ....    BL       WriteTimerSettings ; 0x4e48
        0x0000331e:    7c70        p|      LDRB     r0,[r6,#0x11]
        0x00003320:    2801        .(      CMP      r0,#1
        0x00003322:    d0ef        ..      BEQ      0x3304 ; Process_Received_Settings + 6064
        0x00003324:    e106        ..      B        0x3534 ; Process_Received_Settings + 6624
        0x00003326:    a1e0        ..      ADR      r1,{pc}+0x382 ; 0x36a8
        0x00003328:    48da        .H      LDR      r0,[pc,#872] ; [0x3694] = 0x20003a51
        0x0000332a:    f7fcffe0    ....    BL       strstr ; 0x2ee
        0x0000332e:    b130        0.      CBZ      r0,0x333e ; Process_Received_Settings + 6122
        0x00003330:    f000fbf2    ....    BL       ReadTimerSettings ; 0x3b18
        0x00003334:    f88750cf    ...P    STRB     r5,[r7,#0xcf]
        0x00003338:    e00a        ..      B        0x3350 ; Process_Received_Settings + 6140
        0x0000333a:    2048        H       MOVS     r0,#0x48
        0x0000333c:    e0dc        ..      B        0x34f8 ; Process_Received_Settings + 6564
        0x0000333e:    a1dd        ..      ADR      r1,{pc}+0x376 ; 0x36b4
        0x00003340:    48d4        .H      LDR      r0,[pc,#848] ; [0x3694] = 0x20003a51
        0x00003342:    f7fcffd4    ....    BL       strstr ; 0x2ee
        0x00003346:    b148        H.      CBZ      r0,0x335c ; Process_Received_Settings + 6152
        0x00003348:    f000fbe6    ....    BL       ReadTimerSettings ; 0x3b18
        0x0000334c:    f88780cf    ....    STRB     r8,[r7,#0xcf]
        0x00003350:    f001fd7a    ..z.    BL       WriteTimerSettings ; 0x4e48
        0x00003354:    7c70        p|      LDRB     r0,[r6,#0x11]
        0x00003356:    2801        .(      CMP      r0,#1
        0x00003358:    d0ef        ..      BEQ      0x333a ; Process_Received_Settings + 6118
        0x0000335a:    e0eb        ..      B        0x3534 ; Process_Received_Settings + 6624
        0x0000335c:    a1d8        ..      ADR      r1,{pc}+0x364 ; 0x36c0
        0x0000335e:    48cd        .H      LDR      r0,[pc,#820] ; [0x3694] = 0x20003a51
        0x00003360:    f7fcffc5    ....    BL       strstr ; 0x2ee
        0x00003364:    b130        0.      CBZ      r0,0x3374 ; Process_Received_Settings + 6176
        0x00003366:    f000fbd7    ....    BL       ReadTimerSettings ; 0x3b18
        0x0000336a:    f88750d1    ...P    STRB     r5,[r7,#0xd1]
        0x0000336e:    e00a        ..      B        0x3386 ; Process_Received_Settings + 6194
        0x00003370:    204a        J       MOVS     r0,#0x4a
        0x00003372:    e0c1        ..      B        0x34f8 ; Process_Received_Settings + 6564
        0x00003374:    a1d4        ..      ADR      r1,{pc}+0x354 ; 0x36c8
        0x00003376:    48c7        .H      LDR      r0,[pc,#796] ; [0x3694] = 0x20003a51
        0x00003378:    f7fcffb9    ....    BL       strstr ; 0x2ee
        0x0000337c:    b148        H.      CBZ      r0,0x3392 ; Process_Received_Settings + 6206
        0x0000337e:    f000fbcb    ....    BL       ReadTimerSettings ; 0x3b18
        0x00003382:    f88780d1    ....    STRB     r8,[r7,#0xd1]
        0x00003386:    f001fd5f    .._.    BL       WriteTimerSettings ; 0x4e48
        0x0000338a:    7c70        p|      LDRB     r0,[r6,#0x11]
        0x0000338c:    2801        .(      CMP      r0,#1
        0x0000338e:    d0ef        ..      BEQ      0x3370 ; Process_Received_Settings + 6172
        0x00003390:    e0d0        ..      B        0x3534 ; Process_Received_Settings + 6624
        0x00003392:    a1cf        ..      ADR      r1,{pc}+0x33e ; 0x36d0
        0x00003394:    48bf        .H      LDR      r0,[pc,#764] ; [0x3694] = 0x20003a51
        0x00003396:    f7fcffaa    ....    BL       strstr ; 0x2ee
        0x0000339a:    b130        0.      CBZ      r0,0x33aa ; Process_Received_Settings + 6230
        0x0000339c:    f000fbbc    ....    BL       ReadTimerSettings ; 0x3b18
        0x000033a0:    f88750d2    ...P    STRB     r5,[r7,#0xd2]
        0x000033a4:    e00a        ..      B        0x33bc ; Process_Received_Settings + 6248
        0x000033a6:    204b        K       MOVS     r0,#0x4b
        0x000033a8:    e0a6        ..      B        0x34f8 ; Process_Received_Settings + 6564
        0x000033aa:    a1cb        ..      ADR      r1,{pc}+0x32e ; 0x36d8
        0x000033ac:    48b9        .H      LDR      r0,[pc,#740] ; [0x3694] = 0x20003a51
        0x000033ae:    f7fcff9e    ....    BL       strstr ; 0x2ee
        0x000033b2:    b148        H.      CBZ      r0,0x33c8 ; Process_Received_Settings + 6260
        0x000033b4:    f000fbb0    ....    BL       ReadTimerSettings ; 0x3b18
        0x000033b8:    f88780d2    ....    STRB     r8,[r7,#0xd2]
        0x000033bc:    f001fd44    ..D.    BL       WriteTimerSettings ; 0x4e48
        0x000033c0:    7c70        p|      LDRB     r0,[r6,#0x11]
        0x000033c2:    2801        .(      CMP      r0,#1
        0x000033c4:    d0ef        ..      BEQ      0x33a6 ; Process_Received_Settings + 6226
        0x000033c6:    e0b5        ..      B        0x3534 ; Process_Received_Settings + 6624
        0x000033c8:    a1c5        ..      ADR      r1,{pc}+0x318 ; 0x36e0
        0x000033ca:    48b2        .H      LDR      r0,[pc,#712] ; [0x3694] = 0x20003a51
        0x000033cc:    f7fcff8f    ....    BL       strstr ; 0x2ee
        0x000033d0:    b130        0.      CBZ      r0,0x33e0 ; Process_Received_Settings + 6284
        0x000033d2:    f000fba1    ....    BL       ReadTimerSettings ; 0x3b18
        0x000033d6:    f88750d4    ...P    STRB     r5,[r7,#0xd4]
        0x000033da:    e00a        ..      B        0x33f2 ; Process_Received_Settings + 6302
        0x000033dc:    204d        M       MOVS     r0,#0x4d
        0x000033de:    e08b        ..      B        0x34f8 ; Process_Received_Settings + 6564
        0x000033e0:    a1c2        ..      ADR      r1,{pc}+0x30c ; 0x36ec
        0x000033e2:    48ac        .H      LDR      r0,[pc,#688] ; [0x3694] = 0x20003a51
        0x000033e4:    f7fcff83    ....    BL       strstr ; 0x2ee
        0x000033e8:    b148        H.      CBZ      r0,0x33fe ; Process_Received_Settings + 6314
        0x000033ea:    f000fb95    ....    BL       ReadTimerSettings ; 0x3b18
        0x000033ee:    f88780d4    ....    STRB     r8,[r7,#0xd4]
        0x000033f2:    f001fd29    ..).    BL       WriteTimerSettings ; 0x4e48
        0x000033f6:    7c70        p|      LDRB     r0,[r6,#0x11]
        0x000033f8:    2801        .(      CMP      r0,#1
        0x000033fa:    d0ef        ..      BEQ      0x33dc ; Process_Received_Settings + 6280
        0x000033fc:    e09a        ..      B        0x3534 ; Process_Received_Settings + 6624
        0x000033fe:    a1be        ..      ADR      r1,{pc}+0x2fa ; 0x36f8
        0x00003400:    48a4        .H      LDR      r0,[pc,#656] ; [0x3694] = 0x20003a51
        0x00003402:    f7fcff74    ..t.    BL       strstr ; 0x2ee
        0x00003406:    b1c0        ..      CBZ      r0,0x343a ; Process_Received_Settings + 6374
        0x00003408:    f000fb86    ....    BL       ReadTimerSettings ; 0x3b18
        0x0000340c:    f899100a    ....    LDRB     r1,[r9,#0xa]
        0x00003410:    3930        09      SUBS     r1,r1,#0x30
        0x00003412:    f8aa1006    ....    STRH     r1,[r10,#6]
        0x00003416:    f899000b    ....    LDRB     r0,[r9,#0xb]
        0x0000341a:    eb010181    ....    ADD      r1,r1,r1,LSL #2
        0x0000341e:    3830        08      SUBS     r0,r0,#0x30
        0x00003420:    f8aa000c    ....    STRH     r0,[r10,#0xc]
        0x00003424:    eb000041    ..A.    ADD      r0,r0,r1,LSL #1
        0x00003428:    f88700db    ....    STRB     r0,[r7,#0xdb]
        0x0000342c:    f001fd0c    ....    BL       WriteTimerSettings ; 0x4e48
        0x00003430:    7c70        p|      LDRB     r0,[r6,#0x11]
        0x00003432:    2801        .(      CMP      r0,#1
        0x00003434:    d17e        ~.      BNE      0x3534 ; Process_Received_Settings + 6624
        0x00003436:    2052        R       MOVS     r0,#0x52
        0x00003438:    e05e        ^.      B        0x34f8 ; Process_Received_Settings + 6564
        0x0000343a:    a1b2        ..      ADR      r1,{pc}+0x2ca ; 0x3704
        0x0000343c:    4895        .H      LDR      r0,[pc,#596] ; [0x3694] = 0x20003a51
        0x0000343e:    f7fcff56    ..V.    BL       strstr ; 0x2ee
        0x00003442:    b150        P.      CBZ      r0,0x345a ; Process_Received_Settings + 6406
        0x00003444:    f000fb68    ..h.    BL       ReadTimerSettings ; 0x3b18
        0x00003448:    f887511c    ...Q    STRB     r5,[r7,#0x11c]
        0x0000344c:    f001fcfc    ....    BL       WriteTimerSettings ; 0x4e48
        0x00003450:    7c70        p|      LDRB     r0,[r6,#0x11]
        0x00003452:    2801        .(      CMP      r0,#1
        0x00003454:    d16e        n.      BNE      0x3534 ; Process_Received_Settings + 6624
        0x00003456:    205b        [       MOVS     r0,#0x5b
        0x00003458:    e04e        N.      B        0x34f8 ; Process_Received_Settings + 6564
        0x0000345a:    a1ac        ..      ADR      r1,{pc}+0x2b2 ; 0x370c
        0x0000345c:    488d        .H      LDR      r0,[pc,#564] ; [0x3694] = 0x20003a51
        0x0000345e:    f7fcff46    ..F.    BL       strstr ; 0x2ee
        0x00003462:    b150        P.      CBZ      r0,0x347a ; Process_Received_Settings + 6438
        0x00003464:    f000fb58    ..X.    BL       ReadTimerSettings ; 0x3b18
        0x00003468:    f887811c    ....    STRB     r8,[r7,#0x11c]
        0x0000346c:    f001fcec    ....    BL       WriteTimerSettings ; 0x4e48
        0x00003470:    7c70        p|      LDRB     r0,[r6,#0x11]
        0x00003472:    2801        .(      CMP      r0,#1
        0x00003474:    d15e        ^.      BNE      0x3534 ; Process_Received_Settings + 6624
        0x00003476:    205c        \       MOVS     r0,#0x5c
        0x00003478:    e03e        >.      B        0x34f8 ; Process_Received_Settings + 6564
        0x0000347a:    a1a6        ..      ADR      r1,{pc}+0x29a ; 0x3714
        0x0000347c:    4885        .H      LDR      r0,[pc,#532] ; [0x3694] = 0x20003a51
        0x0000347e:    f7fcff36    ..6.    BL       strstr ; 0x2ee
        0x00003482:    b150        P.      CBZ      r0,0x349a ; Process_Received_Settings + 6470
        0x00003484:    f000fb48    ..H.    BL       ReadTimerSettings ; 0x3b18
        0x00003488:    f887511d    ...Q    STRB     r5,[r7,#0x11d]
        0x0000348c:    f001fcdc    ....    BL       WriteTimerSettings ; 0x4e48
        0x00003490:    7c70        p|      LDRB     r0,[r6,#0x11]
        0x00003492:    2801        .(      CMP      r0,#1
        0x00003494:    d14e        N.      BNE      0x3534 ; Process_Received_Settings + 6624
        0x00003496:    205d        ]       MOVS     r0,#0x5d
        0x00003498:    e02e        ..      B        0x34f8 ; Process_Received_Settings + 6564
        0x0000349a:    a1a0        ..      ADR      r1,{pc}+0x282 ; 0x371c
        0x0000349c:    487d        }H      LDR      r0,[pc,#500] ; [0x3694] = 0x20003a51
        0x0000349e:    f7fcff26    ..&.    BL       strstr ; 0x2ee
        0x000034a2:    b150        P.      CBZ      r0,0x34ba ; Process_Received_Settings + 6502
        0x000034a4:    f000fb38    ..8.    BL       ReadTimerSettings ; 0x3b18
        0x000034a8:    f887811d    ....    STRB     r8,[r7,#0x11d]
        0x000034ac:    f001fccc    ....    BL       WriteTimerSettings ; 0x4e48
        0x000034b0:    7c70        p|      LDRB     r0,[r6,#0x11]
        0x000034b2:    2801        .(      CMP      r0,#1
        0x000034b4:    d13e        >.      BNE      0x3534 ; Process_Received_Settings + 6624
        0x000034b6:    205e        ^       MOVS     r0,#0x5e
        0x000034b8:    e01e        ..      B        0x34f8 ; Process_Received_Settings + 6564
        0x000034ba:    a19a        ..      ADR      r1,{pc}+0x26a ; 0x3724
        0x000034bc:    4875        uH      LDR      r0,[pc,#468] ; [0x3694] = 0x20003a51
        0x000034be:    f7fcff16    ....    BL       strstr ; 0x2ee
        0x000034c2:    b150        P.      CBZ      r0,0x34da ; Process_Received_Settings + 6534
        0x000034c4:    f000fb28    ..(.    BL       ReadTimerSettings ; 0x3b18
        0x000034c8:    f887511e    ...Q    STRB     r5,[r7,#0x11e]
        0x000034cc:    f001fcbc    ....    BL       WriteTimerSettings ; 0x4e48
        0x000034d0:    7c70        p|      LDRB     r0,[r6,#0x11]
        0x000034d2:    2801        .(      CMP      r0,#1
        0x000034d4:    d12e        ..      BNE      0x3534 ; Process_Received_Settings + 6624
        0x000034d6:    205f        _       MOVS     r0,#0x5f
        0x000034d8:    e00e        ..      B        0x34f8 ; Process_Received_Settings + 6564
        0x000034da:    a194        ..      ADR      r1,{pc}+0x252 ; 0x372c
        0x000034dc:    486d        mH      LDR      r0,[pc,#436] ; [0x3694] = 0x20003a51
        0x000034de:    f7fcff06    ....    BL       strstr ; 0x2ee
        0x000034e2:    b160        `.      CBZ      r0,0x34fe ; Process_Received_Settings + 6570
        0x000034e4:    f000fb18    ....    BL       ReadTimerSettings ; 0x3b18
        0x000034e8:    f887811e    ....    STRB     r8,[r7,#0x11e]
        0x000034ec:    f001fcac    ....    BL       WriteTimerSettings ; 0x4e48
        0x000034f0:    7c70        p|      LDRB     r0,[r6,#0x11]
        0x000034f2:    2801        .(      CMP      r0,#1
        0x000034f4:    d11e        ..      BNE      0x3534 ; Process_Received_Settings + 6624
        0x000034f6:    2060        `       MOVS     r0,#0x60
        0x000034f8:    7020         p      STRB     r0,[r4,#0]
        0x000034fa:    f7febe56    ..V.    B        0x21aa ; Process_Received_Settings + 1622
        0x000034fe:    a18d        ..      ADR      r1,{pc}+0x236 ; 0x3734
        0x00003500:    4864        dH      LDR      r0,[pc,#400] ; [0x3694] = 0x20003a51
        0x00003502:    f7fcfef4    ....    BL       strstr ; 0x2ee
        0x00003506:    f04f0964    O.d.    MOV      r9,#0x64
        0x0000350a:    b128        (.      CBZ      r0,0x3518 ; Process_Received_Settings + 6596
        0x0000350c:    f000fb04    ....    BL       ReadTimerSettings ; 0x3b18
        0x00003510:    f887511f    ...Q    STRB     r5,[r7,#0x11f]
        0x00003514:    e009        ..      B        0x352a ; Process_Received_Settings + 6614
        0x00003516:    e00d        ..      B        0x3534 ; Process_Received_Settings + 6624
        0x00003518:    a189        ..      ADR      r1,{pc}+0x228 ; 0x3740
        0x0000351a:    485e        ^H      LDR      r0,[pc,#376] ; [0x3694] = 0x20003a51
        0x0000351c:    f7fcfee7    ....    BL       strstr ; 0x2ee
        0x00003520:    b158        X.      CBZ      r0,0x353a ; Process_Received_Settings + 6630
        0x00003522:    f000faf9    ....    BL       ReadTimerSettings ; 0x3b18
        0x00003526:    f887811f    ....    STRB     r8,[r7,#0x11f]
        0x0000352a:    f001fc8d    ....    BL       WriteTimerSettings ; 0x4e48
        0x0000352e:    7c70        p|      LDRB     r0,[r6,#0x11]
        0x00003530:    2801        .(      CMP      r0,#1
        0x00003532:    d018        ..      BEQ      0x3566 ; Process_Received_Settings + 6674
        0x00003534:    f000faf0    ....    BL       ReadTimerSettings ; 0x3b18
        0x00003538:    e07f        ..      B        0x363a ; Process_Received_Settings + 6886
        0x0000353a:    a184        ..      ADR      r1,{pc}+0x212 ; 0x374c
        0x0000353c:    4855        UH      LDR      r0,[pc,#340] ; [0x3694] = 0x20003a51
        0x0000353e:    f7fcfed6    ....    BL       strstr ; 0x2ee
        0x00003542:    f04f0965    O.e.    MOV      r9,#0x65
        0x00003546:    b120         .      CBZ      r0,0x3552 ; Process_Received_Settings + 6654
        0x00003548:    f000fae6    ....    BL       ReadTimerSettings ; 0x3b18
        0x0000354c:    f8875120    .. Q    STRB     r5,[r7,#0x120]
        0x00003550:    e7eb        ..      B        0x352a ; Process_Received_Settings + 6614
        0x00003552:    a181        ..      ADR      r1,{pc}+0x206 ; 0x3758
        0x00003554:    484f        OH      LDR      r0,[pc,#316] ; [0x3694] = 0x20003a51
        0x00003556:    f7fcfeca    ....    BL       strstr ; 0x2ee
        0x0000355a:    b138        8.      CBZ      r0,0x356c ; Process_Received_Settings + 6680
        0x0000355c:    f000fadc    ....    BL       ReadTimerSettings ; 0x3b18
        0x00003560:    f8878120    .. .    STRB     r8,[r7,#0x120]
        0x00003564:    e7e1        ..      B        0x352a ; Process_Received_Settings + 6614
        0x00003566:    f8849000    ....    STRB     r9,[r4,#0]
        0x0000356a:    e7c6        ..      B        0x34fa ; Process_Received_Settings + 6566
        0x0000356c:    a17d        }.      ADR      r1,{pc}+0x1f8 ; 0x3764
        0x0000356e:    4849        IH      LDR      r0,[pc,#292] ; [0x3694] = 0x20003a51
        0x00003570:    f7fcfebd    ....    BL       strstr ; 0x2ee
        0x00003574:    b118        ..      CBZ      r0,0x357e ; Process_Received_Settings + 6698
        0x00003576:    f000f9a3    ....    BL       ReadSettingsFile ; 0x38c0
        0x0000357a:    7375        us      STRB     r5,[r6,#0xd]
        0x0000357c:    e009        ..      B        0x3592 ; Process_Received_Settings + 6718
        0x0000357e:    f2af31dc    ...1    ADR      r1,{pc}-0x3da ; 0x31a4
        0x00003582:    4844        DH      LDR      r0,[pc,#272] ; [0x3694] = 0x20003a51
        0x00003584:    f7fcfeb3    ....    BL       strstr ; 0x2ee
        0x00003588:    b158        X.      CBZ      r0,0x35a2 ; Process_Received_Settings + 6734
        0x0000358a:    f000f999    ....    BL       ReadSettingsFile ; 0x38c0
        0x0000358e:    f886800d    ....    STRB     r8,[r6,#0xd]
        0x00003592:    f001fb25    ..%.    BL       WriteSettingsFile ; 0x4be0
        0x00003596:    7c70        p|      LDRB     r0,[r6,#0x11]
        0x00003598:    2801        .(      CMP      r0,#1
        0x0000359a:    d14c        L.      BNE      0x3636 ; Process_Received_Settings + 6882
        0x0000359c:    2012        .       MOVS     r0,#0x12
        0x0000359e:    7020         p      STRB     r0,[r4,#0]
        0x000035a0:    e67d        }.      B        0x329e ; Process_Received_Settings + 5962
        0x000035a2:    f2af31f8    ...1    ADR      r1,{pc}-0x3f6 ; 0x31ac
        0x000035a6:    483b        ;H      LDR      r0,[pc,#236] ; [0x3694] = 0x20003a51
        0x000035a8:    f7fcfea1    ....    BL       strstr ; 0x2ee
        0x000035ac:    b120         .      CBZ      r0,0x35b8 ; Process_Received_Settings + 6756
        0x000035ae:    f000f987    ....    BL       ReadSettingsFile ; 0x38c0
        0x000035b2:    71f5        .q      STRB     r5,[r6,#7]
        0x000035b4:    f7ffbbe3    ....    B        0x2d7e ; Process_Received_Settings + 4650
        0x000035b8:    f2af4108    ...A    ADR      r1,{pc}-0x404 ; 0x31b4
        0x000035bc:    4835        5H      LDR      r0,[pc,#212] ; [0x3694] = 0x20003a51
        0x000035be:    f7fcfe96    ....    BL       strstr ; 0x2ee
        0x000035c2:    b138        8.      CBZ      r0,0x35d4 ; Process_Received_Settings + 6784
        0x000035c4:    f000f97c    ..|.    BL       ReadSettingsFile ; 0x38c0
        0x000035c8:    f8868007    ....    STRB     r8,[r6,#7]
        0x000035cc:    e7f2        ..      B        0x35b4 ; Process_Received_Settings + 6752
        0x000035ce:    f884b000    ....    STRB     r11,[r4,#0]
        0x000035d2:    e664        d.      B        0x329e ; Process_Received_Settings + 5962
        0x000035d4:    a165        e.      ADR      r1,{pc}+0x198 ; 0x376c
        0x000035d6:    482f        /H      LDR      r0,[pc,#188] ; [0x3694] = 0x20003a51
        0x000035d8:    f7fcfe89    ....    BL       strstr ; 0x2ee
        0x000035dc:    b118        ..      CBZ      r0,0x35e6 ; Process_Received_Settings + 6802
        0x000035de:    f000f96f    ..o.    BL       ReadSettingsFile ; 0x38c0
        0x000035e2:    7035        5p      STRB     r5,[r6,#0]
        0x000035e4:    e008        ..      B        0x35f8 ; Process_Received_Settings + 6820
        0x000035e6:    a163        c.      ADR      r1,{pc}+0x18e ; 0x3774
        0x000035e8:    482a        *H      LDR      r0,[pc,#168] ; [0x3694] = 0x20003a51
        0x000035ea:    f7fcfe80    ....    BL       strstr ; 0x2ee
        0x000035ee:    b150        P.      CBZ      r0,0x3606 ; Process_Received_Settings + 6834
        0x000035f0:    f000f966    ..f.    BL       ReadSettingsFile ; 0x38c0
        0x000035f4:    f8868000    ....    STRB     r8,[r6,#0]
        0x000035f8:    f001faf2    ....    BL       WriteSettingsFile ; 0x4be0
        0x000035fc:    7c70        p|      LDRB     r0,[r6,#0x11]
        0x000035fe:    2801        .(      CMP      r0,#1
        0x00003600:    d119        ..      BNE      0x3636 ; Process_Received_Settings + 6882
        0x00003602:    7025        %p      STRB     r5,[r4,#0]
        0x00003604:    e64b        K.      B        0x329e ; Process_Received_Settings + 5962
        0x00003606:    a15d        ].      ADR      r1,{pc}+0x176 ; 0x377c
        0x00003608:    4822        "H      LDR      r0,[pc,#136] ; [0x3694] = 0x20003a51
        0x0000360a:    f7fcfe70    ..p.    BL       strstr ; 0x2ee
        0x0000360e:    2705        .'      MOVS     r7,#5
        0x00003610:    b118        ..      CBZ      r0,0x361a ; Process_Received_Settings + 6854
        0x00003612:    f000f955    ..U.    BL       ReadSettingsFile ; 0x38c0
        0x00003616:    72f5        .r      STRB     r5,[r6,#0xb]
        0x00003618:    e008        ..      B        0x362c ; Process_Received_Settings + 6872
        0x0000361a:    a15a        Z.      ADR      r1,{pc}+0x16a ; 0x3784
        0x0000361c:    481d        .H      LDR      r0,[pc,#116] ; [0x3694] = 0x20003a51
        0x0000361e:    f7fcfe66    ..f.    BL       strstr ; 0x2ee
        0x00003622:    b1a0        ..      CBZ      r0,0x364e ; Process_Received_Settings + 6906
        0x00003624:    f000f94c    ..L.    BL       ReadSettingsFile ; 0x38c0
        0x00003628:    f886800b    ....    STRB     r8,[r6,#0xb]
        0x0000362c:    f001fad8    ....    BL       WriteSettingsFile ; 0x4be0
        0x00003630:    7c70        p|      LDRB     r0,[r6,#0x11]
        0x00003632:    2801        .(      CMP      r0,#1
        0x00003634:    d020         .      BEQ      0x3678 ; Process_Received_Settings + 6948
        0x00003636:    f000f943    ..C.    BL       ReadSettingsFile ; 0x38c0
        0x0000363a:    21c8        .!      MOVS     r1,#0xc8
        0x0000363c:    a804        ..      ADD      r0,sp,#0x10
        0x0000363e:    f7fcfe4b    ..K.    BL       __aeabi_memclr ; 0x2d8
        0x00003642:    b043        C.      ADD      sp,sp,#0x10c
        0x00003644:    2001        .       MOVS     r0,#1
        0x00003646:    ecbd8b04    ....    VPOP     {d8-d9}
        0x0000364a:    e8bd8ff0    ....    POP      {r4-r11,pc}
        0x0000364e:    a14f        O.      ADR      r1,{pc}+0x13e ; 0x378c
        0x00003650:    4810        .H      LDR      r0,[pc,#64] ; [0x3694] = 0x20003a51
        0x00003652:    f7fcfe4c    ..L.    BL       strstr ; 0x2ee
        0x00003656:    276b        k'      MOVS     r7,#0x6b
        0x00003658:    b118        ..      CBZ      r0,0x3662 ; Process_Received_Settings + 6926
        0x0000365a:    f000f931    ..1.    BL       ReadSettingsFile ; 0x38c0
        0x0000365e:    7475        ut      STRB     r5,[r6,#0x11]
        0x00003660:    e7e4        ..      B        0x362c ; Process_Received_Settings + 6872
        0x00003662:    a14d        M.      ADR      r1,{pc}+0x136 ; 0x3798
        0x00003664:    480b        .H      LDR      r0,[pc,#44] ; [0x3694] = 0x20003a51
        0x00003666:    f7fcfe42    ..B.    BL       strstr ; 0x2ee
        0x0000366a:    b138        8.      CBZ      r0,0x367c ; Process_Received_Settings + 6952
        0x0000366c:    f000f928    ..(.    BL       ReadSettingsFile ; 0x38c0
        0x00003670:    f8868011    ....    STRB     r8,[r6,#0x11]
        0x00003674:    f001fab4    ....    BL       WriteSettingsFile ; 0x4be0
        0x00003678:    7027        'p      STRB     r7,[r4,#0]
        0x0000367a:    e610        ..      B        0x329e ; Process_Received_Settings + 5962
        0x0000367c:    a149        I.      ADR      r1,{pc}+0x128 ; 0x37a4
        0x0000367e:    4805        .H      LDR      r0,[pc,#20] ; [0x3694] = 0x20003a51
        0x00003680:    f7fcfe35    ..5.    BL       strstr ; 0x2ee
        0x00003684:    b120         .      CBZ      r0,0x3690 ; Process_Received_Settings + 6972
        0x00003686:    f000f91b    ....    BL       ReadSettingsFile ; 0x38c0
        0x0000368a:    f8868012    ....    STRB     r8,[r6,#0x12]
        0x0000368e:    e7cd        ..      B        0x362c ; Process_Received_Settings + 6872
        0x00003690:    e08c        ..      B        0x37ac ; Process_Received_Settings + 7256
    $d
        0x00003692:    0000        ..      DCW    0
        0x00003694:    20003a51    Q:.     DCD    536885841
        0x00003698:    6e6f6c6f    olon    DCD    1852796015
        0x0000369c:    00000000    ....    DCD    0
        0x000036a0:    666f6c6f    olof    DCD    1718578287
        0x000036a4:    00000000    ....    DCD    0
        0x000036a8:    61687032    2pha    DCD    1634234418
        0x000036ac:    6e6f6573    seon    DCD    1852794227
        0x000036b0:    00000000    ....    DCD    0
        0x000036b4:    61687032    2pha    DCD    1634234418
        0x000036b8:    666f6573    seof    DCD    1718576499
        0x000036bc:    00000000    ....    DCD    0
        0x000036c0:    73726c6f    olrs    DCD    1936878703
        0x000036c4:    006e6f74    ton.    DCD    7237492
        0x000036c8:    73726c6f    olrs    DCD    1936878703
        0x000036cc:    00666f74    tof.    DCD    6713204
        0x000036d0:    73727264    drrs    DCD    1936880228
        0x000036d4:    006e6f74    ton.    DCD    7237492
        0x000036d8:    73727264    drrs    DCD    1936880228
        0x000036dc:    00666f74    tof.    DCD    6713204
        0x000036e0:    756e616d    manu    DCD    1970168173
        0x000036e4:    6e6f6c61    alon    DCD    1852796001
        0x000036e8:    00000000    ....    DCD    0
        0x000036ec:    756e616d    manu    DCD    1970168173
        0x000036f0:    666f6c61    alof    DCD    1718578273
        0x000036f4:    00000000    ....    DCD    0
        0x000036f8:    636f7264    droc    DCD    1668248164
        0x000036fc:    6e727563    curn    DCD    1852994915
        0x00003700:    00007262    br..    DCD    29282
        0x00003704:    6f727463    ctro    DCD    1869771875
        0x00003708:    0000006e    n...    DCD    110
        0x0000370c:    6f727463    ctro    DCD    1869771875
        0x00003710:    00000066    f...    DCD    102
        0x00003714:    6f797463    ctyo    DCD    1870230627
        0x00003718:    0000006e    n...    DCD    110
        0x0000371c:    6f797463    ctyo    DCD    1870230627
        0x00003720:    00000066    f...    DCD    102
        0x00003724:    6f627463    ctbo    DCD    1868723299
        0x00003728:    0000006e    n...    DCD    110
        0x0000372c:    6f627463    ctbo    DCD    1868723299
        0x00003730:    00000066    f...    DCD    102
        0x00003734:    6f747561    auto    DCD    1869903201
        0x00003738:    32747372    rst2    DCD    846492530
        0x0000373c:    00006e6f    on..    DCD    28271
        0x00003740:    6f747561    auto    DCD    1869903201
        0x00003744:    32747372    rst2    DCD    846492530
        0x00003748:    0000666f    of..    DCD    26223
        0x0000374c:    69626f6d    mobi    DCD    1768058733
        0x00003750:    7372656c    lers    DCD    1936876908
        0x00003754:    006e6f74    ton.    DCD    7237492
        0x00003758:    69626f6d    mobi    DCD    1768058733
        0x0000375c:    7372656c    lers    DCD    1936876908
        0x00003760:    00666f74    tof.    DCD    6713204
        0x00003764:    76727770    pwrv    DCD    1987213168
        0x00003768:    006e6f62    bon.    DCD    7237474
        0x0000376c:    6f736d73    smso    DCD    1869835635
        0x00003770:    0000006e    n...    DCD    110
        0x00003774:    6f736d73    smso    DCD    1869835635
        0x00003778:    00000066    f...    DCD    102
        0x0000377c:    6d737473    stsm    DCD    1836282995
        0x00003780:    006e6f73    son.    DCD    7237491
        0x00003784:    6d737473    stsm    DCD    1836282995
        0x00003788:    00666f73    sof.    DCD    6713203
        0x0000378c:    70736572    resp    DCD    1886610802
        0x00003790:    65736e6f    onse    DCD    1702063727
        0x00003794:    00006e6f    on..    DCD    28271
        0x00003798:    70736572    resp    DCD    1886610802
        0x0000379c:    65736e6f    onse    DCD    1702063727
        0x000037a0:    0000666f    of..    DCD    26223
        0x000037a4:    61726f6c    lora    DCD    1634889580
        0x000037a8:    00006e6f    on..    DCD    28271
    $t
        0x000037ac:    a10a        ..      ADR      r1,{pc}+0x2c ; 0x37d8
        0x000037ae:    480c        .H      LDR      r0,[pc,#48] ; [0x37e0] = 0x20003a51
        0x000037b0:    f7fcfd9d    ....    BL       strstr ; 0x2ee
        0x000037b4:    b118        ..      CBZ      r0,0x37be ; Process_Received_Settings + 7274
        0x000037b6:    f000f883    ....    BL       ReadSettingsFile ; 0x38c0
        0x000037ba:    74b5        .t      STRB     r5,[r6,#0x12]
        0x000037bc:    e736        6.      B        0x362c ; Process_Received_Settings + 6872
        0x000037be:    a109        ..      ADR      r1,{pc}+0x26 ; 0x37e4
        0x000037c0:    4807        .H      LDR      r0,[pc,#28] ; [0x37e0] = 0x20003a51
        0x000037c2:    f7fcfd94    ....    BL       strstr ; 0x2ee
        0x000037c6:    2800        .(      CMP      r0,#0
        0x000037c8:    f43faeb6    ?...    BEQ      0x3538 ; Process_Received_Settings + 6628
        0x000037cc:    f000f878    ..x.    BL       ReadSettingsFile ; 0x38c0
        0x000037d0:    2002        .       MOVS     r0,#2
        0x000037d2:    74b0        .t      STRB     r0,[r6,#0x12]
        0x000037d4:    e72a        *.      B        0x362c ; Process_Received_Settings + 6872
    $d
        0x000037d6:    0000        ..      DCW    0
        0x000037d8:    6f6d7367    gsmo    DCD    1869443943
        0x000037dc:    0000006e    n...    DCD    110
        0x000037e0:    20003a51    Q:.     DCD    536885841
        0x000037e4:    69666977    wifi    DCD    1768319351
        0x000037e8:    00006e6f    on..    DCD    28271
    $t
    i.ReadDateTime
    ReadDateTime
        0x000037ec:    b510        ..      PUSH     {r4,lr}
        0x000037ee:    2110        .!      MOVS     r1,#0x10
        0x000037f0:    2032        2       MOVS     r0,#0x32
        0x000037f2:    f7fef965    ..e.    BL       I2cReadByte ; 0x1ac0
        0x000037f6:    4b24        $K      LDR      r3,[pc,#144] ; [0x3888] = 0x200001a9
        0x000037f8:    7098        .p      STRB     r0,[r3,#2]
        0x000037fa:    1c98        ..      ADDS     r0,r3,#2
        0x000037fc:    f7fef890    ....    BL       Hex2BcdConversion ; 0x1920
        0x00003800:    2111        .!      MOVS     r1,#0x11
        0x00003802:    2032        2       MOVS     r0,#0x32
        0x00003804:    f7fef95c    ..\.    BL       I2cReadByte ; 0x1ac0
        0x00003808:    7058        Xp      STRB     r0,[r3,#1]
        0x0000380a:    1c58        X.      ADDS     r0,r3,#1
        0x0000380c:    f7fef888    ....    BL       Hex2BcdConversion ; 0x1920
        0x00003810:    2112        .!      MOVS     r1,#0x12
        0x00003812:    2032        2       MOVS     r0,#0x32
        0x00003814:    f7fef954    ..T.    BL       I2cReadByte ; 0x1ac0
        0x00003818:    7018        .p      STRB     r0,[r3,#0]
        0x0000381a:    481b        .H      LDR      r0,[pc,#108] ; [0x3888] = 0x200001a9
        0x0000381c:    f7fef880    ....    BL       Hex2BcdConversion ; 0x1920
        0x00003820:    2114        .!      MOVS     r1,#0x14
        0x00003822:    2032        2       MOVS     r0,#0x32
        0x00003824:    f7fef94c    ..L.    BL       I2cReadByte ; 0x1ac0
        0x00003828:    70d8        .p      STRB     r0,[r3,#3]
        0x0000382a:    1cd8        ..      ADDS     r0,r3,#3
        0x0000382c:    f7fef878    ..x.    BL       Hex2BcdConversion ; 0x1920
        0x00003830:    2115        .!      MOVS     r1,#0x15
        0x00003832:    2032        2       MOVS     r0,#0x32
        0x00003834:    f7fef944    ..D.    BL       I2cReadByte ; 0x1ac0
        0x00003838:    7118        .q      STRB     r0,[r3,#4]
        0x0000383a:    1d18        ..      ADDS     r0,r3,#4
        0x0000383c:    f7fef870    ..p.    BL       Hex2BcdConversion ; 0x1920
        0x00003840:    2116        .!      MOVS     r1,#0x16
        0x00003842:    2032        2       MOVS     r0,#0x32
        0x00003844:    f7fef93c    ..<.    BL       I2cReadByte ; 0x1ac0
        0x00003848:    7158        Xq      STRB     r0,[r3,#5]
        0x0000384a:    1d58        X.      ADDS     r0,r3,#5
        0x0000384c:    f7fef868    ..h.    BL       Hex2BcdConversion ; 0x1920
        0x00003850:    480e        .H      LDR      r0,[pc,#56] ; [0x388c] = 0x2000008a
        0x00003852:    7800        .x      LDRB     r0,[r0,#0]
        0x00003854:    2801        .(      CMP      r0,#1
        0x00003856:    d116        ..      BNE      0x3886 ; ReadDateTime + 154
        0x00003858:    461c        .F      MOV      r4,r3
        0x0000385a:    f9933002    ...0    LDRSB    r3,[r3,#2]
        0x0000385e:    f9942001    ...     LDRSB    r2,[r4,#1]
        0x00003862:    f9941000    ....    LDRSB    r1,[r4,#0]
        0x00003866:    a00a        ..      ADR      r0,{pc}+0x2a ; 0x3890
        0x00003868:    f001fd78    ..x.    BL       __0printf ; 0x535c
        0x0000386c:    f9943005    ...0    LDRSB    r3,[r4,#5]
        0x00003870:    f9942004    ...     LDRSB    r2,[r4,#4]
        0x00003874:    f9941003    ....    LDRSB    r1,[r4,#3]
        0x00003878:    e8bd4010    ...@    POP      {r4,lr}
        0x0000387c:    a00a        ..      ADR      r0,{pc}+0x2c ; 0x38a8
        0x0000387e:    f50363fa    ...c    ADD      r3,r3,#0x7d0
        0x00003882:    f001bd6b    ..k.    B.W      __0printf ; 0x535c
        0x00003886:    bd10        ..      POP      {r4,pc}
    $d
        0x00003888:    200001a9    ...     DCD    536871337
        0x0000388c:    2000008a    ...     DCD    536871050
        0x00003890:    454d4954    TIME    DCD    1162692948
        0x00003894:    3230253a    :%02    DCD    842016058
        0x00003898:    30253a64    d:%0    DCD    807746148
        0x0000389c:    253a6432    2d:%    DCD    624583730
        0x000038a0:    09643230    02d.    DCD    157561392
        0x000038a4:    00000000    ....    DCD    0
        0x000038a8:    45544144    DATE    DCD    1163149636
        0x000038ac:    3025203a    : %0    DCD    807739450
        0x000038b0:    252f6432    2d/%    DCD    623862834
        0x000038b4:    2f643230    02d/    DCD    795095600
        0x000038b8:    64343025    %04d    DCD    1681141797
        0x000038bc:    0000000a    ....    DCD    10
    $t
    i.ReadSettingsFile
    ReadSettingsFile
        0x000038c0:    e92d47f0    -..G    PUSH     {r4-r10,lr}
        0x000038c4:    b0a6        ..      SUB      sp,sp,#0x98
        0x000038c6:    2198        .!      MOVS     r1,#0x98
        0x000038c8:    4668        hF      MOV      r0,sp
        0x000038ca:    f7fcfd05    ....    BL       __aeabi_memclr ; 0x2d8
        0x000038ce:    2198        .!      MOVS     r1,#0x98
        0x000038d0:    4668        hF      MOV      r0,sp
        0x000038d2:    f7fcfd01    ....    BL       __aeabi_memclr ; 0x2d8
        0x000038d6:    2264        d"      MOVS     r2,#0x64
        0x000038d8:    f44f3178    O.x1    MOV      r1,#0x3e000
        0x000038dc:    4668        hF      MOV      r0,sp
        0x000038de:    f7fcfce2    ....    BL       __aeabi_memcpy ; 0x2a6
        0x000038e2:    4668        hF      MOV      r0,sp
        0x000038e4:    f7fcfd21    ..!.    BL       strlen ; 0x32a
        0x000038e8:    4680        .F      MOV      r8,r0
        0x000038ea:    4602        .F      MOV      r2,r0
        0x000038ec:    4669        iF      MOV      r1,sp
        0x000038ee:    a07d        }.      ADR      r0,{pc}+0x1f6 ; 0x3ae4
        0x000038f0:    f7fdfe52    ..R.    BL       Debug ; 0x1598
        0x000038f4:    f8dfa20c    ....    LDR      r10,[pc,#524] ; [0x3b04] = 0x20000078
        0x000038f8:    4e80        .N      LDR      r6,[pc,#512] ; [0x3afc] = 0x20000fe8
        0x000038fa:    4c81        .L      LDR      r4,[pc,#516] ; [0x3b00] = 0x20001140
        0x000038fc:    f50a7996    ...y    ADD      r9,r10,#0x12c
        0x00003900:    2500        .%      MOVS     r5,#0
        0x00003902:    f1a907ac    ....    SUB      r7,r9,#0xac
        0x00003906:    f1b80f0a    ....    CMP      r8,#0xa
        0x0000390a:    da21        !.      BGE      0x3950 ; ReadSettingsFile + 144
        0x0000390c:    71b5        .q      STRB     r5,[r6,#6]
        0x0000390e:    71f5        .q      STRB     r5,[r6,#7]
        0x00003910:    7235        5r      STRB     r5,[r6,#8]
        0x00003912:    7025        %p      STRB     r5,[r4,#0]
        0x00003914:    72e5        .r      STRB     r5,[r4,#0xb]
        0x00003916:    7065        ep      STRB     r5,[r4,#1]
        0x00003918:    70a5        .p      STRB     r5,[r4,#2]
        0x0000391a:    70e5        .p      STRB     r5,[r4,#3]
        0x0000391c:    7125        %q      STRB     r5,[r4,#4]
        0x0000391e:    7165        eq      STRB     r5,[r4,#5]
        0x00003920:    71a5        .q      STRB     r5,[r4,#6]
        0x00003922:    7325        %s      STRB     r5,[r4,#0xc]
        0x00003924:    7365        es      STRB     r5,[r4,#0xd]
        0x00003926:    71e5        .q      STRB     r5,[r4,#7]
        0x00003928:    7225        %r      STRB     r5,[r4,#8]
        0x0000392a:    7265        er      STRB     r5,[r4,#9]
        0x0000392c:    f88650d3    ...P    STRB     r5,[r6,#0xd3]
        0x00003930:    66f5        .f      STR      r5,[r6,#0x6c]
        0x00003932:    637d        }c      STR      r5,[r7,#0x34]
        0x00003934:    f88a5064    ..dP    STRB     r5,[r10,#0x64]
        0x00003938:    f8895000    ...P    STRB     r5,[r9,#0]
        0x0000393c:    f8895001    ...P    STRB     r5,[r9,#1]
        0x00003940:    f8895002    ...P    STRB     r5,[r9,#2]
        0x00003944:    f8895003    ...P    STRB     r5,[r9,#3]
        0x00003948:    1e68        h.      SUBS     r0,r5,#1
        0x0000394a:    b026        &.      ADD      sp,sp,#0x98
        0x0000394c:    e8bd87f0    ....    POP      {r4-r10,pc}
        0x00003950:    a16d        m.      ADR      r1,{pc}+0x1b8 ; 0x3b08
        0x00003952:    4668        hF      MOV      r0,sp
        0x00003954:    f7fcfcfa    ....    BL       strtok ; 0x34c
        0x00003958:    807d        }.      STRH     r5,[r7,#2]
        0x0000395a:    4601        .F      MOV      r1,r0
        0x0000395c:    4d6b        kM      LDR      r5,[pc,#428] ; [0x3b0c] = 0x20003a51
        0x0000395e:    e00e        ..      B        0x397e ; ReadSettingsFile + 190
        0x00003960:    8878        x.      LDRH     r0,[r7,#2]
        0x00003962:    eb000080    ....    ADD      r0,r0,r0,LSL #2
        0x00003966:    eb050080    ....    ADD      r0,r5,r0,LSL #2
        0x0000396a:    f7fcfce5    ....    BL       strcpy ; 0x338
        0x0000396e:    8878        x.      LDRH     r0,[r7,#2]
        0x00003970:    a165        e.      ADR      r1,{pc}+0x198 ; 0x3b08
        0x00003972:    1c40        @.      ADDS     r0,r0,#1
        0x00003974:    8078        x.      STRH     r0,[r7,#2]
        0x00003976:    2000        .       MOVS     r0,#0
        0x00003978:    f7fcfce8    ....    BL       strtok ; 0x34c
        0x0000397c:    4601        .F      MOV      r1,r0
        0x0000397e:    2900        .)      CMP      r1,#0
        0x00003980:    d1ee        ..      BNE      0x3960 ; ReadSettingsFile + 160
        0x00003982:    4862        bH      LDR      r0,[pc,#392] ; [0x3b0c] = 0x20003a51
        0x00003984:    3014        .0      ADDS     r0,r0,#0x14
        0x00003986:    f002ffab    ....    BL       myatoi ; 0x68e0
        0x0000398a:    7020         p      STRB     r0,[r4,#0]
        0x0000398c:    485f        _H      LDR      r0,[pc,#380] ; [0x3b0c] = 0x20003a51
        0x0000398e:    3028        (0      ADDS     r0,r0,#0x28
        0x00003990:    f002ffa6    ....    BL       myatoi ; 0x68e0
        0x00003994:    7060        `p      STRB     r0,[r4,#1]
        0x00003996:    485d        ]H      LDR      r0,[pc,#372] ; [0x3b0c] = 0x20003a51
        0x00003998:    303c        <0      ADDS     r0,r0,#0x3c
        0x0000399a:    f002ffa1    ....    BL       myatoi ; 0x68e0
        0x0000399e:    70a0        .p      STRB     r0,[r4,#2]
        0x000039a0:    485a        ZH      LDR      r0,[pc,#360] ; [0x3b0c] = 0x20003a51
        0x000039a2:    3050        P0      ADDS     r0,r0,#0x50
        0x000039a4:    f002ff9c    ....    BL       myatoi ; 0x68e0
        0x000039a8:    70e0        .p      STRB     r0,[r4,#3]
        0x000039aa:    4858        XH      LDR      r0,[pc,#352] ; [0x3b0c] = 0x20003a51
        0x000039ac:    3064        d0      ADDS     r0,r0,#0x64
        0x000039ae:    f002ff97    ....    BL       myatoi ; 0x68e0
        0x000039b2:    7120         q      STRB     r0,[r4,#4]
        0x000039b4:    4855        UH      LDR      r0,[pc,#340] ; [0x3b0c] = 0x20003a51
        0x000039b6:    3078        x0      ADDS     r0,r0,#0x78
        0x000039b8:    f002ff92    ....    BL       myatoi ; 0x68e0
        0x000039bc:    7160        `q      STRB     r0,[r4,#5]
        0x000039be:    4853        SH      LDR      r0,[pc,#332] ; [0x3b0c] = 0x20003a51
        0x000039c0:    308c        .0      ADDS     r0,r0,#0x8c
        0x000039c2:    f002ff8d    ....    BL       myatoi ; 0x68e0
        0x000039c6:    71a0        .q      STRB     r0,[r4,#6]
        0x000039c8:    4850        PH      LDR      r0,[pc,#320] ; [0x3b0c] = 0x20003a51
        0x000039ca:    30a0        .0      ADDS     r0,r0,#0xa0
        0x000039cc:    f002ff88    ....    BL       myatoi ; 0x68e0
        0x000039d0:    71e0        .q      STRB     r0,[r4,#7]
        0x000039d2:    484e        NH      LDR      r0,[pc,#312] ; [0x3b0c] = 0x20003a51
        0x000039d4:    30b4        .0      ADDS     r0,r0,#0xb4
        0x000039d6:    f002ff83    ....    BL       myatoi ; 0x68e0
        0x000039da:    7220         r      STRB     r0,[r4,#8]
        0x000039dc:    484b        KH      LDR      r0,[pc,#300] ; [0x3b0c] = 0x20003a51
        0x000039de:    30c8        .0      ADDS     r0,r0,#0xc8
        0x000039e0:    f002ff7e    ..~.    BL       myatoi ; 0x68e0
        0x000039e4:    7260        `r      STRB     r0,[r4,#9]
        0x000039e6:    4849        IH      LDR      r0,[pc,#292] ; [0x3b0c] = 0x20003a51
        0x000039e8:    30dc        .0      ADDS     r0,r0,#0xdc
        0x000039ea:    f002ff79    ..y.    BL       myatoi ; 0x68e0
        0x000039ee:    f88600d3    ....    STRB     r0,[r6,#0xd3]
        0x000039f2:    4846        FH      LDR      r0,[pc,#280] ; [0x3b0c] = 0x20003a51
        0x000039f4:    30f0        .0      ADDS     r0,r0,#0xf0
        0x000039f6:    f002ff73    ..s.    BL       myatoi ; 0x68e0
        0x000039fa:    66f0        .f      STR      r0,[r6,#0x6c]
        0x000039fc:    4844        DH      LDR      r0,[pc,#272] ; [0x3b10] = 0x20003b55
        0x000039fe:    f002ff6f    ..o.    BL       myatoi ; 0x68e0
        0x00003a02:    6378        xc      STR      r0,[r7,#0x34]
        0x00003a04:    4842        BH      LDR      r0,[pc,#264] ; [0x3b10] = 0x20003b55
        0x00003a06:    3014        .0      ADDS     r0,r0,#0x14
        0x00003a08:    f002ff6a    ..j.    BL       myatoi ; 0x68e0
        0x00003a0c:    72a0        .r      STRB     r0,[r4,#0xa]
        0x00003a0e:    4840        @H      LDR      r0,[pc,#256] ; [0x3b10] = 0x20003b55
        0x00003a10:    3028        (0      ADDS     r0,r0,#0x28
        0x00003a12:    f002ff65    ..e.    BL       myatoi ; 0x68e0
        0x00003a16:    72e0        .r      STRB     r0,[r4,#0xb]
        0x00003a18:    483d        =H      LDR      r0,[pc,#244] ; [0x3b10] = 0x20003b55
        0x00003a1a:    303c        <0      ADDS     r0,r0,#0x3c
        0x00003a1c:    f002ff60    ..`.    BL       myatoi ; 0x68e0
        0x00003a20:    71b0        .q      STRB     r0,[r6,#6]
        0x00003a22:    483b        ;H      LDR      r0,[pc,#236] ; [0x3b10] = 0x20003b55
        0x00003a24:    3050        P0      ADDS     r0,r0,#0x50
        0x00003a26:    f002ff5b    ..[.    BL       myatoi ; 0x68e0
        0x00003a2a:    71f0        .q      STRB     r0,[r6,#7]
        0x00003a2c:    4838        8H      LDR      r0,[pc,#224] ; [0x3b10] = 0x20003b55
        0x00003a2e:    3064        d0      ADDS     r0,r0,#0x64
        0x00003a30:    f002ff56    ..V.    BL       myatoi ; 0x68e0
        0x00003a34:    7230        0r      STRB     r0,[r6,#8]
        0x00003a36:    4836        6H      LDR      r0,[pc,#216] ; [0x3b10] = 0x20003b55
        0x00003a38:    3078        x0      ADDS     r0,r0,#0x78
        0x00003a3a:    f002ff51    ..Q.    BL       myatoi ; 0x68e0
        0x00003a3e:    f88a0064    ..d.    STRB     r0,[r10,#0x64]
        0x00003a42:    4833        3H      LDR      r0,[pc,#204] ; [0x3b10] = 0x20003b55
        0x00003a44:    f10a054b    ..K.    ADD      r5,r10,#0x4b
        0x00003a48:    308c        .0      ADDS     r0,r0,#0x8c
        0x00003a4a:    f002ff49    ..I.    BL       myatoi ; 0x68e0
        0x00003a4e:    76a8        .v      STRB     r0,[r5,#0x1a]
        0x00003a50:    482f        /H      LDR      r0,[pc,#188] ; [0x3b10] = 0x20003b55
        0x00003a52:    30a0        .0      ADDS     r0,r0,#0xa0
        0x00003a54:    f002ff44    ..D.    BL       myatoi ; 0x68e0
        0x00003a58:    7320         s      STRB     r0,[r4,#0xc]
        0x00003a5a:    482d        -H      LDR      r0,[pc,#180] ; [0x3b10] = 0x20003b55
        0x00003a5c:    30b4        .0      ADDS     r0,r0,#0xb4
        0x00003a5e:    f002ff3f    ..?.    BL       myatoi ; 0x68e0
        0x00003a62:    7360        `s      STRB     r0,[r4,#0xd]
        0x00003a64:    482a        *H      LDR      r0,[pc,#168] ; [0x3b10] = 0x20003b55
        0x00003a66:    30c8        .0      ADDS     r0,r0,#0xc8
        0x00003a68:    f002ff3a    ..:.    BL       myatoi ; 0x68e0
        0x00003a6c:    f8890000    ....    STRB     r0,[r9,#0]
        0x00003a70:    4827        'H      LDR      r0,[pc,#156] ; [0x3b10] = 0x20003b55
        0x00003a72:    464e        NF      MOV      r6,r9
        0x00003a74:    30dc        .0      ADDS     r0,r0,#0xdc
        0x00003a76:    f002ff33    ..3.    BL       myatoi ; 0x68e0
        0x00003a7a:    7070        pp      STRB     r0,[r6,#1]
        0x00003a7c:    4824        $H      LDR      r0,[pc,#144] ; [0x3b10] = 0x20003b55
        0x00003a7e:    30f0        .0      ADDS     r0,r0,#0xf0
        0x00003a80:    f002ff2e    ....    BL       myatoi ; 0x68e0
        0x00003a84:    70b0        .p      STRB     r0,[r6,#2]
        0x00003a86:    4823        #H      LDR      r0,[pc,#140] ; [0x3b14] = 0x20003c59
        0x00003a88:    f002ff2a    ..*.    BL       myatoi ; 0x68e0
        0x00003a8c:    70f0        .p      STRB     r0,[r6,#3]
        0x00003a8e:    4821        !H      LDR      r0,[pc,#132] ; [0x3b14] = 0x20003c59
        0x00003a90:    3014        .0      ADDS     r0,r0,#0x14
        0x00003a92:    f002ff25    ..%.    BL       myatoi ; 0x68e0
        0x00003a96:    75a8        .u      STRB     r0,[r5,#0x16]
        0x00003a98:    481e        .H      LDR      r0,[pc,#120] ; [0x3b14] = 0x20003c59
        0x00003a9a:    3028        (0      ADDS     r0,r0,#0x28
        0x00003a9c:    f002ff20    .. .    BL       myatoi ; 0x68e0
        0x00003aa0:    77a8        .w      STRB     r0,[r5,#0x1e]
        0x00003aa2:    481c        .H      LDR      r0,[pc,#112] ; [0x3b14] = 0x20003c59
        0x00003aa4:    303c        <0      ADDS     r0,r0,#0x3c
        0x00003aa6:    f002ff1b    ....    BL       myatoi ; 0x68e0
        0x00003aaa:    f8050c0f    ....    STRB     r0,[r5,#-0xf]
        0x00003aae:    4819        .H      LDR      r0,[pc,#100] ; [0x3b14] = 0x20003c59
        0x00003ab0:    3050        P0      ADDS     r0,r0,#0x50
        0x00003ab2:    f002ff15    ....    BL       myatoi ; 0x68e0
        0x00003ab6:    77e8        .w      STRB     r0,[r5,#0x1f]
        0x00003ab8:    4816        .H      LDR      r0,[pc,#88] ; [0x3b14] = 0x20003c59
        0x00003aba:    3064        d0      ADDS     r0,r0,#0x64
        0x00003abc:    f002ff10    ....    BL       myatoi ; 0x68e0
        0x00003ac0:    73e0        .s      STRB     r0,[r4,#0xf]
        0x00003ac2:    4814        .H      LDR      r0,[pc,#80] ; [0x3b14] = 0x20003c59
        0x00003ac4:    3078        x0      ADDS     r0,r0,#0x78
        0x00003ac6:    f002ff0b    ....    BL       myatoi ; 0x68e0
        0x00003aca:    7420         t      STRB     r0,[r4,#0x10]
        0x00003acc:    4811        .H      LDR      r0,[pc,#68] ; [0x3b14] = 0x20003c59
        0x00003ace:    308c        .0      ADDS     r0,r0,#0x8c
        0x00003ad0:    f002ff06    ....    BL       myatoi ; 0x68e0
        0x00003ad4:    74a0        .t      STRB     r0,[r4,#0x12]
        0x00003ad6:    480f        .H      LDR      r0,[pc,#60] ; [0x3b14] = 0x20003c59
        0x00003ad8:    30a0        .0      ADDS     r0,r0,#0xa0
        0x00003ada:    f002ff01    ....    BL       myatoi ; 0x68e0
        0x00003ade:    7460        `t      STRB     r0,[r4,#0x11]
        0x00003ae0:    2000        .       MOVS     r0,#0
        0x00003ae2:    e732        2.      B        0x394a ; ReadSettingsFile + 138
    $d
        0x00003ae4:    64616552    Read    DCD    1684104530
        0x00003ae8:    74746553    Sett    DCD    1953785171
        0x00003aec:    73676e69    ings    DCD    1936158313
        0x00003af0:    656c6946    File    DCD    1701603654
        0x00003af4:    3d73253a    :%s=    DCD    1030956346
        0x00003af8:    00006425    %d..    DCD    25637
        0x00003afc:    20000fe8    ...     DCD    536874984
        0x00003b00:    20001140    @..     DCD    536875328
        0x00003b04:    20000078    x..     DCD    536871032
        0x00003b08:    0000002c    ,...    DCD    44
        0x00003b0c:    20003a51    Q:.     DCD    536885841
        0x00003b10:    20003b55    U;.     DCD    536886101
        0x00003b14:    20003c59    Y<.     DCD    536886361
    $t
    i.ReadTimerSettings
    ReadTimerSettings
        0x00003b18:    e92d41f0    -..A    PUSH     {r4-r8,lr}
        0x00003b1c:    f44f7416    O..t    MOV      r4,#0x258
        0x00003b20:    ed2d8b0e    -...    VPUSH    {d8-d14}
        0x00003b24:    f5ad7d1a    ...}    SUB      sp,sp,#0x268
        0x00003b28:    4621        !F      MOV      r1,r4
        0x00003b2a:    a804        ..      ADD      r0,sp,#0x10
        0x00003b2c:    f7fcfbd4    ....    BL       __aeabi_memclr ; 0x2d8
        0x00003b30:    4621        !F      MOV      r1,r4
        0x00003b32:    a804        ..      ADD      r0,sp,#0x10
        0x00003b34:    f7fcfbd0    ....    BL       __aeabi_memclr ; 0x2d8
        0x00003b38:    4622        "F      MOV      r2,r4
        0x00003b3a:    f44f317c    O.|1    MOV      r1,#0x3f000
        0x00003b3e:    a804        ..      ADD      r0,sp,#0x10
        0x00003b40:    f7fcfbb1    ....    BL       __aeabi_memcpy ; 0x2a6
        0x00003b44:    a804        ..      ADD      r0,sp,#0x10
        0x00003b46:    f7fcfbf0    ....    BL       strlen ; 0x32a
        0x00003b4a:    4607        .F      MOV      r7,r0
        0x00003b4c:    4602        .F      MOV      r2,r0
        0x00003b4e:    a904        ..      ADD      r1,sp,#0x10
        0x00003b50:    a0f7        ..      ADR      r0,{pc}+0x3e0 ; 0x3f30
        0x00003b52:    f7fdfd21    ..!.    BL       Debug ; 0x1598
        0x00003b56:    4efc        .N      LDR      r6,[pc,#1008] ; [0x3f48] = 0x200000f8
        0x00003b58:    2500        .%      MOVS     r5,#0
        0x00003b5a:    ed9fabfc    ....    VLDR     d10,[pc,#1008] ; [0x3f4c] = 0
        0x00003b5e:    ed9f8bfd    ....    VLDR     d8,[pc,#1012] ; [0x3f54] = 0
        0x00003b62:    4cfe        .L      LDR      r4,[pc,#1016] ; [0x3f5c] = 0x20000fe8
        0x00003b64:    2f46        F/      CMP      r7,#0x46
        0x00003b66:    da7c        |.      BGE      0x3c62 ; ReadTimerSettings + 330
        0x00003b68:    7025        %p      STRB     r5,[r4,#0]
        0x00003b6a:    7065        ep      STRB     r5,[r4,#1]
        0x00003b6c:    70a5        .p      STRB     r5,[r4,#2]
        0x00003b6e:    70e5        .p      STRB     r5,[r4,#3]
        0x00003b70:    7125        %q      STRB     r5,[r4,#4]
        0x00003b72:    7165        eq      STRB     r5,[r4,#5]
        0x00003b74:    7265        er      STRB     r5,[r4,#9]
        0x00003b76:    7325        %s      STRB     r5,[r4,#0xc]
        0x00003b78:    7365        es      STRB     r5,[r4,#0xd]
        0x00003b7a:    73a5        .s      STRB     r5,[r4,#0xe]
        0x00003b7c:    73e5        .s      STRB     r5,[r4,#0xf]
        0x00003b7e:    7425        %t      STRB     r5,[r4,#0x10]
        0x00003b80:    7465        et      STRB     r5,[r4,#0x11]
        0x00003b82:    74a5        .t      STRB     r5,[r4,#0x12]
        0x00003b84:    74e5        .t      STRB     r5,[r4,#0x13]
        0x00003b86:    7525        %u      STRB     r5,[r4,#0x14]
        0x00003b88:    7565        eu      STRB     r5,[r4,#0x15]
        0x00003b8a:    75a5        .u      STRB     r5,[r4,#0x16]
        0x00003b8c:    75e5        .u      STRB     r5,[r4,#0x17]
        0x00003b8e:    7625        %v      STRB     r5,[r4,#0x18]
        0x00003b90:    7665        ev      STRB     r5,[r4,#0x19]
        0x00003b92:    76a5        .v      STRB     r5,[r4,#0x1a]
        0x00003b94:    7765        ew      STRB     r5,[r4,#0x1d]
        0x00003b96:    77a5        .w      STRB     r5,[r4,#0x1e]
        0x00003b98:    77e5        .w      STRB     r5,[r4,#0x1f]
        0x00003b9a:    f8845020    .. P    STRB     r5,[r4,#0x20]
        0x00003b9e:    f8845021    ..!P    STRB     r5,[r4,#0x21]
        0x00003ba2:    76e5        .v      STRB     r5,[r4,#0x1b]
        0x00003ba4:    7725        %w      STRB     r5,[r4,#0x1c]
        0x00003ba6:    f8845022    .."P    STRB     r5,[r4,#0x22]
        0x00003baa:    2101        .!      MOVS     r1,#1
        0x00003bac:    81f1        ..      STRH     r1,[r6,#0xe]
        0x00003bae:    89f2        ..      LDRH     r2,[r6,#0xe]
        0x00003bb0:    18a0        ..      ADDS     r0,r4,r2
        0x00003bb2:    1c52        R.      ADDS     r2,r2,#1
        0x00003bb4:    f8005f23    ..#_    STRB     r5,[r0,#0x23]!
        0x00003bb8:    7145        Eq      STRB     r5,[r0,#5]
        0x00003bba:    7285        .r      STRB     r5,[r0,#0xa]
        0x00003bbc:    73c5        .s      STRB     r5,[r0,#0xf]
        0x00003bbe:    7505        .u      STRB     r5,[r0,#0x14]
        0x00003bc0:    7645        Ev      STRB     r5,[r0,#0x19]
        0x00003bc2:    b290        ..      UXTH     r0,r2
        0x00003bc4:    81f0        ..      STRH     r0,[r6,#0xe]
        0x00003bc6:    2805        .(      CMP      r0,#5
        0x00003bc8:    d3f1        ..      BCC      0x3bae ; ReadTimerSettings + 150
        0x00003bca:    f8845041    ..AP    STRB     r5,[r4,#0x41]
        0x00003bce:    f8845042    ..BP    STRB     r5,[r4,#0x42]
        0x00003bd2:    f8845043    ..CP    STRB     r5,[r4,#0x43]
        0x00003bd6:    f8845044    ..DP    STRB     r5,[r4,#0x44]
        0x00003bda:    f8845045    ..EP    STRB     r5,[r4,#0x45]
        0x00003bde:    f8845046    ..FP    STRB     r5,[r4,#0x46]
        0x00003be2:    f8845047    ..GP    STRB     r5,[r4,#0x47]
        0x00003be6:    f8845048    ..HP    STRB     r5,[r4,#0x48]
        0x00003bea:    f8845049    ..IP    STRB     r5,[r4,#0x49]
        0x00003bee:    64e5        .d      STR      r5,[r4,#0x4c]
        0x00003bf0:    6525        %e      STR      r5,[r4,#0x50]
        0x00003bf2:    f8845054    ..TP    STRB     r5,[r4,#0x54]
        0x00003bf6:    65a5        .e      STR      r5,[r4,#0x58]
        0x00003bf8:    65e5        .e      STR      r5,[r4,#0x5c]
        0x00003bfa:    66a5        .f      STR      r5,[r4,#0x68]
        0x00003bfc:    f8845074    ..tP    STRB     r5,[r4,#0x74]
        0x00003c00:    f8845075    ..uP    STRB     r5,[r4,#0x75]
        0x00003c04:    f8845076    ..vP    STRB     r5,[r4,#0x76]
        0x00003c08:    f8845077    ..wP    STRB     r5,[r4,#0x77]
        0x00003c0c:    ed84ab28    ..(.    VSTR     d10,[r4,#0xa0]
        0x00003c10:    ed84ab2a    ..*.    VSTR     d10,[r4,#0xa8]
        0x00003c14:    f88450cc    ...P    STRB     r5,[r4,#0xcc]
        0x00003c18:    f88450cd    ...P    STRB     r5,[r4,#0xcd]
        0x00003c1c:    f88450ce    ...P    STRB     r5,[r4,#0xce]
        0x00003c20:    ed84ab20    .. .    VSTR     d10,[r4,#0x80]
        0x00003c24:    ed84ab22    ..".    VSTR     d10,[r4,#0x88]
        0x00003c28:    ed84ab24    ..$.    VSTR     d10,[r4,#0x90]
        0x00003c2c:    ed84ab26    ..&.    VSTR     d10,[r4,#0x98]
        0x00003c30:    f88450d0    ...P    STRB     r5,[r4,#0xd0]
        0x00003c34:    f88450d1    ...P    STRB     r5,[r4,#0xd1]
        0x00003c38:    f88450d2    ...P    STRB     r5,[r4,#0xd2]
        0x00003c3c:    f88450d4    ...P    STRB     r5,[r4,#0xd4]
        0x00003c40:    f88450d5    ...P    STRB     r5,[r4,#0xd5]
        0x00003c44:    f88450d6    ...P    STRB     r5,[r4,#0xd6]
        0x00003c48:    f88450d7    ...P    STRB     r5,[r4,#0xd7]
        0x00003c4c:    f88450d8    ...P    STRB     r5,[r4,#0xd8]
        0x00003c50:    f88450d9    ...P    STRB     r5,[r4,#0xd9]
        0x00003c54:    f88450da    ...P    STRB     r5,[r4,#0xda]
        0x00003c58:    f88450db    ...P    STRB     r5,[r4,#0xdb]
        0x00003c5c:    6625        %f      STR      r5,[r4,#0x60]
        0x00003c5e:    6665        ef      STR      r5,[r4,#0x64]
        0x00003c60:    e000        ..      B        0x3c64 ; ReadTimerSettings + 332
        0x00003c62:    e029        ).      B        0x3cb8 ; ReadTimerSettings + 416
        0x00003c64:    ed848b38    ..8.    VSTR     d8,[r4,#0xe0]
        0x00003c68:    ed848b3a    ..:.    VSTR     d8,[r4,#0xe8]
        0x00003c6c:    ed848b3c    ..<.    VSTR     d8,[r4,#0xf0]
        0x00003c70:    ed848b3e    ..>.    VSTR     d8,[r4,#0xf8]
        0x00003c74:    ed848b40    ..@.    VSTR     d8,[r4,#0x100]
        0x00003c78:    ed848b42    ..B.    VSTR     d8,[r4,#0x108]
        0x00003c7c:    f884111c    ....    STRB     r1,[r4,#0x11c]
        0x00003c80:    f884111d    ....    STRB     r1,[r4,#0x11d]
        0x00003c84:    f884111e    ....    STRB     r1,[r4,#0x11e]
        0x00003c88:    f884111f    ....    STRB     r1,[r4,#0x11f]
        0x00003c8c:    f8841120    .. .    STRB     r1,[r4,#0x120]
        0x00003c90:    f8c45124    ..$Q    STR      r5,[r4,#0x124]
        0x00003c94:    f8c45128    ..(Q    STR      r5,[r4,#0x128]
        0x00003c98:    ed84ab2c    ..,.    VSTR     d10,[r4,#0xb0]
        0x00003c9c:    ed84ab2e    ....    VSTR     d10,[r4,#0xb8]
        0x00003ca0:    f8845078    ..xP    STRB     r5,[r4,#0x78]
        0x00003ca4:    f8845079    ..yP    STRB     r5,[r4,#0x79]
        0x00003ca8:    f50d7d1a    ...}    ADD      sp,sp,#0x268
        0x00003cac:    f04f30ff    O..0    MOV      r0,#0xffffffff
        0x00003cb0:    ecbd8b0e    ....    VPOP     {d8-d14}
        0x00003cb4:    e8bd81f0    ....    POP      {r4-r8,pc}
        0x00003cb8:    a1a9        ..      ADR      r1,{pc}+0x2a8 ; 0x3f60
        0x00003cba:    a804        ..      ADD      r0,sp,#0x10
        0x00003cbc:    f7fcfb46    ..F.    BL       strtok ; 0x34c
        0x00003cc0:    4601        .F      MOV      r1,r0
        0x00003cc2:    8035        5.      STRH     r5,[r6,#0]
        0x00003cc4:    4fa7        .O      LDR      r7,[pc,#668] ; [0x3f64] = 0x20002e99
        0x00003cc6:    e00e        ..      B        0x3ce6 ; ReadTimerSettings + 462
        0x00003cc8:    8830        0.      LDRH     r0,[r6,#0]
        0x00003cca:    eb000080    ....    ADD      r0,r0,r0,LSL #2
        0x00003cce:    eb070080    ....    ADD      r0,r7,r0,LSL #2
        0x00003cd2:    f7fcfb31    ..1.    BL       strcpy ; 0x338
        0x00003cd6:    8830        0.      LDRH     r0,[r6,#0]
        0x00003cd8:    a1a1        ..      ADR      r1,{pc}+0x288 ; 0x3f60
        0x00003cda:    1c40        @.      ADDS     r0,r0,#1
        0x00003cdc:    8030        0.      STRH     r0,[r6,#0]
        0x00003cde:    2000        .       MOVS     r0,#0
        0x00003ce0:    f7fcfb34    ..4.    BL       strtok ; 0x34c
        0x00003ce4:    4601        .F      MOV      r1,r0
        0x00003ce6:    2900        .)      CMP      r1,#0
        0x00003ce8:    d1ee        ..      BNE      0x3cc8 ; ReadTimerSettings + 432
        0x00003cea:    489e        .H      LDR      r0,[pc,#632] ; [0x3f64] = 0x20002e99
        0x00003cec:    3014        .0      ADDS     r0,r0,#0x14
        0x00003cee:    f002fdf7    ....    BL       myatoi ; 0x68e0
        0x00003cf2:    7020         p      STRB     r0,[r4,#0]
        0x00003cf4:    489b        .H      LDR      r0,[pc,#620] ; [0x3f64] = 0x20002e99
        0x00003cf6:    3028        (0      ADDS     r0,r0,#0x28
        0x00003cf8:    f002fdf2    ....    BL       myatoi ; 0x68e0
        0x00003cfc:    7060        `p      STRB     r0,[r4,#1]
        0x00003cfe:    4899        .H      LDR      r0,[pc,#612] ; [0x3f64] = 0x20002e99
        0x00003d00:    303c        <0      ADDS     r0,r0,#0x3c
        0x00003d02:    f002fded    ....    BL       myatoi ; 0x68e0
        0x00003d06:    70a0        .p      STRB     r0,[r4,#2]
        0x00003d08:    4896        .H      LDR      r0,[pc,#600] ; [0x3f64] = 0x20002e99
        0x00003d0a:    3050        P0      ADDS     r0,r0,#0x50
        0x00003d0c:    f002fde8    ....    BL       myatoi ; 0x68e0
        0x00003d10:    70e0        .p      STRB     r0,[r4,#3]
        0x00003d12:    4894        .H      LDR      r0,[pc,#592] ; [0x3f64] = 0x20002e99
        0x00003d14:    3064        d0      ADDS     r0,r0,#0x64
        0x00003d16:    f002fde3    ....    BL       myatoi ; 0x68e0
        0x00003d1a:    7120         q      STRB     r0,[r4,#4]
        0x00003d1c:    4891        .H      LDR      r0,[pc,#580] ; [0x3f64] = 0x20002e99
        0x00003d1e:    3078        x0      ADDS     r0,r0,#0x78
        0x00003d20:    f002fdde    ....    BL       myatoi ; 0x68e0
        0x00003d24:    7160        `q      STRB     r0,[r4,#5]
        0x00003d26:    488f        .H      LDR      r0,[pc,#572] ; [0x3f64] = 0x20002e99
        0x00003d28:    308c        .0      ADDS     r0,r0,#0x8c
        0x00003d2a:    f002fdd9    ....    BL       myatoi ; 0x68e0
        0x00003d2e:    7260        `r      STRB     r0,[r4,#9]
        0x00003d30:    488c        .H      LDR      r0,[pc,#560] ; [0x3f64] = 0x20002e99
        0x00003d32:    30a0        .0      ADDS     r0,r0,#0xa0
        0x00003d34:    f002fdd4    ....    BL       myatoi ; 0x68e0
        0x00003d38:    7320         s      STRB     r0,[r4,#0xc]
        0x00003d3a:    488a        .H      LDR      r0,[pc,#552] ; [0x3f64] = 0x20002e99
        0x00003d3c:    30b4        .0      ADDS     r0,r0,#0xb4
        0x00003d3e:    f002fdcf    ....    BL       myatoi ; 0x68e0
        0x00003d42:    7360        `s      STRB     r0,[r4,#0xd]
        0x00003d44:    4887        .H      LDR      r0,[pc,#540] ; [0x3f64] = 0x20002e99
        0x00003d46:    30c8        .0      ADDS     r0,r0,#0xc8
        0x00003d48:    f002fdca    ....    BL       myatoi ; 0x68e0
        0x00003d4c:    73a0        .s      STRB     r0,[r4,#0xe]
        0x00003d4e:    4885        .H      LDR      r0,[pc,#532] ; [0x3f64] = 0x20002e99
        0x00003d50:    30dc        .0      ADDS     r0,r0,#0xdc
        0x00003d52:    f002fdc5    ....    BL       myatoi ; 0x68e0
        0x00003d56:    73e0        .s      STRB     r0,[r4,#0xf]
        0x00003d58:    4882        .H      LDR      r0,[pc,#520] ; [0x3f64] = 0x20002e99
        0x00003d5a:    30f0        .0      ADDS     r0,r0,#0xf0
        0x00003d5c:    f002fdc0    ....    BL       myatoi ; 0x68e0
        0x00003d60:    7420         t      STRB     r0,[r4,#0x10]
        0x00003d62:    4881        .H      LDR      r0,[pc,#516] ; [0x3f68] = 0x20002f9d
        0x00003d64:    f002fdbc    ....    BL       myatoi ; 0x68e0
        0x00003d68:    7460        `t      STRB     r0,[r4,#0x11]
        0x00003d6a:    487f        .H      LDR      r0,[pc,#508] ; [0x3f68] = 0x20002f9d
        0x00003d6c:    3014        .0      ADDS     r0,r0,#0x14
        0x00003d6e:    f002fdb7    ....    BL       myatoi ; 0x68e0
        0x00003d72:    74a0        .t      STRB     r0,[r4,#0x12]
        0x00003d74:    487c        |H      LDR      r0,[pc,#496] ; [0x3f68] = 0x20002f9d
        0x00003d76:    3028        (0      ADDS     r0,r0,#0x28
        0x00003d78:    f002fdb2    ....    BL       myatoi ; 0x68e0
        0x00003d7c:    74e0        .t      STRB     r0,[r4,#0x13]
        0x00003d7e:    487a        zH      LDR      r0,[pc,#488] ; [0x3f68] = 0x20002f9d
        0x00003d80:    303c        <0      ADDS     r0,r0,#0x3c
        0x00003d82:    f002fdad    ....    BL       myatoi ; 0x68e0
        0x00003d86:    7520         u      STRB     r0,[r4,#0x14]
        0x00003d88:    4877        wH      LDR      r0,[pc,#476] ; [0x3f68] = 0x20002f9d
        0x00003d8a:    3050        P0      ADDS     r0,r0,#0x50
        0x00003d8c:    f002fda8    ....    BL       myatoi ; 0x68e0
        0x00003d90:    7560        `u      STRB     r0,[r4,#0x15]
        0x00003d92:    4875        uH      LDR      r0,[pc,#468] ; [0x3f68] = 0x20002f9d
        0x00003d94:    3064        d0      ADDS     r0,r0,#0x64
        0x00003d96:    f002fda3    ....    BL       myatoi ; 0x68e0
        0x00003d9a:    75a0        .u      STRB     r0,[r4,#0x16]
        0x00003d9c:    4872        rH      LDR      r0,[pc,#456] ; [0x3f68] = 0x20002f9d
        0x00003d9e:    3078        x0      ADDS     r0,r0,#0x78
        0x00003da0:    f002fd9e    ....    BL       myatoi ; 0x68e0
        0x00003da4:    75e0        .u      STRB     r0,[r4,#0x17]
        0x00003da6:    4870        pH      LDR      r0,[pc,#448] ; [0x3f68] = 0x20002f9d
        0x00003da8:    308c        .0      ADDS     r0,r0,#0x8c
        0x00003daa:    f002fd99    ....    BL       myatoi ; 0x68e0
        0x00003dae:    7620         v      STRB     r0,[r4,#0x18]
        0x00003db0:    486d        mH      LDR      r0,[pc,#436] ; [0x3f68] = 0x20002f9d
        0x00003db2:    30a0        .0      ADDS     r0,r0,#0xa0
        0x00003db4:    f002fd94    ....    BL       myatoi ; 0x68e0
        0x00003db8:    7660        `v      STRB     r0,[r4,#0x19]
        0x00003dba:    486b        kH      LDR      r0,[pc,#428] ; [0x3f68] = 0x20002f9d
        0x00003dbc:    30b4        .0      ADDS     r0,r0,#0xb4
        0x00003dbe:    f002fd8f    ....    BL       myatoi ; 0x68e0
        0x00003dc2:    76a0        .v      STRB     r0,[r4,#0x1a]
        0x00003dc4:    4868        hH      LDR      r0,[pc,#416] ; [0x3f68] = 0x20002f9d
        0x00003dc6:    30c8        .0      ADDS     r0,r0,#0xc8
        0x00003dc8:    f002fd8a    ....    BL       myatoi ; 0x68e0
        0x00003dcc:    7760        `w      STRB     r0,[r4,#0x1d]
        0x00003dce:    4866        fH      LDR      r0,[pc,#408] ; [0x3f68] = 0x20002f9d
        0x00003dd0:    30dc        .0      ADDS     r0,r0,#0xdc
        0x00003dd2:    f002fd85    ....    BL       myatoi ; 0x68e0
        0x00003dd6:    77a0        .w      STRB     r0,[r4,#0x1e]
        0x00003dd8:    4863        cH      LDR      r0,[pc,#396] ; [0x3f68] = 0x20002f9d
        0x00003dda:    30f0        .0      ADDS     r0,r0,#0xf0
        0x00003ddc:    f002fd80    ....    BL       myatoi ; 0x68e0
        0x00003de0:    77e0        .w      STRB     r0,[r4,#0x1f]
        0x00003de2:    4862        bH      LDR      r0,[pc,#392] ; [0x3f6c] = 0x200030a1
        0x00003de4:    f002fd7c    ..|.    BL       myatoi ; 0x68e0
        0x00003de8:    f8840022    ..".    STRB     r0,[r4,#0x22]
        0x00003dec:    485f        _H      LDR      r0,[pc,#380] ; [0x3f6c] = 0x200030a1
        0x00003dee:    3014        .0      ADDS     r0,r0,#0x14
        0x00003df0:    f002fd76    ..v.    BL       myatoi ; 0x68e0
        0x00003df4:    f8840024    ..$.    STRB     r0,[r4,#0x24]
        0x00003df8:    485c        \H      LDR      r0,[pc,#368] ; [0x3f6c] = 0x200030a1
        0x00003dfa:    3028        (0      ADDS     r0,r0,#0x28
        0x00003dfc:    f002fd70    ..p.    BL       myatoi ; 0x68e0
        0x00003e00:    f8840029    ..).    STRB     r0,[r4,#0x29]
        0x00003e04:    4859        YH      LDR      r0,[pc,#356] ; [0x3f6c] = 0x200030a1
        0x00003e06:    303c        <0      ADDS     r0,r0,#0x3c
        0x00003e08:    f002fd6a    ..j.    BL       myatoi ; 0x68e0
        0x00003e0c:    f884002e    ....    STRB     r0,[r4,#0x2e]
        0x00003e10:    4856        VH      LDR      r0,[pc,#344] ; [0x3f6c] = 0x200030a1
        0x00003e12:    3050        P0      ADDS     r0,r0,#0x50
        0x00003e14:    f002fd64    ..d.    BL       myatoi ; 0x68e0
        0x00003e18:    f8840033    ..3.    STRB     r0,[r4,#0x33]
        0x00003e1c:    4853        SH      LDR      r0,[pc,#332] ; [0x3f6c] = 0x200030a1
        0x00003e1e:    3064        d0      ADDS     r0,r0,#0x64
        0x00003e20:    f002fd5e    ..^.    BL       myatoi ; 0x68e0
        0x00003e24:    f8840038    ..8.    STRB     r0,[r4,#0x38]
        0x00003e28:    4850        PH      LDR      r0,[pc,#320] ; [0x3f6c] = 0x200030a1
        0x00003e2a:    3078        x0      ADDS     r0,r0,#0x78
        0x00003e2c:    f002fd58    ..X.    BL       myatoi ; 0x68e0
        0x00003e30:    f884003d    ..=.    STRB     r0,[r4,#0x3d]
        0x00003e34:    484d        MH      LDR      r0,[pc,#308] ; [0x3f6c] = 0x200030a1
        0x00003e36:    308c        .0      ADDS     r0,r0,#0x8c
        0x00003e38:    f002fd52    ..R.    BL       myatoi ; 0x68e0
        0x00003e3c:    f8840025    ..%.    STRB     r0,[r4,#0x25]
        0x00003e40:    484a        JH      LDR      r0,[pc,#296] ; [0x3f6c] = 0x200030a1
        0x00003e42:    30a0        .0      ADDS     r0,r0,#0xa0
        0x00003e44:    f002fd4c    ..L.    BL       myatoi ; 0x68e0
        0x00003e48:    f884002a    ..*.    STRB     r0,[r4,#0x2a]
        0x00003e4c:    4847        GH      LDR      r0,[pc,#284] ; [0x3f6c] = 0x200030a1
        0x00003e4e:    30b4        .0      ADDS     r0,r0,#0xb4
        0x00003e50:    f002fd46    ..F.    BL       myatoi ; 0x68e0
        0x00003e54:    f884002f    ../.    STRB     r0,[r4,#0x2f]
        0x00003e58:    4844        DH      LDR      r0,[pc,#272] ; [0x3f6c] = 0x200030a1
        0x00003e5a:    30c8        .0      ADDS     r0,r0,#0xc8
        0x00003e5c:    f002fd40    ..@.    BL       myatoi ; 0x68e0
        0x00003e60:    f8840034    ..4.    STRB     r0,[r4,#0x34]
        0x00003e64:    4841        AH      LDR      r0,[pc,#260] ; [0x3f6c] = 0x200030a1
        0x00003e66:    30dc        .0      ADDS     r0,r0,#0xdc
        0x00003e68:    f002fd3a    ..:.    BL       myatoi ; 0x68e0
        0x00003e6c:    f8840039    ..9.    STRB     r0,[r4,#0x39]
        0x00003e70:    483e        >H      LDR      r0,[pc,#248] ; [0x3f6c] = 0x200030a1
        0x00003e72:    30f0        .0      ADDS     r0,r0,#0xf0
        0x00003e74:    f002fd34    ..4.    BL       myatoi ; 0x68e0
        0x00003e78:    f884003e    ..>.    STRB     r0,[r4,#0x3e]
        0x00003e7c:    483c        <H      LDR      r0,[pc,#240] ; [0x3f70] = 0x200031a5
        0x00003e7e:    f002fd2f    ../.    BL       myatoi ; 0x68e0
        0x00003e82:    f8840026    ..&.    STRB     r0,[r4,#0x26]
        0x00003e86:    483a        :H      LDR      r0,[pc,#232] ; [0x3f70] = 0x200031a5
        0x00003e88:    3014        .0      ADDS     r0,r0,#0x14
        0x00003e8a:    f002fd29    ..).    BL       myatoi ; 0x68e0
        0x00003e8e:    f884002b    ..+.    STRB     r0,[r4,#0x2b]
        0x00003e92:    4837        7H      LDR      r0,[pc,#220] ; [0x3f70] = 0x200031a5
        0x00003e94:    3028        (0      ADDS     r0,r0,#0x28
        0x00003e96:    f002fd23    ..#.    BL       myatoi ; 0x68e0
        0x00003e9a:    f8840030    ..0.    STRB     r0,[r4,#0x30]
        0x00003e9e:    4834        4H      LDR      r0,[pc,#208] ; [0x3f70] = 0x200031a5
        0x00003ea0:    303c        <0      ADDS     r0,r0,#0x3c
        0x00003ea2:    f002fd1d    ....    BL       myatoi ; 0x68e0
        0x00003ea6:    f8840035    ..5.    STRB     r0,[r4,#0x35]
        0x00003eaa:    4831        1H      LDR      r0,[pc,#196] ; [0x3f70] = 0x200031a5
        0x00003eac:    3050        P0      ADDS     r0,r0,#0x50
        0x00003eae:    f002fd17    ....    BL       myatoi ; 0x68e0
        0x00003eb2:    f884003a    ..:.    STRB     r0,[r4,#0x3a]
        0x00003eb6:    482e        .H      LDR      r0,[pc,#184] ; [0x3f70] = 0x200031a5
        0x00003eb8:    3064        d0      ADDS     r0,r0,#0x64
        0x00003eba:    f002fd11    ....    BL       myatoi ; 0x68e0
        0x00003ebe:    f884003f    ..?.    STRB     r0,[r4,#0x3f]
        0x00003ec2:    482b        +H      LDR      r0,[pc,#172] ; [0x3f70] = 0x200031a5
        0x00003ec4:    3078        x0      ADDS     r0,r0,#0x78
        0x00003ec6:    f002fd0b    ....    BL       myatoi ; 0x68e0
        0x00003eca:    f8840027    ..'.    STRB     r0,[r4,#0x27]
        0x00003ece:    4828        (H      LDR      r0,[pc,#160] ; [0x3f70] = 0x200031a5
        0x00003ed0:    308c        .0      ADDS     r0,r0,#0x8c
        0x00003ed2:    f002fd05    ....    BL       myatoi ; 0x68e0
        0x00003ed6:    f884002c    ..,.    STRB     r0,[r4,#0x2c]
        0x00003eda:    4825        %H      LDR      r0,[pc,#148] ; [0x3f70] = 0x200031a5
        0x00003edc:    30a0        .0      ADDS     r0,r0,#0xa0
        0x00003ede:    f002fcff    ....    BL       myatoi ; 0x68e0
        0x00003ee2:    f8840031    ..1.    STRB     r0,[r4,#0x31]
        0x00003ee6:    4822        "H      LDR      r0,[pc,#136] ; [0x3f70] = 0x200031a5
        0x00003ee8:    30b4        .0      ADDS     r0,r0,#0xb4
        0x00003eea:    f002fcf9    ....    BL       myatoi ; 0x68e0
        0x00003eee:    f8840036    ..6.    STRB     r0,[r4,#0x36]
        0x00003ef2:    481f        .H      LDR      r0,[pc,#124] ; [0x3f70] = 0x200031a5
        0x00003ef4:    30c8        .0      ADDS     r0,r0,#0xc8
        0x00003ef6:    f002fcf3    ....    BL       myatoi ; 0x68e0
        0x00003efa:    f884003b    ..;.    STRB     r0,[r4,#0x3b]
        0x00003efe:    481c        .H      LDR      r0,[pc,#112] ; [0x3f70] = 0x200031a5
        0x00003f00:    30dc        .0      ADDS     r0,r0,#0xdc
        0x00003f02:    f002fced    ....    BL       myatoi ; 0x68e0
        0x00003f06:    f8840040    ..@.    STRB     r0,[r4,#0x40]
        0x00003f0a:    4819        .H      LDR      r0,[pc,#100] ; [0x3f70] = 0x200031a5
        0x00003f0c:    30f0        .0      ADDS     r0,r0,#0xf0
        0x00003f0e:    f002fce7    ....    BL       myatoi ; 0x68e0
        0x00003f12:    f8840041    ..A.    STRB     r0,[r4,#0x41]
        0x00003f16:    4817        .H      LDR      r0,[pc,#92] ; [0x3f74] = 0x200032a9
        0x00003f18:    f002fce2    ....    BL       myatoi ; 0x68e0
        0x00003f1c:    f8840042    ..B.    STRB     r0,[r4,#0x42]
        0x00003f20:    4814        .H      LDR      r0,[pc,#80] ; [0x3f74] = 0x200032a9
        0x00003f22:    3014        .0      ADDS     r0,r0,#0x14
        0x00003f24:    f002fcdc    ....    BL       myatoi ; 0x68e0
        0x00003f28:    f8840043    ..C.    STRB     r0,[r4,#0x43]
        0x00003f2c:    4811        .H      LDR      r0,[pc,#68] ; [0x3f74] = 0x200032a9
        0x00003f2e:    e023        #.      B        0x3f78 ; ReadTimerSettings + 1120
    $d
        0x00003f30:    64616552    Read    DCD    1684104530
        0x00003f34:    656d6954    Time    DCD    1701669204
        0x00003f38:    74655372    rSet    DCD    1952797554
        0x00003f3c:    676e6974    ting    DCD    1735289204
        0x00003f40:    73253a73    s:%s    DCD    1931819635
        0x00003f44:    0064253d    =%d.    DCD    6563133
        0x00003f48:    200000f8    ...     DCD    536871160
        0x00003f4c:    00000000    ....    DCD    0
        0x00003f50:    00000000    ....    DCD    0
        0x00003f54:    00000000    ....    DCD    0
        0x00003f58:    3ff00000    ...?    DCD    1072693248
        0x00003f5c:    20000fe8    ...     DCD    536874984
        0x00003f60:    0000002c    ,...    DCD    44
        0x00003f64:    20002e99    ...     DCD    536882841
        0x00003f68:    20002f9d    ./.     DCD    536883101
        0x00003f6c:    200030a1    .0.     DCD    536883361
        0x00003f70:    200031a5    .1.     DCD    536883621
        0x00003f74:    200032a9    .2.     DCD    536883881
    $t
        0x00003f78:    3028        (0      ADDS     r0,r0,#0x28
        0x00003f7a:    f002fcb1    ....    BL       myatoi ; 0x68e0
        0x00003f7e:    f8840044    ..D.    STRB     r0,[r4,#0x44]
        0x00003f82:    48fe        .H      LDR      r0,[pc,#1016] ; [0x437c] = 0x200032e5
        0x00003f84:    f002fcac    ....    BL       myatoi ; 0x68e0
        0x00003f88:    f8840049    ..I.    STRB     r0,[r4,#0x49]
        0x00003f8c:    48fb        .H      LDR      r0,[pc,#1004] ; [0x437c] = 0x200032e5
        0x00003f8e:    3014        .0      ADDS     r0,r0,#0x14
        0x00003f90:    f002fca6    ....    BL       myatoi ; 0x68e0
        0x00003f94:    64e0        .d      STR      r0,[r4,#0x4c]
        0x00003f96:    48f9        .H      LDR      r0,[pc,#996] ; [0x437c] = 0x200032e5
        0x00003f98:    3028        (0      ADDS     r0,r0,#0x28
        0x00003f9a:    f002fca1    ....    BL       myatoi ; 0x68e0
        0x00003f9e:    6520         e      STR      r0,[r4,#0x50]
        0x00003fa0:    48f6        .H      LDR      r0,[pc,#984] ; [0x437c] = 0x200032e5
        0x00003fa2:    303c        <0      ADDS     r0,r0,#0x3c
        0x00003fa4:    f002fc9c    ....    BL       myatoi ; 0x68e0
        0x00003fa8:    f8840054    ..T.    STRB     r0,[r4,#0x54]
        0x00003fac:    48f3        .H      LDR      r0,[pc,#972] ; [0x437c] = 0x200032e5
        0x00003fae:    3050        P0      ADDS     r0,r0,#0x50
        0x00003fb0:    f002fc96    ....    BL       myatoi ; 0x68e0
        0x00003fb4:    65a0        .e      STR      r0,[r4,#0x58]
        0x00003fb6:    48f1        .H      LDR      r0,[pc,#964] ; [0x437c] = 0x200032e5
        0x00003fb8:    3064        d0      ADDS     r0,r0,#0x64
        0x00003fba:    f002fc91    ....    BL       myatoi ; 0x68e0
        0x00003fbe:    65e0        .e      STR      r0,[r4,#0x5c]
        0x00003fc0:    48ee        .H      LDR      r0,[pc,#952] ; [0x437c] = 0x200032e5
        0x00003fc2:    3078        x0      ADDS     r0,r0,#0x78
        0x00003fc4:    f002fc8c    ....    BL       myatoi ; 0x68e0
        0x00003fc8:    66a0        .f      STR      r0,[r4,#0x68]
        0x00003fca:    48ec        .H      LDR      r0,[pc,#944] ; [0x437c] = 0x200032e5
        0x00003fcc:    308c        .0      ADDS     r0,r0,#0x8c
        0x00003fce:    f002fc87    ....    BL       myatoi ; 0x68e0
        0x00003fd2:    f8840074    ..t.    STRB     r0,[r4,#0x74]
        0x00003fd6:    48e9        .H      LDR      r0,[pc,#932] ; [0x437c] = 0x200032e5
        0x00003fd8:    30a0        .0      ADDS     r0,r0,#0xa0
        0x00003fda:    f002fc81    ....    BL       myatoi ; 0x68e0
        0x00003fde:    f8840075    ..u.    STRB     r0,[r4,#0x75]
        0x00003fe2:    48e6        .H      LDR      r0,[pc,#920] ; [0x437c] = 0x200032e5
        0x00003fe4:    30b4        .0      ADDS     r0,r0,#0xb4
        0x00003fe6:    f002fc7b    ..{.    BL       myatoi ; 0x68e0
        0x00003fea:    f8840076    ..v.    STRB     r0,[r4,#0x76]
        0x00003fee:    48e3        .H      LDR      r0,[pc,#908] ; [0x437c] = 0x200032e5
        0x00003ff0:    30c8        .0      ADDS     r0,r0,#0xc8
        0x00003ff2:    f002fc75    ..u.    BL       myatoi ; 0x68e0
        0x00003ff6:    f8840077    ..w.    STRB     r0,[r4,#0x77]
        0x00003ffa:    48e0        .H      LDR      r0,[pc,#896] ; [0x437c] = 0x200032e5
        0x00003ffc:    30dc        .0      ADDS     r0,r0,#0xdc
        0x00003ffe:    f002fc6f    ..o.    BL       myatoi ; 0x68e0
        0x00004002:    f8a400c8    ....    STRH     r0,[r4,#0xc8]
        0x00004006:    48dd        .H      LDR      r0,[pc,#884] ; [0x437c] = 0x200032e5
        0x00004008:    30f0        .0      ADDS     r0,r0,#0xf0
        0x0000400a:    f002fc69    ..i.    BL       myatoi ; 0x68e0
        0x0000400e:    f8a400ca    ....    STRH     r0,[r4,#0xca]
        0x00004012:    48db        .H      LDR      r0,[pc,#876] ; [0x4380] = 0x200033e9
        0x00004014:    f002fc64    ..d.    BL       myatoi ; 0x68e0
        0x00004018:    f88400cc    ....    STRB     r0,[r4,#0xcc]
        0x0000401c:    48d8        .H      LDR      r0,[pc,#864] ; [0x4380] = 0x200033e9
        0x0000401e:    3014        .0      ADDS     r0,r0,#0x14
        0x00004020:    f002fc5e    ..^.    BL       myatoi ; 0x68e0
        0x00004024:    f88400cd    ....    STRB     r0,[r4,#0xcd]
        0x00004028:    48d5        .H      LDR      r0,[pc,#852] ; [0x4380] = 0x200033e9
        0x0000402a:    3028        (0      ADDS     r0,r0,#0x28
        0x0000402c:    f002fc58    ..X.    BL       myatoi ; 0x68e0
        0x00004030:    f88400ce    ....    STRB     r0,[r4,#0xce]
        0x00004034:    48d2        .H      LDR      r0,[pc,#840] ; [0x4380] = 0x200033e9
        0x00004036:    303c        <0      ADDS     r0,r0,#0x3c
        0x00004038:    f002fc52    ..R.    BL       myatoi ; 0x68e0
        0x0000403c:    f8a400c0    ....    STRH     r0,[r4,#0xc0]
        0x00004040:    48cf        .H      LDR      r0,[pc,#828] ; [0x4380] = 0x200033e9
        0x00004042:    3050        P0      ADDS     r0,r0,#0x50
        0x00004044:    f002fc4c    ..L.    BL       myatoi ; 0x68e0
        0x00004048:    f8a400c2    ....    STRH     r0,[r4,#0xc2]
        0x0000404c:    48cc        .H      LDR      r0,[pc,#816] ; [0x4380] = 0x200033e9
        0x0000404e:    3078        x0      ADDS     r0,r0,#0x78
        0x00004050:    f002fc46    ..F.    BL       myatoi ; 0x68e0
        0x00004054:    f88400d0    ....    STRB     r0,[r4,#0xd0]
        0x00004058:    48c9        .H      LDR      r0,[pc,#804] ; [0x4380] = 0x200033e9
        0x0000405a:    308c        .0      ADDS     r0,r0,#0x8c
        0x0000405c:    f002fc40    ..@.    BL       myatoi ; 0x68e0
        0x00004060:    f88400d1    ....    STRB     r0,[r4,#0xd1]
        0x00004064:    48c6        .H      LDR      r0,[pc,#792] ; [0x4380] = 0x200033e9
        0x00004066:    30a0        .0      ADDS     r0,r0,#0xa0
        0x00004068:    f002fc3a    ..:.    BL       myatoi ; 0x68e0
        0x0000406c:    f88400d4    ....    STRB     r0,[r4,#0xd4]
        0x00004070:    48c3        .H      LDR      r0,[pc,#780] ; [0x4380] = 0x200033e9
        0x00004072:    30b4        .0      ADDS     r0,r0,#0xb4
        0x00004074:    f002fc34    ..4.    BL       myatoi ; 0x68e0
        0x00004078:    f88400d5    ....    STRB     r0,[r4,#0xd5]
        0x0000407c:    48c0        .H      LDR      r0,[pc,#768] ; [0x4380] = 0x200033e9
        0x0000407e:    30c8        .0      ADDS     r0,r0,#0xc8
        0x00004080:    f002fc2e    ....    BL       myatoi ; 0x68e0
        0x00004084:    f88400d6    ....    STRB     r0,[r4,#0xd6]
        0x00004088:    48bd        .H      LDR      r0,[pc,#756] ; [0x4380] = 0x200033e9
        0x0000408a:    30dc        .0      ADDS     r0,r0,#0xdc
        0x0000408c:    f002fc28    ..(.    BL       myatoi ; 0x68e0
        0x00004090:    f88400d7    ....    STRB     r0,[r4,#0xd7]
        0x00004094:    48ba        .H      LDR      r0,[pc,#744] ; [0x4380] = 0x200033e9
        0x00004096:    30f0        .0      ADDS     r0,r0,#0xf0
        0x00004098:    f002fc22    ..".    BL       myatoi ; 0x68e0
        0x0000409c:    f88400d8    ....    STRB     r0,[r4,#0xd8]
        0x000040a0:    48b8        .H      LDR      r0,[pc,#736] ; [0x4384] = 0x200034ed
        0x000040a2:    f002fc1d    ....    BL       myatoi ; 0x68e0
        0x000040a6:    f88400d9    ....    STRB     r0,[r4,#0xd9]
        0x000040aa:    48b6        .H      LDR      r0,[pc,#728] ; [0x4384] = 0x200034ed
        0x000040ac:    3014        .0      ADDS     r0,r0,#0x14
        0x000040ae:    f002fc17    ....    BL       myatoi ; 0x68e0
        0x000040b2:    f88400da    ....    STRB     r0,[r4,#0xda]
        0x000040b6:    48b3        .H      LDR      r0,[pc,#716] ; [0x4384] = 0x200034ed
        0x000040b8:    3028        (0      ADDS     r0,r0,#0x28
        0x000040ba:    f002fc11    ....    BL       myatoi ; 0x68e0
        0x000040be:    f88400db    ....    STRB     r0,[r4,#0xdb]
        0x000040c2:    48b0        .H      LDR      r0,[pc,#704] ; [0x4384] = 0x200034ed
        0x000040c4:    303c        <0      ADDS     r0,r0,#0x3c
        0x000040c6:    f002fc0b    ....    BL       myatoi ; 0x68e0
        0x000040ca:    6620         f      STR      r0,[r4,#0x60]
        0x000040cc:    48ad        .H      LDR      r0,[pc,#692] ; [0x4384] = 0x200034ed
        0x000040ce:    3050        P0      ADDS     r0,r0,#0x50
        0x000040d0:    f002fc06    ....    BL       myatoi ; 0x68e0
        0x000040d4:    6660        `f      STR      r0,[r4,#0x64]
        0x000040d6:    48ab        .H      LDR      r0,[pc,#684] ; [0x4384] = 0x200034ed
        0x000040d8:    3064        d0      ADDS     r0,r0,#0x64
        0x000040da:    f002fc01    ....    BL       myatoi ; 0x68e0
        0x000040de:    f8a40110    ....    STRH     r0,[r4,#0x110]
        0x000040e2:    48a8        .H      LDR      r0,[pc,#672] ; [0x4384] = 0x200034ed
        0x000040e4:    3078        x0      ADDS     r0,r0,#0x78
        0x000040e6:    f002fbfb    ....    BL       myatoi ; 0x68e0
        0x000040ea:    f8a40112    ....    STRH     r0,[r4,#0x112]
        0x000040ee:    48a5        .H      LDR      r0,[pc,#660] ; [0x4384] = 0x200034ed
        0x000040f0:    308c        .0      ADDS     r0,r0,#0x8c
        0x000040f2:    f002fbf5    ....    BL       myatoi ; 0x68e0
        0x000040f6:    f8a40114    ....    STRH     r0,[r4,#0x114]
        0x000040fa:    48a2        .H      LDR      r0,[pc,#648] ; [0x4384] = 0x200034ed
        0x000040fc:    30a0        .0      ADDS     r0,r0,#0xa0
        0x000040fe:    f002fbef    ....    BL       myatoi ; 0x68e0
        0x00004102:    f8a40116    ....    STRH     r0,[r4,#0x116]
        0x00004106:    489f        .H      LDR      r0,[pc,#636] ; [0x4384] = 0x200034ed
        0x00004108:    30b4        .0      ADDS     r0,r0,#0xb4
        0x0000410a:    f002fbe9    ....    BL       myatoi ; 0x68e0
        0x0000410e:    f8a40118    ....    STRH     r0,[r4,#0x118]
        0x00004112:    489c        .H      LDR      r0,[pc,#624] ; [0x4384] = 0x200034ed
        0x00004114:    30c8        .0      ADDS     r0,r0,#0xc8
        0x00004116:    f002fbe3    ....    BL       myatoi ; 0x68e0
        0x0000411a:    f8a4011a    ....    STRH     r0,[r4,#0x11a]
        0x0000411e:    4899        .H      LDR      r0,[pc,#612] ; [0x4384] = 0x200034ed
        0x00004120:    30dc        .0      ADDS     r0,r0,#0xdc
        0x00004122:    f002fbdd    ....    BL       myatoi ; 0x68e0
        0x00004126:    f884011c    ....    STRB     r0,[r4,#0x11c]
        0x0000412a:    4896        .H      LDR      r0,[pc,#600] ; [0x4384] = 0x200034ed
        0x0000412c:    30f0        .0      ADDS     r0,r0,#0xf0
        0x0000412e:    f002fbd7    ....    BL       myatoi ; 0x68e0
        0x00004132:    f884011d    ....    STRB     r0,[r4,#0x11d]
        0x00004136:    4894        .H      LDR      r0,[pc,#592] ; [0x4388] = 0x200035f1
        0x00004138:    f002fbd2    ....    BL       myatoi ; 0x68e0
        0x0000413c:    f884011e    ....    STRB     r0,[r4,#0x11e]
        0x00004140:    4891        .H      LDR      r0,[pc,#580] ; [0x4388] = 0x200035f1
        0x00004142:    3014        .0      ADDS     r0,r0,#0x14
        0x00004144:    f002fbcc    ....    BL       myatoi ; 0x68e0
        0x00004148:    f884011f    ....    STRB     r0,[r4,#0x11f]
        0x0000414c:    488e        .H      LDR      r0,[pc,#568] ; [0x4388] = 0x200035f1
        0x0000414e:    3028        (0      ADDS     r0,r0,#0x28
        0x00004150:    f002fbc6    ....    BL       myatoi ; 0x68e0
        0x00004154:    f8840120    .. .    STRB     r0,[r4,#0x120]
        0x00004158:    488b        .H      LDR      r0,[pc,#556] ; [0x4388] = 0x200035f1
        0x0000415a:    303c        <0      ADDS     r0,r0,#0x3c
        0x0000415c:    f002fbc0    ....    BL       myatoi ; 0x68e0
        0x00004160:    f44f7696    O..v    MOV      r6,#0x12c
        0x00004164:    f8c40124    ..$.    STR      r0,[r4,#0x124]
        0x00004168:    42b0        .B      CMP      r0,r6
        0x0000416a:    dd01        ..      BLE      0x4170 ; ReadTimerSettings + 1624
        0x0000416c:    f8c45124    ..$Q    STR      r5,[r4,#0x124]
        0x00004170:    4885        .H      LDR      r0,[pc,#532] ; [0x4388] = 0x200035f1
        0x00004172:    3050        P0      ADDS     r0,r0,#0x50
        0x00004174:    f002fbb4    ....    BL       myatoi ; 0x68e0
        0x00004178:    ed9fdb84    ....    VLDR     d13,[pc,#528] ; [0x438c] = 0
        0x0000417c:    ed9feb85    ....    VLDR     d14,[pc,#532] ; [0x4394] = 0
        0x00004180:    ed9fcb86    ....    VLDR     d12,[pc,#536] ; [0x439c] = 0
        0x00004184:    f8c40128    ..(.    STR      r0,[r4,#0x128]
        0x00004188:    42b0        .B      CMP      r0,r6
        0x0000418a:    dd01        ..      BLE      0x4190 ; ReadTimerSettings + 1656
        0x0000418c:    f8c45128    ..(Q    STR      r5,[r4,#0x128]
        0x00004190:    487d        }H      LDR      r0,[pc,#500] ; [0x4388] = 0x200035f1
        0x00004192:    3064        d0      ADDS     r0,r0,#0x64
        0x00004194:    f002fba4    ....    BL       myatoi ; 0x68e0
        0x00004198:    f8a40150    ..P.    STRH     r0,[r4,#0x150]
        0x0000419c:    487a        zH      LDR      r0,[pc,#488] ; [0x4388] = 0x200035f1
        0x0000419e:    3445        E4      ADDS     r4,r4,#0x45
        0x000041a0:    3078        x0      ADDS     r0,r0,#0x78
        0x000041a2:    f002fb9d    ....    BL       myatoi ; 0x68e0
        0x000041a6:    f8a4010d    ....    STRH     r0,[r4,#0x10d]
        0x000041aa:    4877        wH      LDR      r0,[pc,#476] ; [0x4388] = 0x200035f1
        0x000041ac:    308c        .0      ADDS     r0,r0,#0x8c
        0x000041ae:    f002fb97    ....    BL       myatoi ; 0x68e0
        0x000041b2:    f8a4010f    ....    STRH     r0,[r4,#0x10f]
        0x000041b6:    4874        tH      LDR      r0,[pc,#464] ; [0x4388] = 0x200035f1
        0x000041b8:    30a0        .0      ADDS     r0,r0,#0xa0
        0x000041ba:    f002fb91    ....    BL       myatoi ; 0x68e0
        0x000041be:    f8a40111    ....    STRH     r0,[r4,#0x111]
        0x000041c2:    4871        qH      LDR      r0,[pc,#452] ; [0x4388] = 0x200035f1
        0x000041c4:    30b4        .0      ADDS     r0,r0,#0xb4
        0x000041c6:    f002fb8b    ....    BL       myatoi ; 0x68e0
        0x000041ca:    7020         p      STRB     r0,[r4,#0]
        0x000041cc:    486e        nH      LDR      r0,[pc,#440] ; [0x4388] = 0x200035f1
        0x000041ce:    30c8        .0      ADDS     r0,r0,#0xc8
        0x000041d0:    f002fb86    ....    BL       myatoi ; 0x68e0
        0x000041d4:    7060        `p      STRB     r0,[r4,#1]
        0x000041d6:    486c        lH      LDR      r0,[pc,#432] ; [0x4388] = 0x200035f1
        0x000041d8:    30dc        .0      ADDS     r0,r0,#0xdc
        0x000041da:    f002fb81    ....    BL       myatoi ; 0x68e0
        0x000041de:    70a0        .p      STRB     r0,[r4,#2]
        0x000041e0:    4869        iH      LDR      r0,[pc,#420] ; [0x4388] = 0x200035f1
        0x000041e2:    30f0        .0      ADDS     r0,r0,#0xf0
        0x000041e4:    f002fb7c    ..|.    BL       myatoi ; 0x68e0
        0x000041e8:    70e0        .p      STRB     r0,[r4,#3]
        0x000041ea:    486e        nH      LDR      r0,[pc,#440] ; [0x43a4] = 0x200036f5
        0x000041ec:    3447        G4      ADDS     r4,r4,#0x47
        0x000041ee:    f002fb77    ..w.    BL       myatoi ; 0x68e0
        0x000041f2:    f8840046    ..F.    STRB     r0,[r4,#0x46]
        0x000041f6:    8fa0        ..      LDRH     r0,[r4,#0x3c]
        0x000041f8:    ee000a10    ....    VMOV     s0,r0
        0x000041fc:    eeb80a40    ..@.    VCVT.F32.U32 s0,s0
        0x00004200:    ed9f9a69    ..i.    VLDR     s18,[pc,#420] ; [0x43a8] = 0x3dcccccd
        0x00004204:    ee200a09     ...    VMUL.F32 s0,s0,s18
        0x00004208:    ee100a10    ....    VMOV     r0,s0
        0x0000420c:    f7fcfb41    ..A.    BL       __aeabi_f2d ; 0x892
        0x00004210:    e9c40105    ....    STRD     r0,r1,[r4,#0x14]
        0x00004214:    8fe0        ..      LDRH     r0,[r4,#0x3e]
        0x00004216:    ee000a10    ....    VMOV     s0,r0
        0x0000421a:    eeb80a40    ..@.    VCVT.F32.U32 s0,s0
        0x0000421e:    ee200a09     ...    VMUL.F32 s0,s0,s18
        0x00004222:    ee100a10    ....    VMOV     r0,s0
        0x00004226:    f7fcfb34    ..4.    BL       __aeabi_f2d ; 0x892
        0x0000422a:    e9c40107    ....    STRD     r0,r1,[r4,#0x1c]
        0x0000422e:    8ea0        ..      LDRH     r0,[r4,#0x34]
        0x00004230:    ee000a10    ....    VMOV     s0,r0
        0x00004234:    eeb80a40    ..@.    VCVT.F32.U32 s0,s0
        0x00004238:    ee200a09     ...    VMUL.F32 s0,s0,s18
        0x0000423c:    ee100a10    ....    VMOV     r0,s0
        0x00004240:    f7fcfb27    ..'.    BL       __aeabi_f2d ; 0x892
        0x00004244:    e9440103    D...    STRD     r0,r1,[r4,#-0xc]
        0x00004248:    8ee0        ..      LDRH     r0,[r4,#0x36]
        0x0000424a:    ee000a10    ....    VMOV     s0,r0
        0x0000424e:    eeb80a40    ..@.    VCVT.F32.U32 s0,s0
        0x00004252:    ee200a09     ...    VMUL.F32 s0,s0,s18
        0x00004256:    ee100a10    ....    VMOV     r0,s0
        0x0000425a:    f7fcfb1a    ....    BL       __aeabi_f2d ; 0x892
        0x0000425e:    e9440101    D...    STRD     r0,r1,[r4,#-4]
        0x00004262:    8f20         .      LDRH     r0,[r4,#0x38]
        0x00004264:    f7fcfaef    ....    BL       __aeabi_ui2d ; 0x846
        0x00004268:    ed9f9b50    ..P.    VLDR     d9,[pc,#320] ; [0x43ac] = 0x9999999a
        0x0000426c:    ec532b19    S..+    VMOV     r2,r3,d9
        0x00004270:    f7fcf9f7    ....    BL       __aeabi_dmul ; 0x662
        0x00004274:    e9c40109    ....    STRD     r0,r1,[r4,#0x24]
        0x00004278:    8f60        `.      LDRH     r0,[r4,#0x3a]
        0x0000427a:    f7fcfae4    ....    BL       __aeabi_ui2d ; 0x846
        0x0000427e:    ec532b19    S..+    VMOV     r2,r3,d9
        0x00004282:    f7fcf9ee    ....    BL       __aeabi_dmul ; 0x662
        0x00004286:    e9c4010b    ....    STRD     r0,r1,[r4,#0x2c]
        0x0000428a:    f8b40084    ....    LDRH     r0,[r4,#0x84]
        0x0000428e:    f7fcfada    ....    BL       __aeabi_ui2d ; 0x846
        0x00004292:    ed9f9b48    ..H.    VLDR     d9,[pc,#288] ; [0x43b4] = 0xeb1c432d
        0x00004296:    ec532b19    S..+    VMOV     r2,r3,d9
        0x0000429a:    f7fcf9e2    ....    BL       __aeabi_dmul ; 0x662
        0x0000429e:    e9c40115    ....    STRD     r0,r1,[r4,#0x54]
        0x000042a2:    f8b40086    ....    LDRH     r0,[r4,#0x86]
        0x000042a6:    f7fcface    ....    BL       __aeabi_ui2d ; 0x846
        0x000042aa:    ec532b19    S..+    VMOV     r2,r3,d9
        0x000042ae:    f7fcf9d8    ....    BL       __aeabi_dmul ; 0x662
        0x000042b2:    e9c40117    ....    STRD     r0,r1,[r4,#0x5c]
        0x000042b6:    f8b40088    ....    LDRH     r0,[r4,#0x88]
        0x000042ba:    f7fcfac4    ....    BL       __aeabi_ui2d ; 0x846
        0x000042be:    ec532b19    S..+    VMOV     r2,r3,d9
        0x000042c2:    f7fcf9ce    ....    BL       __aeabi_dmul ; 0x662
        0x000042c6:    e9c40119    ....    STRD     r0,r1,[r4,#0x64]
        0x000042ca:    f8b4008a    ....    LDRH     r0,[r4,#0x8a]
        0x000042ce:    f7fcfaba    ....    BL       __aeabi_ui2d ; 0x846
        0x000042d2:    ec532b19    S..+    VMOV     r2,r3,d9
        0x000042d6:    f7fcf9c4    ....    BL       __aeabi_dmul ; 0x662
        0x000042da:    ec410b1b    A...    VMOV     d11,r0,r1
        0x000042de:    ed84bb1b    ....    VSTR     d11,[r4,#0x6c]
        0x000042e2:    f8b4008c    ....    LDRH     r0,[r4,#0x8c]
        0x000042e6:    f7fcfaae    ....    BL       __aeabi_ui2d ; 0x846
        0x000042ea:    ec532b19    S..+    VMOV     r2,r3,d9
        0x000042ee:    f7fcf9b8    ....    BL       __aeabi_dmul ; 0x662
        0x000042f2:    e9c4011d    ....    STRD     r0,r1,[r4,#0x74]
        0x000042f6:    4605        .F      MOV      r5,r0
        0x000042f8:    460e        .F      MOV      r6,r1
        0x000042fa:    f8b4008e    ....    LDRH     r0,[r4,#0x8e]
        0x000042fe:    f7fcfaa2    ....    BL       __aeabi_ui2d ; 0x846
        0x00004302:    ec532b19    S..+    VMOV     r2,r3,d9
        0x00004306:    f7fcf9ac    ....    BL       __aeabi_dmul ; 0x662
        0x0000430a:    e9c4011f    ....    STRD     r0,r1,[r4,#0x7c]
        0x0000430e:    4607        .F      MOV      r7,r0
        0x00004310:    4688        .F      MOV      r8,r1
        0x00004312:    f8b400c4    ....    LDRH     r0,[r4,#0xc4]
        0x00004316:    f7fcfa96    ....    BL       __aeabi_ui2d ; 0x846
        0x0000431a:    ec532b19    S..+    VMOV     r2,r3,d9
        0x0000431e:    f7fcf9a0    ....    BL       __aeabi_dmul ; 0x662
        0x00004322:    e9c40129    ..).    STRD     r0,r1,[r4,#0xa4]
        0x00004326:    f8b400c6    ....    LDRH     r0,[r4,#0xc6]
        0x0000432a:    f7fcfa8c    ....    BL       __aeabi_ui2d ; 0x846
        0x0000432e:    ec532b19    S..+    VMOV     r2,r3,d9
        0x00004332:    f7fcf996    ....    BL       __aeabi_dmul ; 0x662
        0x00004336:    e9c4012b    ..+.    STRD     r0,r1,[r4,#0xac]
        0x0000433a:    f8b400c8    ....    LDRH     r0,[r4,#0xc8]
        0x0000433e:    f7fcfa82    ....    BL       __aeabi_ui2d ; 0x846
        0x00004342:    ec532b19    S..+    VMOV     r2,r3,d9
        0x00004346:    f7fcf98c    ....    BL       __aeabi_dmul ; 0x662
        0x0000434a:    f8c400b4    ....    STR      r0,[r4,#0xb4]
        0x0000434e:    f8441fb8    D...    STR      r1,[r4,#0xb8]!
        0x00004352:    8a60        `.      LDRH     r0,[r4,#0x12]
        0x00004354:    f7fcfa77    ..w.    BL       __aeabi_ui2d ; 0x846
        0x00004358:    ec532b19    S..+    VMOV     r2,r3,d9
        0x0000435c:    f7fcf981    ....    BL       __aeabi_dmul ; 0x662
        0x00004360:    e9c40101    ....    STRD     r0,r1,[r4,#4]
        0x00004364:    e88d01e0    ....    STM      sp,{r5-r8}
        0x00004368:    ec532b1b    S..+    VMOV     r2,r3,d11
        0x0000436c:    a013        ..      ADR      r0,{pc}+0x50 ; 0x43bc
        0x0000436e:    f7fdf913    ....    BL       Debug ; 0x1598
        0x00004372:    ed140b19    ....    VLDR     d0,[r4,#-0x64]
        0x00004376:    ec532b1a    S..+    VMOV     r2,r3,d10
        0x0000437a:    e02d        -.      B        0x43d8 ; ReadTimerSettings + 2240
    $d
        0x0000437c:    200032e5    .2.     DCD    536883941
        0x00004380:    200033e9    .3.     DCD    536884201
        0x00004384:    200034ed    .4.     DCD    536884461
        0x00004388:    200035f1    .5.     DCD    536884721
        0x0000438c:    00000000    ....    DCD    0
        0x00004390:    40240000    ..$@    DCD    1076101120
        0x00004394:    00000000    ....    DCD    0
        0x00004398:    408f4000    .@.@    DCD    1083129856
        0x0000439c:    00000000    ....    DCD    0
        0x000043a0:    40140000    ...@    DCD    1075052544
        0x000043a4:    200036f5    .6.     DCD    536884981
        0x000043a8:    3dcccccd    ...=    DCD    1036831949
        0x000043ac:    9999999a    ....    DCD    2576980378
        0x000043b0:    3fb99999    ...?    DCD    1069128089
        0x000043b4:    eb1c432d    -C..    DCD    3944497965
        0x000043b8:    3f1a36e2    .6.?    DCD    1058682594
        0x000043bc:    61430d0a    ..Ca    DCD    1631784202
        0x000043c0:    252c636c    lc,%    DCD    623666028
        0x000043c4:    66342e30    0.4f    DCD    1714695728
        0x000043c8:    2e30252c    ,%0.    DCD    774907180
        0x000043cc:    252c6634    4f,%    DCD    623666740
        0x000043d0:    66342e30    0.4f    DCD    1714695728
        0x000043d4:    00000d0a    ....    DCD    3338
    $t
        0x000043d8:    ec510b10    Q...    VMOV     r0,r1,d0
        0x000043dc:    f5a474a2    ...t    SUB      r4,r4,#0x144
        0x000043e0:    f7fcfa6a    ..j.    BL       __aeabi_cdcmpeq ; 0x8b8
        0x000043e4:    d908        ..      BLS      0x43f8 ; ReadTimerSettings + 2272
        0x000043e6:    ed940b38    ..8.    VLDR     d0,[r4,#0xe0]
        0x000043ea:    ec532b1d    S..+    VMOV     r2,r3,d13
        0x000043ee:    ec510b10    Q...    VMOV     r0,r1,d0
        0x000043f2:    f7fcfa79    ..y.    BL       __aeabi_cdrcmple ; 0x8e8
        0x000043f6:    d801        ..      BHI      0x43fc ; ReadTimerSettings + 2276
        0x000043f8:    ed848b38    ..8.    VSTR     d8,[r4,#0xe0]
        0x000043fc:    ed940b3a    ..:.    VLDR     d0,[r4,#0xe8]
        0x00004400:    ec532b1a    S..+    VMOV     r2,r3,d10
        0x00004404:    ec510b10    Q...    VMOV     r0,r1,d0
        0x00004408:    f7fcfa56    ..V.    BL       __aeabi_cdcmpeq ; 0x8b8
        0x0000440c:    d908        ..      BLS      0x4420 ; ReadTimerSettings + 2312
        0x0000440e:    ed940b3a    ..:.    VLDR     d0,[r4,#0xe8]
        0x00004412:    ec532b1d    S..+    VMOV     r2,r3,d13
        0x00004416:    ec510b10    Q...    VMOV     r0,r1,d0
        0x0000441a:    f7fcfa65    ..e.    BL       __aeabi_cdrcmple ; 0x8e8
        0x0000441e:    d801        ..      BHI      0x4424 ; ReadTimerSettings + 2316
        0x00004420:    ed848b3a    ..:.    VSTR     d8,[r4,#0xe8]
        0x00004424:    ed940b3c    ..<.    VLDR     d0,[r4,#0xf0]
        0x00004428:    ec532b1a    S..+    VMOV     r2,r3,d10
        0x0000442c:    ec510b10    Q...    VMOV     r0,r1,d0
        0x00004430:    f7fcfa42    ..B.    BL       __aeabi_cdcmpeq ; 0x8b8
        0x00004434:    d908        ..      BLS      0x4448 ; ReadTimerSettings + 2352
        0x00004436:    ed940b3c    ..<.    VLDR     d0,[r4,#0xf0]
        0x0000443a:    ec532b1d    S..+    VMOV     r2,r3,d13
        0x0000443e:    ec510b10    Q...    VMOV     r0,r1,d0
        0x00004442:    f7fcfa51    ..Q.    BL       __aeabi_cdrcmple ; 0x8e8
        0x00004446:    d801        ..      BHI      0x444c ; ReadTimerSettings + 2356
        0x00004448:    ed848b3c    ..<.    VSTR     d8,[r4,#0xf0]
        0x0000444c:    ed940b3e    ..>.    VLDR     d0,[r4,#0xf8]
        0x00004450:    ec532b1a    S..+    VMOV     r2,r3,d10
        0x00004454:    ec510b10    Q...    VMOV     r0,r1,d0
        0x00004458:    f7fcfa2e    ....    BL       __aeabi_cdcmpeq ; 0x8b8
        0x0000445c:    d908        ..      BLS      0x4470 ; ReadTimerSettings + 2392
        0x0000445e:    ed940b3e    ..>.    VLDR     d0,[r4,#0xf8]
        0x00004462:    ec532b1e    S..+    VMOV     r2,r3,d14
        0x00004466:    ec510b10    Q...    VMOV     r0,r1,d0
        0x0000446a:    f7fcfa3d    ..=.    BL       __aeabi_cdrcmple ; 0x8e8
        0x0000446e:    d801        ..      BHI      0x4474 ; ReadTimerSettings + 2396
        0x00004470:    ed848b3e    ..>.    VSTR     d8,[r4,#0xf8]
        0x00004474:    ed940b40    ..@.    VLDR     d0,[r4,#0x100]
        0x00004478:    ec532b1a    S..+    VMOV     r2,r3,d10
        0x0000447c:    ec510b10    Q...    VMOV     r0,r1,d0
        0x00004480:    f7fcfa1a    ....    BL       __aeabi_cdcmpeq ; 0x8b8
        0x00004484:    d908        ..      BLS      0x4498 ; ReadTimerSettings + 2432
        0x00004486:    ed940b40    ..@.    VLDR     d0,[r4,#0x100]
        0x0000448a:    ec532b1e    S..+    VMOV     r2,r3,d14
        0x0000448e:    ec510b10    Q...    VMOV     r0,r1,d0
        0x00004492:    f7fcfa29    ..).    BL       __aeabi_cdrcmple ; 0x8e8
        0x00004496:    d801        ..      BHI      0x449c ; ReadTimerSettings + 2436
        0x00004498:    ed848b40    ..@.    VSTR     d8,[r4,#0x100]
        0x0000449c:    ed940b42    ..B.    VLDR     d0,[r4,#0x108]
        0x000044a0:    ec532b1a    S..+    VMOV     r2,r3,d10
        0x000044a4:    ec510b10    Q...    VMOV     r0,r1,d0
        0x000044a8:    f7fcfa06    ....    BL       __aeabi_cdcmpeq ; 0x8b8
        0x000044ac:    d908        ..      BLS      0x44c0 ; ReadTimerSettings + 2472
        0x000044ae:    ed940b42    ..B.    VLDR     d0,[r4,#0x108]
        0x000044b2:    ec532b1e    S..+    VMOV     r2,r3,d14
        0x000044b6:    ec510b10    Q...    VMOV     r0,r1,d0
        0x000044ba:    f7fcfa15    ....    BL       __aeabi_cdrcmple ; 0x8e8
        0x000044be:    d801        ..      BHI      0x44c4 ; ReadTimerSettings + 2476
        0x000044c0:    ed848b42    ..B.    VSTR     d8,[r4,#0x108]
        0x000044c4:    ed940b4c    ..L.    VLDR     d0,[r4,#0x130]
        0x000044c8:    ec532b1a    S..+    VMOV     r2,r3,d10
        0x000044cc:    ec510b10    Q...    VMOV     r0,r1,d0
        0x000044d0:    f7fcf9f2    ....    BL       __aeabi_cdcmpeq ; 0x8b8
        0x000044d4:    d908        ..      BLS      0x44e8 ; ReadTimerSettings + 2512
        0x000044d6:    ed940b4c    ..L.    VLDR     d0,[r4,#0x130]
        0x000044da:    ec532b1c    S..+    VMOV     r2,r3,d12
        0x000044de:    ec510b10    Q...    VMOV     r0,r1,d0
        0x000044e2:    f7fcfa01    ....    BL       __aeabi_cdrcmple ; 0x8e8
        0x000044e6:    d201        ..      BCS      0x44ec ; ReadTimerSettings + 2516
        0x000044e8:    ed848b4c    ..L.    VSTR     d8,[r4,#0x130]
        0x000044ec:    ed940b4e    ..N.    VLDR     d0,[r4,#0x138]
        0x000044f0:    ec532b1a    S..+    VMOV     r2,r3,d10
        0x000044f4:    ec510b10    Q...    VMOV     r0,r1,d0
        0x000044f8:    f7fcf9de    ....    BL       __aeabi_cdcmpeq ; 0x8b8
        0x000044fc:    d908        ..      BLS      0x4510 ; ReadTimerSettings + 2552
        0x000044fe:    ed940b4e    ..N.    VLDR     d0,[r4,#0x138]
        0x00004502:    ec532b1c    S..+    VMOV     r2,r3,d12
        0x00004506:    ec510b10    Q...    VMOV     r0,r1,d0
        0x0000450a:    f7fcf9ed    ....    BL       __aeabi_cdrcmple ; 0x8e8
        0x0000450e:    d201        ..      BCS      0x4514 ; ReadTimerSettings + 2556
        0x00004510:    ed848b4e    ..N.    VSTR     d8,[r4,#0x138]
        0x00004514:    ed940b50    ..P.    VLDR     d0,[r4,#0x140]
        0x00004518:    ec532b1a    S..+    VMOV     r2,r3,d10
        0x0000451c:    ec510b10    Q...    VMOV     r0,r1,d0
        0x00004520:    f7fcf9ca    ....    BL       __aeabi_cdcmpeq ; 0x8b8
        0x00004524:    d908        ..      BLS      0x4538 ; ReadTimerSettings + 2592
        0x00004526:    ed940b50    ..P.    VLDR     d0,[r4,#0x140]
        0x0000452a:    ec532b1c    S..+    VMOV     r2,r3,d12
        0x0000452e:    ec510b10    Q...    VMOV     r0,r1,d0
        0x00004532:    f7fcf9d9    ....    BL       __aeabi_cdrcmple ; 0x8e8
        0x00004536:    d201        ..      BCS      0x453c ; ReadTimerSettings + 2596
        0x00004538:    ed848b50    ..P.    VSTR     d8,[r4,#0x140]
        0x0000453c:    ed940b52    ..R.    VLDR     d0,[r4,#0x148]
        0x00004540:    ec532b1a    S..+    VMOV     r2,r3,d10
        0x00004544:    ec510b10    Q...    VMOV     r0,r1,d0
        0x00004548:    f7fcf9b6    ....    BL       __aeabi_cdcmpeq ; 0x8b8
        0x0000454c:    d908        ..      BLS      0x4560 ; ReadTimerSettings + 2632
        0x0000454e:    ed940b52    ..R.    VLDR     d0,[r4,#0x148]
        0x00004552:    ec532b1c    S..+    VMOV     r2,r3,d12
        0x00004556:    ec510b10    Q...    VMOV     r0,r1,d0
        0x0000455a:    f7fcf9c5    ....    BL       __aeabi_cdrcmple ; 0x8e8
        0x0000455e:    d201        ..      BCS      0x4564 ; ReadTimerSettings + 2636
        0x00004560:    ed848b52    ..R.    VSTR     d8,[r4,#0x148]
        0x00004564:    f50d7d1a    ...}    ADD      sp,sp,#0x268
        0x00004568:    2000        .       MOVS     r0,#0
        0x0000456a:    ecbd8b0e    ....    VPOP     {d8-d14}
        0x0000456e:    e8bd81f0    ....    POP      {r4-r8,pc}
        0x00004572:    0000        ..      MOVS     r0,r0
    i.SYS_Init
    SYS_Init
        0x00004574:    e92d47f0    -..G    PUSH     {r4-r10,lr}
        0x00004578:    f04f2540    O.@%    MOV      r5,#0x40004000
        0x0000457c:    f8d50140    ..@.    LDR      r0,[r5,#0x140]
        0x00004580:    f02000f0     ...    BIC      r0,r0,#0xf0
        0x00004584:    f8c50140    ..@.    STR      r0,[r5,#0x140]
        0x00004588:    2001        .       MOVS     r0,#1
        0x0000458a:    f7fcfdfb    ....    BL       CLK_EnableXtalRC ; 0x1184
        0x0000458e:    2001        .       MOVS     r0,#1
        0x00004590:    f7fcff6a    ..j.    BL       CLK_WaitClockReady ; 0x1468
        0x00004594:    483f        ?H      LDR      r0,[pc,#252] ; [0x4694] = 0xb71b000
        0x00004596:    f7fcfe8b    ....    BL       CLK_SetCoreClock ; 0x12b0
        0x0000459a:    2011        .       MOVS     r0,#0x11
        0x0000459c:    0784        ..      LSLS     r4,r0,#30
        0x0000459e:    f8c40234    ..4.    STR      r0,[r4,#0x234]
        0x000045a2:    4e3d        =N      LDR      r6,[pc,#244] ; [0x4698] = 0x57803d10
        0x000045a4:    4630        0F      MOV      r0,r6
        0x000045a6:    f7fcfd35    ..5.    BL       CLK_EnableModuleClock ; 0x1014
        0x000045aa:    483c        <H      LDR      r0,[pc,#240] ; [0x469c] = 0x57a03d91
        0x000045ac:    f7fcfd32    ..2.    BL       CLK_EnableModuleClock ; 0x1014
        0x000045b0:    483b        ;H      LDR      r0,[pc,#236] ; [0x46a0] = 0x778c3c12
        0x000045b2:    f7fcfd2f    ../.    BL       CLK_EnableModuleClock ; 0x1014
        0x000045b6:    483b        ;H      LDR      r0,[pc,#236] ; [0x46a4] = 0x40000008
        0x000045b8:    f7fcfd2c    ..,.    BL       CLK_EnableModuleClock ; 0x1014
        0x000045bc:    2200        ."      MOVS     r2,#0
        0x000045be:    4611        .F      MOV      r1,r2
        0x000045c0:    4630        0F      MOV      r0,r6
        0x000045c2:    f7fcfee9    ....    BL       CLK_SetModuleClock ; 0x1398
        0x000045c6:    4f38        8O      LDR      r7,[pc,#224] ; [0x46a8] = 0x4003fe1c
        0x000045c8:    4638        8F      MOV      r0,r7
        0x000045ca:    f7fcfd23    ..#.    BL       CLK_EnableModuleClock ; 0x1014
        0x000045ce:    f44f26e0    O..&    MOV      r6,#0x70000
        0x000045d2:    4632        2F      MOV      r2,r6
        0x000045d4:    2100        .!      MOVS     r1,#0
        0x000045d6:    4638        8F      MOV      r0,r7
        0x000045d8:    f7fcfede    ....    BL       CLK_SetModuleClock ; 0x1398
        0x000045dc:    4f33        3O      LDR      r7,[pc,#204] ; [0x46ac] = 0x5e800002
        0x000045de:    4638        8F      MOV      r0,r7
        0x000045e0:    f7fcfd18    ....    BL       CLK_EnableModuleClock ; 0x1014
        0x000045e4:    f8df80c8    ....    LDR      r8,[pc,#200] ; [0x46b0] = 0x5ec00003
        0x000045e8:    4640        @F      MOV      r0,r8
        0x000045ea:    f7fcfd13    ....    BL       CLK_EnableModuleClock ; 0x1014
        0x000045ee:    f8df90c4    ....    LDR      r9,[pc,#196] ; [0x46b4] = 0x5f000004
        0x000045f2:    4648        HF      MOV      r0,r9
        0x000045f4:    f7fcfd0e    ....    BL       CLK_EnableModuleClock ; 0x1014
        0x000045f8:    f8dfa0bc    ....    LDR      r10,[pc,#188] ; [0x46b8] = 0x5f400005
        0x000045fc:    4650        PF      MOV      r0,r10
        0x000045fe:    f7fcfd09    ....    BL       CLK_EnableModuleClock ; 0x1014
        0x00004602:    2200        ."      MOVS     r2,#0
        0x00004604:    4611        .F      MOV      r1,r2
        0x00004606:    4638        8F      MOV      r0,r7
        0x00004608:    f7fcfec6    ....    BL       CLK_SetModuleClock ; 0x1398
        0x0000460c:    2200        ."      MOVS     r2,#0
        0x0000460e:    1461        a.      ASRS     r1,r4,#17
        0x00004610:    4640        @F      MOV      r0,r8
        0x00004612:    f7fcfec1    ....    BL       CLK_SetModuleClock ; 0x1398
        0x00004616:    2200        ."      MOVS     r2,#0
        0x00004618:    4631        1F      MOV      r1,r6
        0x0000461a:    4648        HF      MOV      r0,r9
        0x0000461c:    f7fcfebc    ....    BL       CLK_SetModuleClock ; 0x1398
        0x00004620:    2200        ."      MOVS     r2,#0
        0x00004622:    4611        .F      MOV      r1,r2
        0x00004624:    4650        PF      MOV      r0,r10
        0x00004626:    f7fcfeb7    ....    BL       CLK_SetModuleClock ; 0x1398
        0x0000462a:    6be0        .k      LDR      r0,[r4,#0x3c]
        0x0000462c:    f420007f     ...    BIC      r0,r0,#0xff0000
        0x00004630:    63e0        .c      STR      r0,[r4,#0x3c]
        0x00004632:    6be0        .k      LDR      r0,[r4,#0x3c]
        0x00004634:    f44000cc    @...    ORR      r0,r0,#0x660000
        0x00004638:    63e0        .c      STR      r0,[r4,#0x3c]
        0x0000463a:    6b20         k      LDR      r0,[r4,#0x30]
        0x0000463c:    f36f000f    o...    BFC      r0,#0,#16
        0x00004640:    6320         c      STR      r0,[r4,#0x30]
        0x00004642:    6b20         k      LDR      r0,[r4,#0x30]
        0x00004644:    f6480188    H...    MOV      r1,#0x8888
        0x00004648:    4308        .C      ORRS     r0,r0,r1
        0x0000464a:    6320         c      STR      r0,[r4,#0x30]
        0x0000464c:    6c20         l      LDR      r0,[r4,#0x40]
        0x0000464e:    f420007f     ...    BIC      r0,r0,#0xff0000
        0x00004652:    6420         d      STR      r0,[r4,#0x40]
        0x00004654:    6c20         l      LDR      r0,[r4,#0x40]
        0x00004656:    f4400008    @...    ORR      r0,r0,#0x880000
        0x0000465a:    6420         d      STR      r0,[r4,#0x40]
        0x0000465c:    6c28        (l      LDR      r0,[r5,#0x40]
        0x0000465e:    f36f000d    o...    BFC      r0,#0,#14
        0x00004662:    6428        (d      STR      r0,[r5,#0x40]
        0x00004664:    6ba0        .k      LDR      r0,[r4,#0x38]
        0x00004666:    f0004070    ..p@    AND      r0,r0,#0xf0000000
        0x0000466a:    63a0        .c      STR      r0,[r4,#0x38]
        0x0000466c:    6ba0        .k      LDR      r0,[r4,#0x38]
        0x0000466e:    4913        .I      LDR      r1,[pc,#76] ; [0x46bc] = 0x1111111
        0x00004670:    4308        .C      ORRS     r0,r0,r1
        0x00004672:    63a0        .c      STR      r0,[r4,#0x38]
        0x00004674:    6b20         k      LDR      r0,[r4,#0x30]
        0x00004676:    f420007f     ...    BIC      r0,r0,#0xff0000
        0x0000467a:    f4400019    @...    ORR      r0,r0,#0x990000
        0x0000467e:    6320         c      STR      r0,[r4,#0x30]
        0x00004680:    6a68        hj      LDR      r0,[r5,#0x24]
        0x00004682:    f0400030    @.0.    ORR      r0,r0,#0x30
        0x00004686:    6268        hb      STR      r0,[r5,#0x24]
        0x00004688:    6c68        hl      LDR      r0,[r5,#0x44]
        0x0000468a:    f44000fe    @...    ORR      r0,r0,#0x7f0000
        0x0000468e:    6468        hd      STR      r0,[r5,#0x44]
        0x00004690:    e8bd87f0    ....    POP      {r4-r10,pc}
    $d
        0x00004694:    0b71b000    ..q.    DCD    192000000
        0x00004698:    57803d10    .=.W    DCD    1468022032
        0x0000469c:    57a03d91    .=.W    DCD    1470119313
        0x000046a0:    778c3c12    .<.w    DCD    2005679122
        0x000046a4:    40000008    ...@    DCD    1073741832
        0x000046a8:    4003fe1c    ...@    DCD    1074003484
        0x000046ac:    5e800002    ...^    DCD    1585446914
        0x000046b0:    5ec00003    ...^    DCD    1589641219
        0x000046b4:    5f000004    ..._    DCD    1593835524
        0x000046b8:    5f400005    ..@_    DCD    1598029829
        0x000046bc:    01111111    ....    DCD    17895697
    $t
    i.SYS_UnlockReg
    SYS_UnlockReg
        0x000046c0:    2159        Y!      MOVS     r1,#0x59
        0x000046c2:    b510        ..      PUSH     {r4,lr}
        0x000046c4:    0788        ..      LSLS     r0,r1,#30
        0x000046c6:    2216        ."      MOVS     r2,#0x16
        0x000046c8:    2388        .#      MOVS     r3,#0x88
        0x000046ca:    f8c01100    ....    STR      r1,[r0,#0x100]
        0x000046ce:    f8c02100    ...!    STR      r2,[r0,#0x100]
        0x000046d2:    f8c03100    ...1    STR      r3,[r0,#0x100]
        0x000046d6:    f8d04100    ...A    LDR      r4,[r0,#0x100]
        0x000046da:    2c00        .,      CMP      r4,#0
        0x000046dc:    d0f5        ..      BEQ      0x46ca ; SYS_UnlockReg + 10
        0x000046de:    bd10        ..      POP      {r4,pc}
    i.SendChar
    SendChar
        0x000046e0:    4906        .I      LDR      r1,[pc,#24] ; [0x46fc] = 0x40070000
        0x000046e2:    698a        .i      LDR      r2,[r1,#0x18]
        0x000046e4:    0212        ..      LSLS     r2,r2,#8
        0x000046e6:    d4fc        ..      BMI      0x46e2 ; SendChar + 2
        0x000046e8:    280a        .(      CMP      r0,#0xa
        0x000046ea:    d104        ..      BNE      0x46f6 ; SendChar + 22
        0x000046ec:    220d        ."      MOVS     r2,#0xd
        0x000046ee:    600a        .`      STR      r2,[r1,#0]
        0x000046f0:    698a        .i      LDR      r2,[r1,#0x18]
        0x000046f2:    0212        ..      LSLS     r2,r2,#8
        0x000046f4:    d4fc        ..      BMI      0x46f0 ; SendChar + 16
        0x000046f6:    6008        .`      STR      r0,[r1,#0]
        0x000046f8:    4770        pG      BX       lr
    $d
        0x000046fa:    0000        ..      DCW    0
        0x000046fc:    40070000    ...@    DCD    1074200576
    $t
    i.SetDateTime
    SetDateTime
        0x00004700:    b513        ..      PUSH     {r0,r1,r4,lr}
        0x00004702:    466c        lF      MOV      r4,sp
        0x00004704:    1ca0        ..      ADDS     r0,r4,#2
        0x00004706:    f7fcfc6f    ..o.    BL       Bcd2HexConversion ; 0xfe8
        0x0000470a:    f89d2002    ...     LDRB     r2,[sp,#2]
        0x0000470e:    2110        .!      MOVS     r1,#0x10
        0x00004710:    2032        2       MOVS     r0,#0x32
        0x00004712:    f7fdf923    ..#.    BL       I2C0_Write_RTC ; 0x195c
        0x00004716:    1c60        `.      ADDS     r0,r4,#1
        0x00004718:    f7fcfc66    ..f.    BL       Bcd2HexConversion ; 0xfe8
        0x0000471c:    f89d2001    ...     LDRB     r2,[sp,#1]
        0x00004720:    2111        .!      MOVS     r1,#0x11
        0x00004722:    2032        2       MOVS     r0,#0x32
        0x00004724:    f7fdf91a    ....    BL       I2C0_Write_RTC ; 0x195c
        0x00004728:    4668        hF      MOV      r0,sp
        0x0000472a:    f7fcfc5d    ..].    BL       Bcd2HexConversion ; 0xfe8
        0x0000472e:    f89d2000    ...     LDRB     r2,[sp,#0]
        0x00004732:    2112        .!      MOVS     r1,#0x12
        0x00004734:    2032        2       MOVS     r0,#0x32
        0x00004736:    f7fdf911    ....    BL       I2C0_Write_RTC ; 0x195c
        0x0000473a:    1ce0        ..      ADDS     r0,r4,#3
        0x0000473c:    f7fcfc54    ..T.    BL       Bcd2HexConversion ; 0xfe8
        0x00004740:    f89d2003    ...     LDRB     r2,[sp,#3]
        0x00004744:    2114        .!      MOVS     r1,#0x14
        0x00004746:    2032        2       MOVS     r0,#0x32
        0x00004748:    f7fdf908    ....    BL       I2C0_Write_RTC ; 0x195c
        0x0000474c:    1d20         .      ADDS     r0,r4,#4
        0x0000474e:    f7fcfc4b    ..K.    BL       Bcd2HexConversion ; 0xfe8
        0x00004752:    f89d2004    ...     LDRB     r2,[sp,#4]
        0x00004756:    2115        .!      MOVS     r1,#0x15
        0x00004758:    2032        2       MOVS     r0,#0x32
        0x0000475a:    f7fdf8ff    ....    BL       I2C0_Write_RTC ; 0x195c
        0x0000475e:    1d60        `.      ADDS     r0,r4,#5
        0x00004760:    f7fcfc42    ..B.    BL       Bcd2HexConversion ; 0xfe8
        0x00004764:    f89d2005    ...     LDRB     r2,[sp,#5]
        0x00004768:    2116        .!      MOVS     r1,#0x16
        0x0000476a:    2032        2       MOVS     r0,#0x32
        0x0000476c:    f7fdf8f6    ....    BL       I2C0_Write_RTC ; 0x195c
        0x00004770:    f7fff83c    ..<.    BL       ReadDateTime ; 0x37ec
        0x00004774:    f99d0000    ....    LDRSB    r0,[sp,#0]
        0x00004778:    2800        .(      CMP      r0,#0
        0x0000477a:    dc07        ..      BGT      0x478c ; SetDateTime + 140
        0x0000477c:    f99d0001    ....    LDRSB    r0,[sp,#1]
        0x00004780:    2800        .(      CMP      r0,#0
        0x00004782:    dc03        ..      BGT      0x478c ; SetDateTime + 140
        0x00004784:    f99d0002    ....    LDRSB    r0,[sp,#2]
        0x00004788:    2800        .(      CMP      r0,#0
        0x0000478a:    dd0b        ..      BLE      0x47a4 ; SetDateTime + 164
        0x0000478c:    f99d0003    ....    LDRSB    r0,[sp,#3]
        0x00004790:    2800        .(      CMP      r0,#0
        0x00004792:    dd07        ..      BLE      0x47a4 ; SetDateTime + 164
        0x00004794:    f99d0004    ....    LDRSB    r0,[sp,#4]
        0x00004798:    2800        .(      CMP      r0,#0
        0x0000479a:    dd03        ..      BLE      0x47a4 ; SetDateTime + 164
        0x0000479c:    f99d0005    ....    LDRSB    r0,[sp,#5]
        0x000047a0:    2800        .(      CMP      r0,#0
        0x000047a2:    dc02        ..      BGT      0x47aa ; SetDateTime + 170
        0x000047a4:    f04f30ff    O..0    MOV      r0,#0xffffffff
        0x000047a8:    bd1c        ..      POP      {r2-r4,pc}
        0x000047aa:    2000        .       MOVS     r0,#0
        0x000047ac:    bd1c        ..      POP      {r2-r4,pc}
        0x000047ae:    0000        ..      MOVS     r0,r0
    i.SystemCoreClockUpdate
    SystemCoreClockUpdate
        0x000047b0:    b510        ..      PUSH     {r4,lr}
        0x000047b2:    f7fcfd55    ..U.    BL       CLK_GetPLLClockFreq ; 0x1260
        0x000047b6:    4a0e        .J      LDR      r2,[pc,#56] ; [0x47f0] = 0x20000000
        0x000047b8:    f04f4380    O..C    MOV      r3,#0x40000000
        0x000047bc:    6090        .`      STR      r0,[r2,#8]
        0x000047be:    f8d31210    ....    LDR      r1,[r3,#0x210]
        0x000047c2:    f0010107    ....    AND      r1,r1,#7
        0x000047c6:    2902        .)      CMP      r1,#2
        0x000047c8:    d003        ..      BEQ      0x47d2 ; SystemCoreClockUpdate + 34
        0x000047ca:    f102000c    ....    ADD      r0,r2,#0xc
        0x000047ce:    f8500021    P.!.    LDR      r0,[r0,r1,LSL #2]
        0x000047d2:    f8d31220    .. .    LDR      r1,[r3,#0x220]
        0x000047d6:    f001010f    ....    AND      r1,r1,#0xf
        0x000047da:    1c49        I.      ADDS     r1,r1,#1
        0x000047dc:    fbb0f0f1    ....    UDIV     r0,r0,r1
        0x000047e0:    4904        .I      LDR      r1,[pc,#16] ; [0x47f4] = 0x7a120
        0x000047e2:    6010        .`      STR      r0,[r2,#0]
        0x000047e4:    4408        .D      ADD      r0,r0,r1
        0x000047e6:    0049        I.      LSLS     r1,r1,#1
        0x000047e8:    fbb0f0f1    ....    UDIV     r0,r0,r1
        0x000047ec:    6050        P`      STR      r0,[r2,#4]
        0x000047ee:    bd10        ..      POP      {r4,pc}
    $d
        0x000047f0:    20000000    ...     DCD    536870912
        0x000047f4:    0007a120     ...    DCD    500000
    $t
    i.SystemInit
    SystemInit
        0x000047f8:    481a        .H      LDR      r0,[pc,#104] ; [0x4864] = 0xe000ed88
        0x000047fa:    6801        .h      LDR      r1,[r0,#0]
        0x000047fc:    f4410170    A.p.    ORR      r1,r1,#0xf00000
        0x00004800:    6001        .`      STR      r1,[r0,#0]
        0x00004802:    4819        .H      LDR      r0,[pc,#100] ; [0x4868] = 0x4000c000
        0x00004804:    6cc1        .l      LDR      r1,[r0,#0x4c]
        0x00004806:    f021010f    !...    BIC      r1,r1,#0xf
        0x0000480a:    f0410108    A...    ORR      r1,r1,#8
        0x0000480e:    64c1        .d      STR      r1,[r0,#0x4c]
        0x00004810:    f04f4080    O..@    MOV      r0,#0x40000000
        0x00004814:    f8d01298    ....    LDR      r1,[r0,#0x298]
        0x00004818:    f4412180    A..!    ORR      r1,r1,#0x40000
        0x0000481c:    f8c01298    ....    STR      r1,[r0,#0x298]
        0x00004820:    f8d01208    ....    LDR      r1,[r0,#0x208]
        0x00004824:    f0410102    A...    ORR      r1,r1,#2
        0x00004828:    f8c01208    ....    STR      r1,[r0,#0x208]
        0x0000482c:    490f        .I      LDR      r1,[pc,#60] ; [0x486c] = 0x40041000
        0x0000482e:    f8d12104    ...!    LDR      r2,[r1,#0x104]
        0x00004832:    f00232f7    ...2    AND      r2,r2,#0xf7f7f7f7
        0x00004836:    f8c12104    ...!    STR      r2,[r1,#0x104]
        0x0000483a:    f8d12108    ...!    LDR      r2,[r1,#0x108]
        0x0000483e:    f00232f7    ...2    AND      r2,r2,#0xf7f7f7f7
        0x00004842:    f8c12108    ...!    STR      r2,[r1,#0x108]
        0x00004846:    f8d01208    ....    LDR      r1,[r0,#0x208]
        0x0000484a:    f0210102    !...    BIC      r1,r1,#2
        0x0000484e:    f8c01208    ....    STR      r1,[r0,#0x208]
        0x00004852:    f04f2040    O.@     MOV      r0,#0x40004000
        0x00004856:    f8d01140    ..@.    LDR      r1,[r0,#0x140]
        0x0000485a:    f02101f0    !...    BIC      r1,r1,#0xf0
        0x0000485e:    f8c01140    ..@.    STR      r1,[r0,#0x140]
        0x00004862:    4770        pG      BX       lr
    $d
        0x00004864:    e000ed88    ....    DCD    3758157192
        0x00004868:    4000c000    ...@    DCD    1073790976
        0x0000486c:    40041000    ...@    DCD    1074008064
    $t
    i.TIMER_GetModuleClock
    TIMER_GetModuleClock
        0x00004870:    b510        ..      PUSH     {r4,lr}
        0x00004872:    b088        ..      SUB      sp,sp,#0x20
        0x00004874:    4604        .F      MOV      r4,r0
        0x00004876:    2220         "      MOVS     r2,#0x20
        0x00004878:    4917        .I      LDR      r1,[pc,#92] ; [0x48d8] = 0x6d84
        0x0000487a:    4668        hF      MOV      r0,sp
        0x0000487c:    f7fbfd13    ....    BL       __aeabi_memcpy ; 0x2a6
        0x00004880:    4a16        .J      LDR      r2,[pc,#88] ; [0x48dc] = 0x40050000
        0x00004882:    4b17        .K      LDR      r3,[pc,#92] ; [0x48e0] = 0x40050100
        0x00004884:    0390        ..      LSLS     r0,r2,#14
        0x00004886:    4294        .B      CMP      r4,r2
        0x00004888:    d104        ..      BNE      0x4894 ; TIMER_GetModuleClock + 36
        0x0000488a:    f8d00214    ....    LDR      r0,[r0,#0x214]
        0x0000488e:    f3c02102    ...!    UBFX     r1,r0,#8,#3
        0x00004892:    e010        ..      B        0x48b6 ; TIMER_GetModuleClock + 70
        0x00004894:    429c        .B      CMP      r4,r3
        0x00004896:    d104        ..      BNE      0x48a2 ; TIMER_GetModuleClock + 50
        0x00004898:    f8d00214    ....    LDR      r0,[r0,#0x214]
        0x0000489c:    f3c03102    ...1    UBFX     r1,r0,#12,#3
        0x000048a0:    e009        ..      B        0x48b6 ; TIMER_GetModuleClock + 70
        0x000048a2:    4910        .I      LDR      r1,[pc,#64] ; [0x48e4] = 0x40051000
        0x000048a4:    f8d00214    ....    LDR      r0,[r0,#0x214]
        0x000048a8:    428c        .B      CMP      r4,r1
        0x000048aa:    d102        ..      BNE      0x48b2 ; TIMER_GetModuleClock + 66
        0x000048ac:    f3c04102    ...A    UBFX     r1,r0,#16,#3
        0x000048b0:    e001        ..      B        0x48b6 ; TIMER_GetModuleClock + 70
        0x000048b2:    f3c05102    ...Q    UBFX     r1,r0,#20,#3
        0x000048b6:    2902        .)      CMP      r1,#2
        0x000048b8:    d003        ..      BEQ      0x48c2 ; TIMER_GetModuleClock + 82
        0x000048ba:    f85d0021    ].!.    LDR      r0,[sp,r1,LSL #2]
        0x000048be:    b008        ..      ADD      sp,sp,#0x20
        0x000048c0:    bd10        ..      POP      {r4,pc}
        0x000048c2:    4294        .B      CMP      r4,r2
        0x000048c4:    d001        ..      BEQ      0x48ca ; TIMER_GetModuleClock + 90
        0x000048c6:    429c        .B      CMP      r4,r3
        0x000048c8:    d102        ..      BNE      0x48d0 ; TIMER_GetModuleClock + 96
        0x000048ca:    f7fcfc63    ..c.    BL       CLK_GetPCLK0Freq ; 0x1194
        0x000048ce:    e7f6        ..      B        0x48be ; TIMER_GetModuleClock + 78
        0x000048d0:    f7fcfc92    ....    BL       CLK_GetPCLK1Freq ; 0x11f8
        0x000048d4:    e7f3        ..      B        0x48be ; TIMER_GetModuleClock + 78
    $d
        0x000048d6:    0000        ..      DCW    0
        0x000048d8:    00006d84    .m..    DCD    28036
        0x000048dc:    40050000    ...@    DCD    1074069504
        0x000048e0:    40050100    ...@    DCD    1074069760
        0x000048e4:    40051000    ...@    DCD    1074073600
    $t
    i.TIMER_Open
    TIMER_Open
        0x000048e8:    b570        p.      PUSH     {r4-r6,lr}
        0x000048ea:    4616        .F      MOV      r6,r2
        0x000048ec:    460d        .F      MOV      r5,r1
        0x000048ee:    4604        .F      MOV      r4,r0
        0x000048f0:    f7ffffbe    ....    BL       TIMER_GetModuleClock ; 0x4870
        0x000048f4:    2300        .#      MOVS     r3,#0
        0x000048f6:    ebb60f50    ..P.    CMP      r6,r0,LSR #1
        0x000048fa:    d901        ..      BLS      0x4900 ; TIMER_Open + 24
        0x000048fc:    2202        ."      MOVS     r2,#2
        0x000048fe:    e006        ..      B        0x490e ; TIMER_Open + 38
        0x00004900:    fbb0f2f6    ....    UDIV     r2,r0,r6
        0x00004904:    0e13        ..      LSRS     r3,r2,#24
        0x00004906:    d002        ..      BEQ      0x490e ; TIMER_Open + 38
        0x00004908:    1c59        Y.      ADDS     r1,r3,#1
        0x0000490a:    fbb2f2f1    ....    UDIV     r2,r2,r1
        0x0000490e:    431d        .C      ORRS     r5,r5,r3
        0x00004910:    6025        %`      STR      r5,[r4,#0]
        0x00004912:    6062        b`      STR      r2,[r4,#4]
        0x00004914:    1c5b        [.      ADDS     r3,r3,#1
        0x00004916:    435a        ZC      MULS     r2,r3,r2
        0x00004918:    fbb0f0f2    ....    UDIV     r0,r0,r2
        0x0000491c:    bd70        p.      POP      {r4-r6,pc}
        0x0000491e:    0000        ..      MOVS     r0,r0
    i.TMR0_IRQHandler
    TMR0_IRQHandler
        0x00004920:    4905        .I      LDR      r1,[pc,#20] ; [0x4938] = 0x40050000
        0x00004922:    6888        .h      LDR      r0,[r1,#8]
        0x00004924:    f3c00000    ....    UBFX     r0,r0,#0,#1
        0x00004928:    2800        .(      CMP      r0,#0
        0x0000492a:    d003        ..      BEQ      0x4934 ; TMR0_IRQHandler + 20
        0x0000492c:    2001        .       MOVS     r0,#1
        0x0000492e:    6088        .`      STR      r0,[r1,#8]
        0x00004930:    4902        .I      LDR      r1,[pc,#8] ; [0x493c] = 0x2000002c
        0x00004932:    7108        .q      STRB     r0,[r1,#4]
        0x00004934:    4770        pG      BX       lr
    $d
        0x00004936:    0000        ..      DCW    0
        0x00004938:    40050000    ...@    DCD    1074069504
        0x0000493c:    2000002c    ,..     DCD    536870956
    $t
    i.TMR1_IRQHandler
    TMR1_IRQHandler
        0x00004940:    4905        .I      LDR      r1,[pc,#20] ; [0x4958] = 0x40050100
        0x00004942:    6888        .h      LDR      r0,[r1,#8]
        0x00004944:    f3c00000    ....    UBFX     r0,r0,#0,#1
        0x00004948:    2800        .(      CMP      r0,#0
        0x0000494a:    d003        ..      BEQ      0x4954 ; TMR1_IRQHandler + 20
        0x0000494c:    2001        .       MOVS     r0,#1
        0x0000494e:    6088        .`      STR      r0,[r1,#8]
        0x00004950:    4902        .I      LDR      r1,[pc,#8] ; [0x495c] = 0x2000002c
        0x00004952:    70c8        .p      STRB     r0,[r1,#3]
        0x00004954:    4770        pG      BX       lr
    $d
        0x00004956:    0000        ..      DCW    0
        0x00004958:    40050100    ...@    DCD    1074069760
        0x0000495c:    2000002c    ,..     DCD    536870956
    $t
    i.Timer_Init
    Timer_Init
        0x00004960:    b570        p.      PUSH     {r4-r6,lr}
        0x00004962:    2201        ."      MOVS     r2,#1
        0x00004964:    4c14        .L      LDR      r4,[pc,#80] ; [0x49b8] = 0x40050000
        0x00004966:    06d5        ..      LSLS     r5,r2,#27
        0x00004968:    4629        )F      MOV      r1,r5
        0x0000496a:    4620         F      MOV      r0,r4
        0x0000496c:    f7ffffbc    ....    BL       TIMER_Open ; 0x48e8
        0x00004970:    6820         h      LDR      r0,[r4,#0]
        0x00004972:    f0405000    @..P    ORR      r0,r0,#0x20000000
        0x00004976:    6020         `      STR      r0,[r4,#0]
        0x00004978:    2020                MOVS     r0,#0x20
        0x0000497a:    f7fdf8df    ....    BL       NVIC_EnableIRQ ; 0x1b3c
        0x0000497e:    4629        )F      MOV      r1,r5
        0x00004980:    4d0e        .M      LDR      r5,[pc,#56] ; [0x49bc] = 0x40050100
        0x00004982:    2201        ."      MOVS     r2,#1
        0x00004984:    4628        (F      MOV      r0,r5
        0x00004986:    f7ffffaf    ....    BL       TIMER_Open ; 0x48e8
        0x0000498a:    f8d40100    ....    LDR      r0,[r4,#0x100]
        0x0000498e:    f02000ff     ...    BIC      r0,r0,#0xff
        0x00004992:    1dc0        ..      ADDS     r0,r0,#7
        0x00004994:    f8c40100    ....    STR      r0,[r4,#0x100]
        0x00004998:    4809        .H      LDR      r0,[pc,#36] ; [0x49c0] = 0x36ee80
        0x0000499a:    f8c40104    ....    STR      r0,[r4,#0x104]
        0x0000499e:    2021        !       MOVS     r0,#0x21
        0x000049a0:    f7fdf8cc    ....    BL       NVIC_EnableIRQ ; 0x1b3c
        0x000049a4:    4907        .I      LDR      r1,[pc,#28] ; [0x49c4] = 0xe000e021
        0x000049a6:    2010        .       MOVS     r0,#0x10
        0x000049a8:    f8810400    ....    STRB     r0,[r1,#0x400]
        0x000049ac:    6828        (h      LDR      r0,[r5,#0]
        0x000049ae:    f0405000    @..P    ORR      r0,r0,#0x20000000
        0x000049b2:    6028        (`      STR      r0,[r5,#0]
        0x000049b4:    bd70        p.      POP      {r4-r6,pc}
    $d
        0x000049b6:    0000        ..      DCW    0
        0x000049b8:    40050000    ...@    DCD    1074069504
        0x000049bc:    40050100    ...@    DCD    1074069760
        0x000049c0:    0036ee80    ..6.    DCD    3600000
        0x000049c4:    e000e021    !...    DCD    3758153761
    $t
    i.UART0_IRQHandler
    UART0_IRQHandler
        0x000049c8:    f002b966    ..f.    B.W      uart_receive_function ; 0x6c98
    i.UART0_Init
    UART0_Init
        0x000049cc:    b510        ..      PUSH     {r4,lr}
        0x000049ce:    4c07        .L      LDR      r4,[pc,#28] ; [0x49ec] = 0x40070000
        0x000049d0:    f44f31e1    O..1    MOV      r1,#0x1c200
        0x000049d4:    4620         F      MOV      r0,r4
        0x000049d6:    f000f837    ..7.    BL       UART_Open ; 0x4a48
        0x000049da:    2101        .!      MOVS     r1,#1
        0x000049dc:    4620         F      MOV      r0,r4
        0x000049de:    f000f82f    ../.    BL       UART_EnableInt ; 0x4a40
        0x000049e2:    e8bd4010    ...@    POP      {r4,lr}
        0x000049e6:    2024        $       MOVS     r0,#0x24
        0x000049e8:    f7fdb8a8    ....    B        NVIC_EnableIRQ ; 0x1b3c
    $d
        0x000049ec:    40070000    ...@    DCD    1074200576
    $t
    i.UART1_IRQHandler
    UART1_IRQHandler
        0x000049f0:    f001b968    ..h.    B.W      _trace_uart_receive_function ; 0x5cc4
    i.UART1_Init
    UART1_Init
        0x000049f4:    b510        ..      PUSH     {r4,lr}
        0x000049f6:    4c07        .L      LDR      r4,[pc,#28] ; [0x4a14] = 0x40071000
        0x000049f8:    f44f31e1    O..1    MOV      r1,#0x1c200
        0x000049fc:    4620         F      MOV      r0,r4
        0x000049fe:    f000f823    ..#.    BL       UART_Open ; 0x4a48
        0x00004a02:    2101        .!      MOVS     r1,#1
        0x00004a04:    4620         F      MOV      r0,r4
        0x00004a06:    f000f81b    ....    BL       UART_EnableInt ; 0x4a40
        0x00004a0a:    e8bd4010    ...@    POP      {r4,lr}
        0x00004a0e:    2025        %       MOVS     r0,#0x25
        0x00004a10:    f7fdb894    ....    B        NVIC_EnableIRQ ; 0x1b3c
    $d
        0x00004a14:    40071000    ...@    DCD    1074204672
    $t
    i.UART2_IRQHandler
    UART2_IRQHandler
        0x00004a18:    4770        pG      BX       lr
        0x00004a1a:    0000        ..      MOVS     r0,r0
    i.UART2_Init
    UART2_Init
        0x00004a1c:    b510        ..      PUSH     {r4,lr}
        0x00004a1e:    4c07        .L      LDR      r4,[pc,#28] ; [0x4a3c] = 0x40072000
        0x00004a20:    f44f5116    O..Q    MOV      r1,#0x2580
        0x00004a24:    4620         F      MOV      r0,r4
        0x00004a26:    f000f80f    ....    BL       UART_Open ; 0x4a48
        0x00004a2a:    2101        .!      MOVS     r1,#1
        0x00004a2c:    4620         F      MOV      r0,r4
        0x00004a2e:    f000f807    ....    BL       UART_EnableInt ; 0x4a40
        0x00004a32:    e8bd4010    ...@    POP      {r4,lr}
        0x00004a36:    2030        0       MOVS     r0,#0x30
        0x00004a38:    f7fdb880    ....    B        NVIC_EnableIRQ ; 0x1b3c
    $d
        0x00004a3c:    40072000    . .@    DCD    1074208768
    $t
    i.UART_EnableInt
    UART_EnableInt
        0x00004a40:    6842        Bh      LDR      r2,[r0,#4]
        0x00004a42:    430a        .C      ORRS     r2,r2,r1
        0x00004a44:    6042        B`      STR      r2,[r0,#4]
        0x00004a46:    4770        pG      BX       lr
    i.UART_Open
    UART_Open
        0x00004a48:    e92d41ff    -..A    PUSH     {r0-r8,lr}
        0x00004a4c:    4604        .F      MOV      r4,r0
        0x00004a4e:    484d        MH      LDR      r0,[pc,#308] ; [0x4b84] = 0x6d54
        0x00004a50:    460f        .F      MOV      r7,r1
        0x00004a52:    2500        .%      MOVS     r5,#0
        0x00004a54:    c80f        ..      LDM      r0,{r0-r3}
        0x00004a56:    e88d000f    ....    STM      sp,{r0-r3}
        0x00004a5a:    494b        KI      LDR      r1,[pc,#300] ; [0x4b88] = 0x40070000
        0x00004a5c:    462e        .F      MOV      r6,r5
        0x00004a5e:    f04f4080    O..@    MOV      r0,#0x40000000
        0x00004a62:    428c        .B      CMP      r4,r1
        0x00004a64:    d106        ..      BNE      0x4a74 ; UART_Open + 44
        0x00004a66:    f8d01214    ....    LDR      r1,[r0,#0x214]
        0x00004a6a:    f8d00220    .. .    LDR      r0,[r0,#0x220]
        0x00004a6e:    f3c16501    ...e    UBFX     r5,r1,#24,#2
        0x00004a72:    e02a        *.      B        0x4aca ; UART_Open + 130
        0x00004a74:    4945        EI      LDR      r1,[pc,#276] ; [0x4b8c] = 0x40071000
        0x00004a76:    428c        .B      CMP      r4,r1
        0x00004a78:    d106        ..      BNE      0x4a88 ; UART_Open + 64
        0x00004a7a:    f8d01214    ....    LDR      r1,[r0,#0x214]
        0x00004a7e:    f8d00220    .. .    LDR      r0,[r0,#0x220]
        0x00004a82:    f3c16581    ...e    UBFX     r5,r1,#26,#2
        0x00004a86:    e02b        +.      B        0x4ae0 ; UART_Open + 152
        0x00004a88:    4941        AI      LDR      r1,[pc,#260] ; [0x4b90] = 0x40072000
        0x00004a8a:    428c        .B      CMP      r4,r1
        0x00004a8c:    d108        ..      BNE      0x4aa0 ; UART_Open + 88
        0x00004a8e:    f8d0121c    ....    LDR      r1,[r0,#0x21c]
        0x00004a92:    f8d00230    ..0.    LDR      r0,[r0,#0x230]
        0x00004a96:    f3c16501    ...e    UBFX     r5,r1,#24,#2
        0x00004a9a:    f000060f    ....    AND      r6,r0,#0xf
        0x00004a9e:    e044        D.      B        0x4b2a ; UART_Open + 226
        0x00004aa0:    493c        <I      LDR      r1,[pc,#240] ; [0x4b94] = 0x40073000
        0x00004aa2:    428c        .B      CMP      r4,r1
        0x00004aa4:    d108        ..      BNE      0x4ab8 ; UART_Open + 112
        0x00004aa6:    f8d0121c    ....    LDR      r1,[r0,#0x21c]
        0x00004aaa:    f8d00230    ..0.    LDR      r0,[r0,#0x230]
        0x00004aae:    f3c16581    ...e    UBFX     r5,r1,#26,#2
        0x00004ab2:    f3c01603    ....    UBFX     r6,r0,#4,#4
        0x00004ab6:    e038        8.      B        0x4b2a ; UART_Open + 226
        0x00004ab8:    4937        7I      LDR      r1,[pc,#220] ; [0x4b98] = 0x40074000
        0x00004aba:    428c        .B      CMP      r4,r1
        0x00004abc:    d108        ..      BNE      0x4ad0 ; UART_Open + 136
        0x00004abe:    f8d0121c    ....    LDR      r1,[r0,#0x21c]
        0x00004ac2:    f8d00230    ..0.    LDR      r0,[r0,#0x230]
        0x00004ac6:    f3c17501    ...u    UBFX     r5,r1,#28,#2
        0x00004aca:    f3c02603    ...&    UBFX     r6,r0,#8,#4
        0x00004ace:    e02c        ,.      B        0x4b2a ; UART_Open + 226
        0x00004ad0:    4932        2I      LDR      r1,[pc,#200] ; [0x4b9c] = 0x40075000
        0x00004ad2:    428c        .B      CMP      r4,r1
        0x00004ad4:    d107        ..      BNE      0x4ae6 ; UART_Open + 158
        0x00004ad6:    f8d0121c    ....    LDR      r1,[r0,#0x21c]
        0x00004ada:    f8d00230    ..0.    LDR      r0,[r0,#0x230]
        0x00004ade:    0f8d        ..      LSRS     r5,r1,#30
        0x00004ae0:    f3c03603    ...6    UBFX     r6,r0,#12,#4
        0x00004ae4:    e021        !.      B        0x4b2a ; UART_Open + 226
        0x00004ae6:    492e        .I      LDR      r1,[pc,#184] ; [0x4ba0] = 0x40076000
        0x00004ae8:    428c        .B      CMP      r4,r1
        0x00004aea:    d104        ..      BNE      0x4af6 ; UART_Open + 174
        0x00004aec:    f8d011f4    ....    LDR      r1,[r0,#0x1f4]
        0x00004af0:    b2c9        ..      UXTB     r1,r1
        0x00004af2:    2901        .)      CMP      r1,#1
        0x00004af4:    d008        ..      BEQ      0x4b08 ; UART_Open + 192
        0x00004af6:    492b        +I      LDR      r1,[pc,#172] ; [0x4ba4] = 0x40077000
        0x00004af8:    428c        .B      CMP      r4,r1
        0x00004afa:    d116        ..      BNE      0x4b2a ; UART_Open + 226
        0x00004afc:    f8d011f4    ....    LDR      r1,[r0,#0x1f4]
        0x00004b00:    b2c9        ..      UXTB     r1,r1
        0x00004b02:    2901        .)      CMP      r1,#1
        0x00004b04:    d009        ..      BEQ      0x4b1a ; UART_Open + 210
        0x00004b06:    e010        ..      B        0x4b2a ; UART_Open + 226
        0x00004b08:    f8d0121c    ....    LDR      r1,[r0,#0x21c]
        0x00004b0c:    f8d00230    ..0.    LDR      r0,[r0,#0x230]
        0x00004b10:    f3c15501    ...U    UBFX     r5,r1,#20,#2
        0x00004b14:    f3c04603    ...F    UBFX     r6,r0,#16,#4
        0x00004b18:    e007        ..      B        0x4b2a ; UART_Open + 226
        0x00004b1a:    f8d0121c    ....    LDR      r1,[r0,#0x21c]
        0x00004b1e:    f8d00230    ..0.    LDR      r0,[r0,#0x230]
        0x00004b22:    f3c15581    ...U    UBFX     r5,r1,#22,#2
        0x00004b26:    f3c05603    ...V    UBFX     r6,r0,#20,#4
        0x00004b2a:    2000        .       MOVS     r0,#0
        0x00004b2c:    6320         c      STR      r0,[r4,#0x30]
        0x00004b2e:    2003        .       MOVS     r0,#3
        0x00004b30:    60e0        .`      STR      r0,[r4,#0xc]
        0x00004b32:    68a0        .h      LDR      r0,[r4,#8]
        0x00004b34:    491c        .I      LDR      r1,[pc,#112] ; [0x4ba8] = 0xfff0ff0f
        0x00004b36:    4008        .@      ANDS     r0,r0,r1
        0x00004b38:    60a0        .`      STR      r0,[r4,#8]
        0x00004b3a:    46e8        .F      MOV      r8,sp
        0x00004b3c:    2d01        .-      CMP      r5,#1
        0x00004b3e:    d102        ..      BNE      0x4b46 ; UART_Open + 254
        0x00004b40:    f7fcfb8e    ....    BL       CLK_GetPLLClockFreq ; 0x1260
        0x00004b44:    9001        ..      STR      r0,[sp,#4]
        0x00004b46:    2f00        ./      CMP      r7,#0
        0x00004b48:    d01a        ..      BEQ      0x4b80 ; UART_Open + 312
        0x00004b4a:    f8581025    X.%.    LDR      r1,[r8,r5,LSL #2]
        0x00004b4e:    1c76        v.      ADDS     r6,r6,#1
        0x00004b50:    fbb1f0f6    ....    UDIV     r0,r1,r6
        0x00004b54:    eb000057    ..W.    ADD      r0,r0,r7,LSR #1
        0x00004b58:    fbb0f0f7    ....    UDIV     r0,r0,r7
        0x00004b5c:    1e80        ..      SUBS     r0,r0,#2
        0x00004b5e:    f5b03f80    ...?    CMP      r0,#0x10000
        0x00004b62:    d30a        ..      BCC      0x4b7a ; UART_Open + 306
        0x00004b64:    fbb1f0f6    ....    UDIV     r0,r1,r6
        0x00004b68:    eb0000c7    ....    ADD      r0,r0,r7,LSL #3
        0x00004b6c:    fbb0f0f7    ....    UDIV     r0,r0,r7
        0x00004b70:    f06f0101    o...    MVN      r1,#1
        0x00004b74:    eb011010    ....    ADD      r0,r1,r0,LSR #4
        0x00004b78:    e001        ..      B        0x4b7e ; UART_Open + 310
        0x00004b7a:    f0405040    @.@P    ORR      r0,r0,#0x30000000
        0x00004b7e:    6260        `b      STR      r0,[r4,#0x24]
        0x00004b80:    e8bd81ff    ....    POP      {r0-r8,pc}
    $d
        0x00004b84:    00006d54    Tm..    DCD    27988
        0x00004b88:    40070000    ...@    DCD    1074200576
        0x00004b8c:    40071000    ...@    DCD    1074204672
        0x00004b90:    40072000    . .@    DCD    1074208768
        0x00004b94:    40073000    .0.@    DCD    1074212864
        0x00004b98:    40074000    .@.@    DCD    1074216960
        0x00004b9c:    40075000    .P.@    DCD    1074221056
        0x00004ba0:    40076000    .`.@    DCD    1074225152
        0x00004ba4:    40077000    .p.@    DCD    1074229248
        0x00004ba8:    fff0ff0f    ....    DCD    4293984015
    $t
    i.Uart_Send_with_crc
    Uart_Send_with_crc
        0x00004bac:    b570        p.      PUSH     {r4-r6,lr}
        0x00004bae:    4604        .F      MOV      r4,r0
        0x00004bb0:    f7fbfbbb    ....    BL       strlen ; 0x32a
        0x00004bb4:    4605        .F      MOV      r5,r0
        0x00004bb6:    4601        .F      MOV      r1,r0
        0x00004bb8:    4620         F      MOV      r0,r4
        0x00004bba:    f001f93b    ..;.    BL       crc8 ; 0x5e34
        0x00004bbe:    4a07        .J      LDR      r2,[pc,#28] ; [0x4bdc] = 0x40070000
        0x00004bc0:    5560        `U      STRB     r0,[r4,r5]
        0x00004bc2:    1c69        i.      ADDS     r1,r5,#1
        0x00004bc4:    2024        $       MOVS     r0,#0x24
        0x00004bc6:    6010        .`      STR      r0,[r2,#0]
        0x00004bc8:    2000        .       MOVS     r0,#0
        0x00004bca:    e002        ..      B        0x4bd2 ; Uart_Send_with_crc + 38
        0x00004bcc:    5c23        #\      LDRB     r3,[r4,r0]
        0x00004bce:    6013        .`      STR      r3,[r2,#0]
        0x00004bd0:    1c40        @.      ADDS     r0,r0,#1
        0x00004bd2:    4288        .B      CMP      r0,r1
        0x00004bd4:    d3fa        ..      BCC      0x4bcc ; Uart_Send_with_crc + 32
        0x00004bd6:    200d        .       MOVS     r0,#0xd
        0x00004bd8:    6010        .`      STR      r0,[r2,#0]
        0x00004bda:    bd70        p.      POP      {r4-r6,pc}
    $d
        0x00004bdc:    40070000    ...@    DCD    1074200576
    $t
    i.WriteSettingsFile
    WriteSettingsFile
        0x00004be0:    e92d43f0    -..C    PUSH     {r4-r9,lr}
        0x00004be4:    f2ad6dc4    ...m    SUB      sp,sp,#0x6c4
        0x00004be8:    f44f75fa    O..u    MOV      r5,#0x1f4
        0x00004bec:    4629        )F      MOV      r1,r5
        0x00004bee:    a820         .      ADD      r0,sp,#0x80
        0x00004bf0:    f7fbfb72    ..r.    BL       __aeabi_memclr ; 0x2d8
        0x00004bf4:    4629        )F      MOV      r1,r5
        0x00004bf6:    a89d        ..      ADD      r0,sp,#0x274
        0x00004bf8:    f7fbfb6e    ..n.    BL       __aeabi_memclr ; 0x2d8
        0x00004bfc:    2400        .$      MOVS     r4,#0
        0x00004bfe:    f7fffd5f    .._.    BL       SYS_UnlockReg ; 0x46c0
        0x00004c02:    f7fcfd8d    ....    BL       FMC_Open ; 0x1720
        0x00004c06:    f44f3678    O.x6    MOV      r6,#0x3e000
        0x00004c0a:    4630        0F      MOV      r0,r6
        0x00004c0c:    f001ffb4    ....    BL       set_data_flash_base ; 0x6b78
        0x00004c10:    2800        .(      CMP      r0,#0
        0x00004c12:    da02        ..      BGE      0x4c1a ; WriteSettingsFile + 58
        0x00004c14:    a059        Y.      ADR      r0,{pc}+0x168 ; 0x4d7c
        0x00004c16:    f7fcfcbf    ....    BL       Debug ; 0x1598
        0x00004c1a:    4630        0F      MOV      r0,r6
        0x00004c1c:    f7fcfd1a    ....    BL       FMC_Erase ; 0x1654
        0x00004c20:    f04f39ff    O..9    MOV      r9,#0xffffffff
        0x00004c24:    b118        ..      CBZ      r0,0x4c2e ; WriteSettingsFile + 78
        0x00004c26:    a05f        _.      ADR      r0,{pc}+0x17e ; 0x4da4
        0x00004c28:    f7fcfcb6    ....    BL       Debug ; 0x1598
        0x00004c2c:    e08a        ..      B        0x4d44 ; WriteSettingsFile + 356
        0x00004c2e:    4629        )F      MOV      r1,r5
        0x00004c30:    a820         .      ADD      r0,sp,#0x80
        0x00004c32:    f7fbfb51    ..Q.    BL       __aeabi_memclr ; 0x2d8
        0x00004c36:    f44f7116    O..q    MOV      r1,#0x258
        0x00004c3a:    f50d608d    ...`    ADD      r0,sp,#0x468
        0x00004c3e:    f7fbfb4b    ..K.    BL       __aeabi_memclr ; 0x2d8
        0x00004c42:    4863        cH      LDR      r0,[pc,#396] ; [0x4dd0] = 0x20001140
        0x00004c44:    f10d0870    ..p.    ADD      r8,sp,#0x70
        0x00004c48:    7bc1        .{      LDRB     r1,[r0,#0xf]
        0x00004c4a:    7c87        .|      LDRB     r7,[r0,#0x12]
        0x00004c4c:    7c43        C|      LDRB     r3,[r0,#0x11]
        0x00004c4e:    7c02        .|      LDRB     r2,[r0,#0x10]
        0x00004c50:    e888008e    ....    STM      r8,{r1-r3,r7}
        0x00004c54:    495f        _I      LDR      r1,[pc,#380] ; [0x4dd4] = 0x20000078
        0x00004c56:    f10d0860    ..`.    ADD      r8,sp,#0x60
        0x00004c5a:    f8912061    ..a     LDRB     r2,[r1,#0x61]
        0x00004c5e:    f891c06a    ..j.    LDRB     r12,[r1,#0x6a]
        0x00004c62:    f891703c    ..<p    LDRB     r7,[r1,#0x3c]
        0x00004c66:    f8913069    ..i0    LDRB     r3,[r1,#0x69]
        0x00004c6a:    e888108c    ....    STM      r8,{r2,r3,r7,r12}
        0x00004c6e:    f5017296    ...r    ADD      r2,r1,#0x12c
        0x00004c72:    f10d0850    ..P.    ADD      r8,sp,#0x50
        0x00004c76:    f992c003    ....    LDRSB    r12,[r2,#3]
        0x00004c7a:    f9927002    ...p    LDRSB    r7,[r2,#2]
        0x00004c7e:    f9923001    ...0    LDRSB    r3,[r2,#1]
        0x00004c82:    f9922000    ...     LDRSB    r2,[r2,#0]
        0x00004c86:    e888108c    ....    STM      r8,{r2,r3,r7,r12}
        0x00004c8a:    f8917065    ..ep    LDRB     r7,[r1,#0x65]
        0x00004c8e:    7b43        C{      LDRB     r3,[r0,#0xd]
        0x00004c90:    7b02        .{      LDRB     r2,[r0,#0xc]
        0x00004c92:    f8911064    ..d.    LDRB     r1,[r1,#0x64]
        0x00004c96:    e9cd1710    ....    STRD     r1,r7,[sp,#0x40]
        0x00004c9a:    494f        OI      LDR      r1,[pc,#316] ; [0x4dd8] = 0x20000fe8
        0x00004c9c:    e9cd2312    ...#    STRD     r2,r3,[sp,#0x48]
        0x00004ca0:    7ac2        .z      LDRB     r2,[r0,#0xb]
        0x00004ca2:    f10d0830    ..0.    ADD      r8,sp,#0x30
        0x00004ca6:    f891c008    ....    LDRB     r12,[r1,#8]
        0x00004caa:    79cf        .y      LDRB     r7,[r1,#7]
        0x00004cac:    798b        .y      LDRB     r3,[r1,#6]
        0x00004cae:    e888108c    ....    STM      r8,{r2,r3,r7,r12}
        0x00004cb2:    4b48        HK      LDR      r3,[pc,#288] ; [0x4dd4] = 0x20000078
        0x00004cb4:    7a82        .z      LDRB     r2,[r0,#0xa]
        0x00004cb6:    3380        .3      ADDS     r3,r3,#0x80
        0x00004cb8:    f10d0820    .. .    ADD      r8,sp,#0x20
        0x00004cbc:    6b5f        _k      LDR      r7,[r3,#0x34]
        0x00004cbe:    6ecb        .n      LDR      r3,[r1,#0x6c]
        0x00004cc0:    f89110d3    ....    LDRB     r1,[r1,#0xd3]
        0x00004cc4:    920b        ..      STR      r2,[sp,#0x2c]
        0x00004cc6:    e888008a    ....    STM      r8,{r1,r3,r7}
        0x00004cca:    7981        .y      LDRB     r1,[r0,#6]
        0x00004ccc:    f10d0810    ....    ADD      r8,sp,#0x10
        0x00004cd0:    7a47        Gz      LDRB     r7,[r0,#9]
        0x00004cd2:    7a03        .z      LDRB     r3,[r0,#8]
        0x00004cd4:    79c2        .y      LDRB     r2,[r0,#7]
        0x00004cd6:    e888008e    ....    STM      r8,{r1-r3,r7}
        0x00004cda:    7881        .x      LDRB     r1,[r0,#2]
        0x00004cdc:    7947        Gy      LDRB     r7,[r0,#5]
        0x00004cde:    7903        .y      LDRB     r3,[r0,#4]
        0x00004ce0:    78c2        .x      LDRB     r2,[r0,#3]
        0x00004ce2:    e88d008e    ....    STM      sp,{r1-r3,r7}
        0x00004ce6:    7843        Cx      LDRB     r3,[r0,#1]
        0x00004ce8:    7802        .x      LDRB     r2,[r0,#0]
        0x00004cea:    493c        <I      LDR      r1,[pc,#240] ; [0x4ddc] = 0x6e2c
        0x00004cec:    a820         .      ADD      r0,sp,#0x80
        0x00004cee:    f000fb45    ..E.    BL       __0sprintf ; 0x537c
        0x00004cf2:    a820         .      ADD      r0,sp,#0x80
        0x00004cf4:    f7fbfb19    ....    BL       strlen ; 0x32a
        0x00004cf8:    4602        .F      MOV      r2,r0
        0x00004cfa:    a920         .      ADD      r1,sp,#0x80
        0x00004cfc:    a038        8.      ADR      r0,{pc}+0xe4 ; 0x4de0
        0x00004cfe:    f7fcfc4b    ..K.    BL       Debug ; 0x1598
        0x00004d02:    2000        .       MOVS     r0,#0
        0x00004d04:    4601        .F      MOV      r1,r0
        0x00004d06:    aa20         .      ADD      r2,sp,#0x80
        0x00004d08:    f50d678d    ...g    ADD      r7,sp,#0x468
        0x00004d0c:    eb020c00    ....    ADD      r12,r2,r0
        0x00004d10:    eb070381    ....    ADD      r3,r7,r1,LSL #2
        0x00004d14:    1d00        ..      ADDS     r0,r0,#4
        0x00004d16:    1c49        I.      ADDS     r1,r1,#1
        0x00004d18:    f8dcc000    ....    LDR      r12,[r12,#0]
        0x00004d1c:    b280        ..      UXTH     r0,r0
        0x00004d1e:    f8c3c000    ....    STR      r12,[r3,#0]
        0x00004d22:    b289        ..      UXTH     r1,r1
        0x00004d24:    42a8        .B      CMP      r0,r5
        0x00004d26:    d3f1        ..      BCC      0x4d0c ; WriteSettingsFile + 300
        0x00004d28:    46b0        .F      MOV      r8,r6
        0x00004d2a:    4635        5F      MOV      r5,r6
        0x00004d2c:    f44f367a    O.z6    MOV      r6,#0x3e800
        0x00004d30:    f8571024    W.$.    LDR      r1,[r7,r4,LSL #2]
        0x00004d34:    4628        (F      MOV      r0,r5
        0x00004d36:    f7fcfd3b    ..;.    BL       FMC_Write ; 0x17b0
        0x00004d3a:    b140        @.      CBZ      r0,0x4d4e ; WriteSettingsFile + 366
        0x00004d3c:    4629        )F      MOV      r1,r5
        0x00004d3e:    a02f        /.      ADR      r0,{pc}+0xbe ; 0x4dfc
        0x00004d40:    f7fcfc2a    ..*.    BL       Debug ; 0x1598
        0x00004d44:    4648        HF      MOV      r0,r9
        0x00004d46:    f20d6dc4    ...m    ADD      sp,sp,#0x6c4
        0x00004d4a:    e8bd83f0    ....    POP      {r4-r9,pc}
        0x00004d4e:    1c64        d.      ADDS     r4,r4,#1
        0x00004d50:    1d2d        -.      ADDS     r5,r5,#4
        0x00004d52:    b2a4        ..      UXTH     r4,r4
        0x00004d54:    42b5        .B      CMP      r5,r6
        0x00004d56:    d3eb        ..      BCC      0x4d30 ; WriteSettingsFile + 336
        0x00004d58:    f44f72c8    O..r    MOV      r2,#0x190
        0x00004d5c:    4641        AF      MOV      r1,r8
        0x00004d5e:    a89d        ..      ADD      r0,sp,#0x274
        0x00004d60:    f7fbfaa1    ....    BL       __aeabi_memcpy ; 0x2a6
        0x00004d64:    a99d        ..      ADD      r1,sp,#0x274
        0x00004d66:    a02d        -.      ADR      r0,{pc}+0xb6 ; 0x4e1c
        0x00004d68:    f7fcfc16    ....    BL       Debug ; 0x1598
        0x00004d6c:    f7fcfc6a    ..j.    BL       FMC_Close ; 0x1644
        0x00004d70:    f04f4180    O..A    MOV      r1,#0x40000000
        0x00004d74:    2000        .       MOVS     r0,#0
        0x00004d76:    f8c10100    ....    STR      r0,[r1,#0x100]
        0x00004d7a:    e7e4        ..      B        0x4d46 ; WriteSettingsFile + 358
    $d
        0x00004d7c:    6c696146    Fail    DCD    1818845510
        0x00004d80:    74206465    ed t    DCD    1948279909
        0x00004d84:    6573206f    o se    DCD    1702043759
        0x00004d88:    61442074    t Da    DCD    1631854708
        0x00004d8c:    46206174    ta F    DCD    1176527220
        0x00004d90:    6873616c    lash    DCD    1752392044
        0x00004d94:    73616220     bas    DCD    1935761952
        0x00004d98:    64612065    e ad    DCD    1684086885
        0x00004d9c:    73657264    dres    DCD    1936028260
        0x00004da0:    000a2173    s!..    DCD    663923
        0x00004da4:    5f434d46    FMC_    DCD    1598246214
        0x00004da8:    73617245    Eras    DCD    1935766085
        0x00004dac:    45532065    e SE    DCD    1163075685
        0x00004db0:    4e495454    TTIN    DCD    1313428564
        0x00004db4:    465f5347    GS_F    DCD    1180652359
        0x00004db8:    5f454c49    ILE_    DCD    1598377033
        0x00004dbc:    45534142    BASE    DCD    1163084098
        0x00004dc0:    4441535f    _SAD    DCD    1145131871
        0x00004dc4:    66205244    DR f    DCD    1713394244
        0x00004dc8:    656c6961    aile    DCD    1701603681
        0x00004dcc:    000a2164    d!..    DCD    663908
        0x00004dd0:    20001140    @..     DCD    536875328
        0x00004dd4:    20000078    x..     DCD    536871032
        0x00004dd8:    20000fe8    ...     DCD    536874984
        0x00004ddc:    00006e2c    ,n..    DCD    28204
        0x00004de0:    7465730a    .set    DCD    1952805642
        0x00004de4:    676e6974    ting    DCD    1735289204
        0x00004de8:    75625f73    s_bu    DCD    1969381235
        0x00004dec:    73253a66    f:%s    DCD    1931819622
        0x00004df0:    6e656c2d    -len    DCD    1852140589
        0x00004df4:    0a64253a    :%d.    DCD    174335290
        0x00004df8:    00000000    ....    DCD    0
        0x00004dfc:    5f434d46    FMC_    DCD    1598246214
        0x00004e00:    74697257    Writ    DCD    1953067607
        0x00004e04:    64612065    e ad    DCD    1684086885
        0x00004e08:    73657264    dres    DCD    1936028260
        0x00004e0c:    78302073    s 0x    DCD    2016419955
        0x00004e10:    66207825    %x f    DCD    1713403941
        0x00004e14:    656c6961    aile    DCD    1701603681
        0x00004e18:    000a2164    d!..    DCD    663908
        0x00004e1c:    7465530a    .Set    DCD    1952797450
        0x00004e20:    676e6974    ting    DCD    1735289204
        0x00004e24:    69662073    s fi    DCD    1768300659
        0x00004e28:    6420656c    le d    DCD    1679844716
        0x00004e2c:    20617461    ata     DCD    543257697
        0x00004e30:    65746661    afte    DCD    1702127201
        0x00004e34:    6c662072    r fl    DCD    1818632306
        0x00004e38:    20687361    ash     DCD    543716193
        0x00004e3c:    74697277    writ    DCD    1953067639
        0x00004e40:    73253a65    e:%s    DCD    1931819621
        0x00004e44:    0000000a    ....    DCD    10
    $t
    i.WriteTimerSettings
    WriteTimerSettings
        0x00004e48:    e92d47f0    -..G    PUSH     {r4-r10,lr}
        0x00004e4c:    ed2d8b02    -...    VPUSH    {d8}
        0x00004e50:    f5ad6d0b    ...m    SUB      sp,sp,#0x8b0
        0x00004e54:    f44f7616    O..v    MOV      r6,#0x258
        0x00004e58:    4631        1F      MOV      r1,r6
        0x00004e5a:    a838        8.      ADD      r0,sp,#0xe0
        0x00004e5c:    f7fbfa3c    ..<.    BL       __aeabi_memclr ; 0x2d8
        0x00004e60:    4631        1F      MOV      r1,r6
        0x00004e62:    a8ce        ..      ADD      r0,sp,#0x338
        0x00004e64:    f7fbfa38    ..8.    BL       __aeabi_memclr ; 0x2d8
        0x00004e68:    2500        .%      MOVS     r5,#0
        0x00004e6a:    f7fffc29    ..).    BL       SYS_UnlockReg ; 0x46c0
        0x00004e6e:    f7fcfc57    ..W.    BL       FMC_Open ; 0x1720
        0x00004e72:    f44f377c    O.|7    MOV      r7,#0x3f000
        0x00004e76:    4638        8F      MOV      r0,r7
        0x00004e78:    f7fcfbec    ....    BL       FMC_Erase ; 0x1654
        0x00004e7c:    f04f3aff    O..:    MOV      r10,#0xffffffff
        0x00004e80:    b118        ..      CBZ      r0,0x4e8a ; WriteTimerSettings + 66
        0x00004e82:    a0fc        ..      ADR      r0,{pc}+0x3f2 ; 0x5274
        0x00004e84:    f7fcfb88    ....    BL       Debug ; 0x1598
        0x00004e88:    e21f        ..      B        0x52ca ; WriteTimerSettings + 1154
        0x00004e8a:    4631        1F      MOV      r1,r6
        0x00004e8c:    a838        8.      ADD      r0,sp,#0xe0
        0x00004e8e:    f7fbfa23    ..#.    BL       __aeabi_memclr ; 0x2d8
        0x00004e92:    f44f7148    O.Hq    MOV      r1,#0x320
        0x00004e96:    f50d60b2    ...`    ADD      r0,sp,#0x590
        0x00004e9a:    f7fbfa1d    ....    BL       __aeabi_memclr ; 0x2d8
        0x00004e9e:    4631        1F      MOV      r1,r6
        0x00004ea0:    a838        8.      ADD      r0,sp,#0xe0
        0x00004ea2:    f7fbfa19    ....    BL       __aeabi_memclr ; 0x2d8
        0x00004ea6:    4cfe        .L      LDR      r4,[pc,#1016] ; [0x52a0] = 0x20000fe8
        0x00004ea8:    ed940b28    ..(.    VLDR     d0,[r4,#0xa0]
        0x00004eac:    ed9f8bfd    ....    VLDR     d8,[pc,#1012] ; [0x52a4] = 0
        0x00004eb0:    ec510b10    Q...    VMOV     r0,r1,d0
        0x00004eb4:    ec532b18    S..+    VMOV     r2,r3,d8
        0x00004eb8:    3424        $4      ADDS     r4,r4,#0x24
        0x00004eba:    f7fbfbd2    ....    BL       __aeabi_dmul ; 0x662
        0x00004ebe:    f7fbfccf    ....    BL       __aeabi_d2uiz ; 0x860
        0x00004ec2:    f8a400a4    ....    STRH     r0,[r4,#0xa4]
        0x00004ec6:    ed940b21    ..!.    VLDR     d0,[r4,#0x84]
        0x00004eca:    ec532b18    S..+    VMOV     r2,r3,d8
        0x00004ece:    ec510b10    Q...    VMOV     r0,r1,d0
        0x00004ed2:    f7fbfbc6    ....    BL       __aeabi_dmul ; 0x662
        0x00004ed6:    f7fbfcc3    ....    BL       __aeabi_d2uiz ; 0x860
        0x00004eda:    f8a400a6    ....    STRH     r0,[r4,#0xa6]
        0x00004ede:    ed940b17    ....    VLDR     d0,[r4,#0x5c]
        0x00004ee2:    ec532b18    S..+    VMOV     r2,r3,d8
        0x00004ee6:    ec510b10    Q...    VMOV     r0,r1,d0
        0x00004eea:    f7fbfbba    ....    BL       __aeabi_dmul ; 0x662
        0x00004eee:    f7fbfcb7    ....    BL       __aeabi_d2uiz ; 0x860
        0x00004ef2:    f8a4009c    ....    STRH     r0,[r4,#0x9c]
        0x00004ef6:    ed940b19    ....    VLDR     d0,[r4,#0x64]
        0x00004efa:    ec532b18    S..+    VMOV     r2,r3,d8
        0x00004efe:    ec510b10    Q...    VMOV     r0,r1,d0
        0x00004f02:    f7fbfbae    ....    BL       __aeabi_dmul ; 0x662
        0x00004f06:    f7fbfcab    ....    BL       __aeabi_d2uiz ; 0x860
        0x00004f0a:    f8a4009e    ....    STRH     r0,[r4,#0x9e]
        0x00004f0e:    ed940b2f    ../.    VLDR     d0,[r4,#0xbc]
        0x00004f12:    ed9f8be6    ....    VLDR     d8,[pc,#920] ; [0x52ac] = 0
        0x00004f16:    ec510b10    Q...    VMOV     r0,r1,d0
        0x00004f1a:    ec532b18    S..+    VMOV     r2,r3,d8
        0x00004f1e:    f7fbfba0    ....    BL       __aeabi_dmul ; 0x662
        0x00004f22:    f7fbfc9d    ....    BL       __aeabi_d2uiz ; 0x860
        0x00004f26:    f8a400ec    ....    STRH     r0,[r4,#0xec]
        0x00004f2a:    ed940b31    ..1.    VLDR     d0,[r4,#0xc4]
        0x00004f2e:    ec532b18    S..+    VMOV     r2,r3,d8
        0x00004f32:    ec510b10    Q...    VMOV     r0,r1,d0
        0x00004f36:    f7fbfb94    ....    BL       __aeabi_dmul ; 0x662
        0x00004f3a:    f7fbfc91    ....    BL       __aeabi_d2uiz ; 0x860
        0x00004f3e:    f8a400ee    ....    STRH     r0,[r4,#0xee]
        0x00004f42:    ed940b33    ..3.    VLDR     d0,[r4,#0xcc]
        0x00004f46:    ec532b18    S..+    VMOV     r2,r3,d8
        0x00004f4a:    ec510b10    Q...    VMOV     r0,r1,d0
        0x00004f4e:    f7fbfb88    ....    BL       __aeabi_dmul ; 0x662
        0x00004f52:    f7fbfc85    ....    BL       __aeabi_d2uiz ; 0x860
        0x00004f56:    f8a400f0    ....    STRH     r0,[r4,#0xf0]
        0x00004f5a:    ed940b35    ..5.    VLDR     d0,[r4,#0xd4]
        0x00004f5e:    ec532b18    S..+    VMOV     r2,r3,d8
        0x00004f62:    ec510b10    Q...    VMOV     r0,r1,d0
        0x00004f66:    f7fbfb7c    ..|.    BL       __aeabi_dmul ; 0x662
        0x00004f6a:    f7fbfc79    ..y.    BL       __aeabi_d2uiz ; 0x860
        0x00004f6e:    f8a400f2    ....    STRH     r0,[r4,#0xf2]
        0x00004f72:    ed940b37    ..7.    VLDR     d0,[r4,#0xdc]
        0x00004f76:    ec532b18    S..+    VMOV     r2,r3,d8
        0x00004f7a:    ec510b10    Q...    VMOV     r0,r1,d0
        0x00004f7e:    f7fbfb70    ..p.    BL       __aeabi_dmul ; 0x662
        0x00004f82:    f7fbfc6d    ..m.    BL       __aeabi_d2uiz ; 0x860
        0x00004f86:    f8a400f4    ....    STRH     r0,[r4,#0xf4]
        0x00004f8a:    ed940b39    ..9.    VLDR     d0,[r4,#0xe4]
        0x00004f8e:    ec532b18    S..+    VMOV     r2,r3,d8
        0x00004f92:    ec510b10    Q...    VMOV     r0,r1,d0
        0x00004f96:    f7fbfb64    ..d.    BL       __aeabi_dmul ; 0x662
        0x00004f9a:    f7fbfc61    ..a.    BL       __aeabi_d2uiz ; 0x860
        0x00004f9e:    f8a400f6    ....    STRH     r0,[r4,#0xf6]
        0x00004fa2:    ed940b43    ..C.    VLDR     d0,[r4,#0x10c]
        0x00004fa6:    ec532b18    S..+    VMOV     r2,r3,d8
        0x00004faa:    ec510b10    Q...    VMOV     r0,r1,d0
        0x00004fae:    f7fbfb58    ..X.    BL       __aeabi_dmul ; 0x662
        0x00004fb2:    f7fbfc55    ..U.    BL       __aeabi_d2uiz ; 0x860
        0x00004fb6:    f8a4012c    ..,.    STRH     r0,[r4,#0x12c]
        0x00004fba:    ed940b45    ..E.    VLDR     d0,[r4,#0x114]
        0x00004fbe:    ec532b18    S..+    VMOV     r2,r3,d8
        0x00004fc2:    ec510b10    Q...    VMOV     r0,r1,d0
        0x00004fc6:    f7fbfb4c    ..L.    BL       __aeabi_dmul ; 0x662
        0x00004fca:    f7fbfc49    ..I.    BL       __aeabi_d2uiz ; 0x860
        0x00004fce:    f8a4012e    ....    STRH     r0,[r4,#0x12e]
        0x00004fd2:    ed940b47    ..G.    VLDR     d0,[r4,#0x11c]
        0x00004fd6:    ec532b18    S..+    VMOV     r2,r3,d8
        0x00004fda:    ec510b10    Q...    VMOV     r0,r1,d0
        0x00004fde:    f7fbfb40    ..@.    BL       __aeabi_dmul ; 0x662
        0x00004fe2:    f7fbfc3d    ..=.    BL       __aeabi_d2uiz ; 0x860
        0x00004fe6:    f8a40130    ..0.    STRH     r0,[r4,#0x130]
        0x00004fea:    ed940b49    ..I.    VLDR     d0,[r4,#0x124]
        0x00004fee:    ec532b18    S..+    VMOV     r2,r3,d8
        0x00004ff2:    ec510b10    Q...    VMOV     r0,r1,d0
        0x00004ff6:    f7fbfb34    ..4.    BL       __aeabi_dmul ; 0x662
        0x00004ffa:    f7fbfc31    ..1.    BL       __aeabi_d2uiz ; 0x860
        0x00004ffe:    f8a40132    ..2.    STRH     r0,[r4,#0x132]
        0x00005002:    7b60        `{      LDRB     r0,[r4,#0xd]
        0x00005004:    f10d08b0    ....    ADD      r8,sp,#0xb0
        0x00005008:    7f23        #.      LDRB     r3,[r4,#0x1c]
        0x0000500a:    7de2        .}      LDRB     r2,[r4,#0x17]
        0x0000500c:    7ca1        .|      LDRB     r1,[r4,#0x12]
        0x0000500e:    e888000f    ....    STM      r8,{r0-r3}
        0x00005012:    7da0        .}      LDRB     r0,[r4,#0x16]
        0x00005014:    f10d08a0    ....    ADD      r8,sp,#0xa0
        0x00005018:    7a23        #z      LDRB     r3,[r4,#8]
        0x0000501a:    78e2        .x      LDRB     r2,[r4,#3]
        0x0000501c:    7ee1        .~      LDRB     r1,[r4,#0x1b]
        0x0000501e:    e888000f    ....    STM      r8,{r0-r3}
        0x00005022:    78a0        .x      LDRB     r0,[r4,#2]
        0x00005024:    f10d0890    ....    ADD      r8,sp,#0x90
        0x00005028:    7c63        c|      LDRB     r3,[r4,#0x11]
        0x0000502a:    7b22        "{      LDRB     r2,[r4,#0xc]
        0x0000502c:    79e1        .y      LDRB     r1,[r4,#7]
        0x0000502e:    e888000f    ....    STM      r8,{r0-r3}
        0x00005032:    7ae0        .z      LDRB     r0,[r4,#0xb]
        0x00005034:    f10d0880    ....    ADD      r8,sp,#0x80
        0x00005038:    7ea3        .~      LDRB     r3,[r4,#0x1a]
        0x0000503a:    7d62        b}      LDRB     r2,[r4,#0x15]
        0x0000503c:    7c21        !|      LDRB     r1,[r4,#0x10]
        0x0000503e:    e888000f    ....    STM      r8,{r0-r3}
        0x00005042:    7d20         }      LDRB     r0,[r4,#0x14]
        0x00005044:    f10d0870    ..p.    ADD      r8,sp,#0x70
        0x00005048:    79a3        .y      LDRB     r3,[r4,#6]
        0x0000504a:    7862        bx      LDRB     r2,[r4,#1]
        0x0000504c:    7e61        a~      LDRB     r1,[r4,#0x19]
        0x0000504e:    e888000f    ....    STM      r8,{r0-r3}
        0x00005052:    7820         x      LDRB     r0,[r4,#0]
        0x00005054:    f10d0860    ..`.    ADD      r8,sp,#0x60
        0x00005058:    7be3        .{      LDRB     r3,[r4,#0xf]
        0x0000505a:    7aa2        .z      LDRB     r2,[r4,#0xa]
        0x0000505c:    7961        ay      LDRB     r1,[r4,#5]
        0x0000505e:    e888000f    ....    STM      r8,{r0-r3}
        0x00005062:    f8140c07    ....    LDRB     r0,[r4,#-7]
        0x00005066:    f10d0850    ..P.    ADD      r8,sp,#0x50
        0x0000506a:    f8143c02    ...<    LDRB     r3,[r4,#-2]
        0x0000506e:    f8142c05    ...,    LDRB     r2,[r4,#-5]
        0x00005072:    f8141c06    ....    LDRB     r1,[r4,#-6]
        0x00005076:    e888000f    ....    STM      r8,{r0-r3}
        0x0000507a:    f8140c0d    ....    LDRB     r0,[r4,#-0xd]
        0x0000507e:    f10d0840    ..@.    ADD      r8,sp,#0x40
        0x00005082:    f8143c0a    ...<    LDRB     r3,[r4,#-0xa]
        0x00005086:    f8142c0b    ...,    LDRB     r2,[r4,#-0xb]
        0x0000508a:    f8141c0c    ....    LDRB     r1,[r4,#-0xc]
        0x0000508e:    e888000f    ....    STM      r8,{r0-r3}
        0x00005092:    f8140c11    ....    LDRB     r0,[r4,#-0x11]
        0x00005096:    f10d0830    ..0.    ADD      r8,sp,#0x30
        0x0000509a:    f8143c0e    ...<    LDRB     r3,[r4,#-0xe]
        0x0000509e:    f8142c0f    ...,    LDRB     r2,[r4,#-0xf]
        0x000050a2:    f8141c10    ....    LDRB     r1,[r4,#-0x10]
        0x000050a6:    e888000f    ....    STM      r8,{r0-r3}
        0x000050aa:    f8140c15    ....    LDRB     r0,[r4,#-0x15]
        0x000050ae:    f10d0820    .. .    ADD      r8,sp,#0x20
        0x000050b2:    f8143c12    ...<    LDRB     r3,[r4,#-0x12]
        0x000050b6:    f8142c13    ...,    LDRB     r2,[r4,#-0x13]
        0x000050ba:    f8141c14    ....    LDRB     r1,[r4,#-0x14]
        0x000050be:    e888000f    ....    STM      r8,{r0-r3}
        0x000050c2:    f8140c1b    ....    LDRB     r0,[r4,#-0x1b]
        0x000050c6:    f10d0810    ....    ADD      r8,sp,#0x10
        0x000050ca:    f8143c16    ...<    LDRB     r3,[r4,#-0x16]
        0x000050ce:    f8142c17    ...,    LDRB     r2,[r4,#-0x17]
        0x000050d2:    f8141c18    ....    LDRB     r1,[r4,#-0x18]
        0x000050d6:    e888000f    ....    STM      r8,{r0-r3}
        0x000050da:    f8140c22    ..".    LDRB     r0,[r4,#-0x22]
        0x000050de:    f8143c1f    ...<    LDRB     r3,[r4,#-0x1f]
        0x000050e2:    f8142c20    .. ,    LDRB     r2,[r4,#-0x20]
        0x000050e6:    f8141c21    ..!.    LDRB     r1,[r4,#-0x21]
        0x000050ea:    e88d000f    ....    STM      sp,{r0-r3}
        0x000050ee:    f8143c23    ..#<    LDRB     r3,[r4,#-0x23]
        0x000050f2:    f8142c24    ..$,    LDRB     r2,[r4,#-0x24]
        0x000050f6:    496f        oI      LDR      r1,[pc,#444] ; [0x52b4] = 0x6ea4
        0x000050f8:    a838        8.      ADD      r0,sp,#0xe0
        0x000050fa:    f000f93f    ..?.    BL       __0sprintf ; 0x537c
        0x000050fe:    f8940022    ..".    LDRB     r0,[r4,#0x22]
        0x00005102:    f10d08d0    ....    ADD      r8,sp,#0xd0
        0x00005106:    f89430ae    ...0    LDRB     r3,[r4,#0xae]
        0x0000510a:    f8942024    ..$     LDRB     r2,[r4,#0x24]
        0x0000510e:    f8941023    ..#.    LDRB     r1,[r4,#0x23]
        0x00005112:    e888000f    ....    STM      r8,{r0-r3}
        0x00005116:    f8b4012e    ....    LDRH     r0,[r4,#0x12e]
        0x0000511a:    f10d08c0    ....    ADD      r8,sp,#0xc0
        0x0000511e:    f8943021    ..!0    LDRB     r3,[r4,#0x21]
        0x00005122:    f8b42132    ..2!    LDRH     r2,[r4,#0x132]
        0x00005126:    f8b41130    ..0.    LDRH     r1,[r4,#0x130]
        0x0000512a:    e888000f    ....    STM      r8,{r0-r3}
        0x0000512e:    e9d41240    ..@.    LDRD     r1,r2,[r4,#0x100]
        0x00005132:    f89400fc    ....    LDRB     r0,[r4,#0xfc]
        0x00005136:    f10d08b0    ....    ADD      r8,sp,#0xb0
        0x0000513a:    f8b4312c    ..,1    LDRH     r3,[r4,#0x12c]
        0x0000513e:    e888000f    ....    STM      r8,{r0-r3}
        0x00005142:    f89400f8    ....    LDRB     r0,[r4,#0xf8]
        0x00005146:    f10d08a0    ....    ADD      r8,sp,#0xa0
        0x0000514a:    f89430fb    ...0    LDRB     r3,[r4,#0xfb]
        0x0000514e:    f89420fa    ...     LDRB     r2,[r4,#0xfa]
        0x00005152:    f89410f9    ....    LDRB     r1,[r4,#0xf9]
        0x00005156:    e888000f    ....    STM      r8,{r0-r3}
        0x0000515a:    f8b400f0    ....    LDRH     r0,[r4,#0xf0]
        0x0000515e:    f10d0890    ....    ADD      r8,sp,#0x90
        0x00005162:    f8b430f6    ...0    LDRH     r3,[r4,#0xf6]
        0x00005166:    f8b420f4    ...     LDRH     r2,[r4,#0xf4]
        0x0000516a:    f8b410f2    ....    LDRH     r1,[r4,#0xf2]
        0x0000516e:    e888000f    ....    STM      r8,{r0-r3}
        0x00005172:    f8b430ee    ...0    LDRH     r3,[r4,#0xee]
        0x00005176:    f8b420ec    ...     LDRH     r2,[r4,#0xec]
        0x0000517a:    e9d4010f    ....    LDRD     r0,r1,[r4,#0x3c]
        0x0000517e:    f10d0880    ....    ADD      r8,sp,#0x80
        0x00005182:    e888000f    ....    STM      r8,{r0-r3}
        0x00005186:    f89400b4    ....    LDRB     r0,[r4,#0xb4]
        0x0000518a:    f10d0870    ..p.    ADD      r8,sp,#0x70
        0x0000518e:    f89430b7    ...0    LDRB     r3,[r4,#0xb7]
        0x00005192:    f89420b6    ...     LDRB     r2,[r4,#0xb6]
        0x00005196:    f89410b5    ....    LDRB     r1,[r4,#0xb5]
        0x0000519a:    e888000f    ....    STM      r8,{r0-r3}
        0x0000519e:    f89400b0    ....    LDRB     r0,[r4,#0xb0]
        0x000051a2:    f10d0860    ..`.    ADD      r8,sp,#0x60
        0x000051a6:    f89430b3    ...0    LDRB     r3,[r4,#0xb3]
        0x000051aa:    f89420b2    ...     LDRB     r2,[r4,#0xb2]
        0x000051ae:    f89410b1    ....    LDRB     r1,[r4,#0xb1]
        0x000051b2:    e888000f    ....    STM      r8,{r0-r3}
        0x000051b6:    f8b4009e    ....    LDRH     r0,[r4,#0x9e]
        0x000051ba:    f10d0850    ..P.    ADD      r8,sp,#0x50
        0x000051be:    f89430ad    ...0    LDRB     r3,[r4,#0xad]
        0x000051c2:    f89420ac    ...     LDRB     r2,[r4,#0xac]
        0x000051c6:    f89410ab    ....    LDRB     r1,[r4,#0xab]
        0x000051ca:    e888000f    ....    STM      r8,{r0-r3}
        0x000051ce:    f89400a8    ....    LDRB     r0,[r4,#0xa8]
        0x000051d2:    f10d0840    ..@.    ADD      r8,sp,#0x40
        0x000051d6:    f8b4309c    ...0    LDRH     r3,[r4,#0x9c]
        0x000051da:    f89420aa    ...     LDRB     r2,[r4,#0xaa]
        0x000051de:    f89410a9    ....    LDRB     r1,[r4,#0xa9]
        0x000051e2:    e888000f    ....    STM      r8,{r0-r3}
        0x000051e6:    f8940052    ..R.    LDRB     r0,[r4,#0x52]
        0x000051ea:    f10d0830    ..0.    ADD      r8,sp,#0x30
        0x000051ee:    f8b430a6    ...0    LDRH     r3,[r4,#0xa6]
        0x000051f2:    f8b420a4    ...     LDRH     r2,[r4,#0xa4]
        0x000051f6:    f8941053    ..S.    LDRB     r1,[r4,#0x53]
        0x000051fa:    e888000f    ....    STM      r8,{r0-r3}
        0x000051fe:    f10d0820    .. .    ADD      r8,sp,#0x20
        0x00005202:    6ba0        .k      LDR      r0,[r4,#0x38]
        0x00005204:    f8943051    ..Q0    LDRB     r3,[r4,#0x51]
        0x00005208:    f8942050    ..P     LDRB     r2,[r4,#0x50]
        0x0000520c:    6c61        al      LDR      r1,[r4,#0x44]
        0x0000520e:    e888000f    ....    STM      r8,{r0-r3}
        0x00005212:    f8942030    ..0     LDRB     r2,[r4,#0x30]
        0x00005216:    e9d4010a    ....    LDRD     r0,r1,[r4,#0x28]
        0x0000521a:    f10d0810    ....    ADD      r8,sp,#0x10
        0x0000521e:    6b63        ck      LDR      r3,[r4,#0x34]
        0x00005220:    e888000f    ....    STM      r8,{r0-r3}
        0x00005224:    7fa0        ..      LDRB     r0,[r4,#0x1e]
        0x00005226:    f8943025    ..%0    LDRB     r3,[r4,#0x25]
        0x0000522a:    f8942020    ..      LDRB     r2,[r4,#0x20]
        0x0000522e:    7fe1        ..      LDRB     r1,[r4,#0x1f]
        0x00005230:    e88d000f    ....    STM      sp,{r0-r3}
        0x00005234:    aa38        8.      ADD      r2,sp,#0xe0
        0x00005236:    7f63        c.      LDRB     r3,[r4,#0x1d]
        0x00005238:    491f        .I      LDR      r1,[pc,#124] ; [0x52b8] = 0x6fa4
        0x0000523a:    4610        .F      MOV      r0,r2
        0x0000523c:    f000f89e    ....    BL       __0sprintf ; 0x537c
        0x00005240:    2000        .       MOVS     r0,#0
        0x00005242:    4601        .F      MOV      r1,r0
        0x00005244:    aa38        8.      ADD      r2,sp,#0xe0
        0x00005246:    f50d64b2    ...d    ADD      r4,sp,#0x590
        0x0000524a:    eb020c00    ....    ADD      r12,r2,r0
        0x0000524e:    eb040381    ....    ADD      r3,r4,r1,LSL #2
        0x00005252:    1d00        ..      ADDS     r0,r0,#4
        0x00005254:    1c49        I.      ADDS     r1,r1,#1
        0x00005256:    f8dcc000    ....    LDR      r12,[r12,#0]
        0x0000525a:    b280        ..      UXTH     r0,r0
        0x0000525c:    f8c3c000    ....    STR      r12,[r3,#0]
        0x00005260:    b289        ..      UXTH     r1,r1
        0x00005262:    42b0        .B      CMP      r0,r6
        0x00005264:    d3f1        ..      BCC      0x524a ; WriteTimerSettings + 1026
        0x00005266:    46b9        .F      MOV      r9,r7
        0x00005268:    f44f387e    O.~8    MOV      r8,#0x3f800
        0x0000526c:    f8541025    T.%.    LDR      r1,[r4,r5,LSL #2]
        0x00005270:    4638        8F      MOV      r0,r7
        0x00005272:    e023        #.      B        0x52bc ; WriteTimerSettings + 1140
    $d
        0x00005274:    5f434d46    FMC_    DCD    1598246214
        0x00005278:    73617245    Eras    DCD    1935766085
        0x0000527c:    45532065    e SE    DCD    1163075685
        0x00005280:    4e495454    TTIN    DCD    1313428564
        0x00005284:    465f5347    GS_F    DCD    1180652359
        0x00005288:    5f454c49    ILE_    DCD    1598377033
        0x0000528c:    45534142    BASE    DCD    1163084098
        0x00005290:    4441535f    _SAD    DCD    1145131871
        0x00005294:    66205244    DR f    DCD    1713394244
        0x00005298:    656c6961    aile    DCD    1701603681
        0x0000529c:    000a2164    d!..    DCD    663908
        0x000052a0:    20000fe8    ...     DCD    536874984
        0x000052a4:    00000000    ....    DCD    0
        0x000052a8:    40240000    ..$@    DCD    1076101120
        0x000052ac:    00000000    ....    DCD    0
        0x000052b0:    40c38800    ...@    DCD    1086556160
        0x000052b4:    00006ea4    .n..    DCD    28324
        0x000052b8:    00006fa4    .o..    DCD    28580
    $t
        0x000052bc:    f7fcfa78    ..x.    BL       FMC_Write ; 0x17b0
        0x000052c0:    b150        P.      CBZ      r0,0x52d8 ; WriteTimerSettings + 1168
        0x000052c2:    4639        9F      MOV      r1,r7
        0x000052c4:    a012        ..      ADR      r0,{pc}+0x4c ; 0x5310
        0x000052c6:    f7fcf967    ..g.    BL       Debug ; 0x1598
        0x000052ca:    4650        PF      MOV      r0,r10
        0x000052cc:    f50d6d0b    ...m    ADD      sp,sp,#0x8b0
        0x000052d0:    ecbd8b02    ....    VPOP     {d8}
        0x000052d4:    e8bd87f0    ....    POP      {r4-r10,pc}
        0x000052d8:    1c6d        m.      ADDS     r5,r5,#1
        0x000052da:    1d3f        ?.      ADDS     r7,r7,#4
        0x000052dc:    b2ad        ..      UXTH     r5,r5
        0x000052de:    4547        GE      CMP      r7,r8
        0x000052e0:    d3c4        ..      BCC      0x526c ; WriteTimerSettings + 1060
        0x000052e2:    4632        2F      MOV      r2,r6
        0x000052e4:    4649        IF      MOV      r1,r9
        0x000052e6:    a8ce        ..      ADD      r0,sp,#0x338
        0x000052e8:    f7faffdd    ....    BL       __aeabi_memcpy ; 0x2a6
        0x000052ec:    a838        8.      ADD      r0,sp,#0xe0
        0x000052ee:    f7fbf81c    ....    BL       strlen ; 0x32a
        0x000052f2:    4602        .F      MOV      r2,r0
        0x000052f4:    a9ce        ..      ADD      r1,sp,#0x338
        0x000052f6:    a00e        ..      ADR      r0,{pc}+0x3a ; 0x5330
        0x000052f8:    f7fcf94e    ..N.    BL       Debug ; 0x1598
        0x000052fc:    f7fcf9a2    ....    BL       FMC_Close ; 0x1644
        0x00005300:    f04f4180    O..A    MOV      r1,#0x40000000
        0x00005304:    2000        .       MOVS     r0,#0
        0x00005306:    f8c10100    ....    STR      r0,[r1,#0x100]
        0x0000530a:    f50d6d0b    ...m    ADD      sp,sp,#0x8b0
        0x0000530e:    e7df        ..      B        0x52d0 ; WriteTimerSettings + 1160
    $d
        0x00005310:    5f434d46    FMC_    DCD    1598246214
        0x00005314:    74697257    Writ    DCD    1953067607
        0x00005318:    64612065    e ad    DCD    1684086885
        0x0000531c:    73657264    dres    DCD    1936028260
        0x00005320:    78302073    s 0x    DCD    2016419955
        0x00005324:    66207825    %x f    DCD    1713403941
        0x00005328:    656c6961    aile    DCD    1701603681
        0x0000532c:    000a2164    d!..    DCD    663908
        0x00005330:    6d69540a    .Tim    DCD    1835619338
        0x00005334:    65537265    erSe    DCD    1699967589
        0x00005338:    6e697474    ttin    DCD    1852404852
        0x0000533c:    61207367    gs a    DCD    1629516647
        0x00005340:    72657466    fter    DCD    1919251558
        0x00005344:    616c6620     fla    DCD    1634493984
        0x00005348:    72776873    shwr    DCD    1920428147
        0x0000534c:    3a657469    ite:    DCD    979727465
        0x00005350:    6c3d7325    %s=l    DCD    1815966501
        0x00005354:    253a6e65    en:%    DCD    624586341
        0x00005358:    00000a64    d...    DCD    2660
    $t
    i.__0printf
    __0printf
    __1printf
    __2printf
    __c89printf
    printf
        0x0000535c:    b40f        ..      PUSH     {r0-r3}
        0x0000535e:    4b05        .K      LDR      r3,[pc,#20] ; [0x5374] = 0x5ea9
        0x00005360:    b510        ..      PUSH     {r4,lr}
        0x00005362:    a903        ..      ADD      r1,sp,#0xc
        0x00005364:    4a04        .J      LDR      r2,[pc,#16] ; [0x5378] = 0x20000ed4
        0x00005366:    9802        ..      LDR      r0,[sp,#8]
        0x00005368:    f000f904    ....    BL       _printf_core ; 0x5574
        0x0000536c:    bc10        ..      POP      {r4}
        0x0000536e:    f85dfb14    ]...    LDR      pc,[sp],#0x14
    $d
        0x00005372:    0000        ..      DCW    0
        0x00005374:    00005ea9    .^..    DCD    24233
        0x00005378:    20000ed4    ...     DCD    536874708
    $t
    i.__0sprintf
    __0sprintf
    __1sprintf
    __2sprintf
    __c89sprintf
    sprintf
        0x0000537c:    b40f        ..      PUSH     {r0-r3}
        0x0000537e:    4b08        .K      LDR      r3,[pc,#32] ; [0x53a0] = 0x5cb9
        0x00005380:    b510        ..      PUSH     {r4,lr}
        0x00005382:    a904        ..      ADD      r1,sp,#0x10
        0x00005384:    aa02        ..      ADD      r2,sp,#8
        0x00005386:    9803        ..      LDR      r0,[sp,#0xc]
        0x00005388:    f000f8f4    ....    BL       _printf_core ; 0x5574
        0x0000538c:    4604        .F      MOV      r4,r0
        0x0000538e:    a902        ..      ADD      r1,sp,#8
        0x00005390:    2000        .       MOVS     r0,#0
        0x00005392:    f000fc91    ....    BL       _sputc ; 0x5cb8
        0x00005396:    4620         F      MOV      r0,r4
        0x00005398:    bc10        ..      POP      {r4}
        0x0000539a:    f85dfb14    ]...    LDR      pc,[sp],#0x14
    $d
        0x0000539e:    0000        ..      DCW    0
        0x000053a0:    00005cb9    .\..    DCD    23737
    $t
    i.__0vsnprintf
    __0vsnprintf
    __1vsnprintf
    __2vsnprintf
    __c89vsnprintf
    vsnprintf
        0x000053a4:    b57c        |.      PUSH     {r2-r6,lr}
        0x000053a6:    4604        .F      MOV      r4,r0
        0x000053a8:    2000        .       MOVS     r0,#0
        0x000053aa:    461d        .F      MOV      r5,r3
        0x000053ac:    4616        .F      MOV      r6,r2
        0x000053ae:    2900        .)      CMP      r1,#0
        0x000053b0:    d00b        ..      BEQ      0x53ca ; __0vsnprintf + 38
        0x000053b2:    1e49        I.      SUBS     r1,r1,#1
        0x000053b4:    e9cd4100    ...A    STRD     r4,r1,[sp,#0]
        0x000053b8:    4b04        .K      LDR      r3,[pc,#16] ; [0x53cc] = 0x5ca3
        0x000053ba:    466a        jF      MOV      r2,sp
        0x000053bc:    4629        )F      MOV      r1,r5
        0x000053be:    4630        0F      MOV      r0,r6
        0x000053c0:    f000f8d8    ....    BL       _printf_core ; 0x5574
        0x000053c4:    9a00        ..      LDR      r2,[sp,#0]
        0x000053c6:    2100        .!      MOVS     r1,#0
        0x000053c8:    7011        .p      STRB     r1,[r2,#0]
        0x000053ca:    bd7c        |.      POP      {r2-r6,pc}
    $d
        0x000053cc:    00005ca3    .\..    DCD    23715
    $t
    i.__scatterload_copy
    __scatterload_copy
        0x000053d0:    e002        ..      B        0x53d8 ; __scatterload_copy + 8
        0x000053d2:    c808        ..      LDM      r0!,{r3}
        0x000053d4:    1f12        ..      SUBS     r2,r2,#4
        0x000053d6:    c108        ..      STM      r1!,{r3}
        0x000053d8:    2a00        .*      CMP      r2,#0
        0x000053da:    d1fa        ..      BNE      0x53d2 ; __scatterload_copy + 2
        0x000053dc:    4770        pG      BX       lr
    i.__scatterload_null
    __scatterload_null
        0x000053de:    4770        pG      BX       lr
    i.__scatterload_zeroinit
    __scatterload_zeroinit
        0x000053e0:    2000        .       MOVS     r0,#0
        0x000053e2:    e001        ..      B        0x53e8 ; __scatterload_zeroinit + 8
        0x000053e4:    c101        ..      STM      r1!,{r0}
        0x000053e6:    1f12        ..      SUBS     r2,r2,#4
        0x000053e8:    2a00        .*      CMP      r2,#0
        0x000053ea:    d1fb        ..      BNE      0x53e4 ; __scatterload_zeroinit + 4
        0x000053ec:    4770        pG      BX       lr
        0x000053ee:    0000        ..      MOVS     r0,r0
    i._fp_digits
    _fp_digits
        0x000053f0:    e92d5fff    -.._    PUSH     {r0-r12,lr}
        0x000053f4:    b082        ..      SUB      sp,sp,#8
        0x000053f6:    2100        .!      MOVS     r1,#0
        0x000053f8:    e9dd3004    ...0    LDRD     r3,r0,[sp,#0x10]
        0x000053fc:    0d02        ..      LSRS     r2,r0,#20
        0x000053fe:    f8ddb040    ..@.    LDR      r11,[sp,#0x40]
        0x00005402:    4303        .C      ORRS     r3,r3,r0
        0x00005404:    d018        ..      BEQ      0x5438 ; _fp_digits + 72
        0x00005406:    f6445010    D..P    MOV      r0,#0x4d10
        0x0000540a:    f2a232ff    ...2    SUB      r2,r2,#0x3ff
        0x0000540e:    4342        BC      MULS     r2,r0,r2
        0x00005410:    1415        ..      ASRS     r5,r2,#16
        0x00005412:    9811        ..      LDR      r0,[sp,#0x44]
        0x00005414:    2801        .(      CMP      r0,#1
        0x00005416:    d01f        ..      BEQ      0x5458 ; _fp_digits + 104
        0x00005418:    eba5000b    ....    SUB      r0,r5,r11
        0x0000541c:    1c40        @.      ADDS     r0,r0,#1
        0x0000541e:    ea5f0a00    _...    MOVS     r10,r0
        0x00005422:    f04f0600    O...    MOV      r6,#0
        0x00005426:    4f4e        NO      LDR      r7,[pc,#312] ; [0x5560] = 0x40140000
        0x00005428:    f8df9138    ..8.    LDR      r9,[pc,#312] ; [0x5564] = 0x3ff00000
        0x0000542c:    46b0        .F      MOV      r8,r6
        0x0000542e:    4650        PF      MOV      r0,r10
        0x00005430:    d515        ..      BPL      0x545e ; _fp_digits + 110
        0x00005432:    f1ca0400    ....    RSB      r4,r10,#0
        0x00005436:    e013        ..      B        0x5460 ; _fp_digits + 112
        0x00005438:    9811        ..      LDR      r0,[sp,#0x44]
        0x0000543a:    2401        .$      MOVS     r4,#1
        0x0000543c:    a34a        J.      ADR      r3,{pc}+0x12c ; 0x5568
        0x0000543e:    2801        .(      CMP      r0,#1
        0x00005440:    d101        ..      BNE      0x5446 ; _fp_digits + 86
        0x00005442:    ea6f010b    o...    MVN      r1,r11
        0x00005446:    9802        ..      LDR      r0,[sp,#8]
        0x00005448:    9a11        ..      LDR      r2,[sp,#0x44]
        0x0000544a:    e9c03100    ...1    STRD     r3,r1,[r0,#0]
        0x0000544e:    e9c04202    ...B    STRD     r4,r2,[r0,#8]
        0x00005452:    b006        ..      ADD      sp,sp,#0x18
        0x00005454:    e8bd9ff0    ....    POP      {r4-r12,pc}
        0x00005458:    f1cb0000    ....    RSB      r0,r11,#0
        0x0000545c:    e7df        ..      B        0x541e ; _fp_digits + 46
        0x0000545e:    4604        .F      MOV      r4,r0
        0x00005460:    2100        .!      MOVS     r1,#0
        0x00005462:    4a40        @J      LDR      r2,[pc,#256] ; [0x5564] = 0x3ff00000
        0x00005464:    1849        I.      ADDS     r1,r1,r1
        0x00005466:    eb425004    B..P    ADC      r0,r2,r4,LSL #20
        0x0000546a:    e9cd1000    ....    STRD     r1,r0,[sp,#0]
        0x0000546e:    e012        ..      B        0x5496 ; _fp_digits + 166
        0x00005470:    07e0        ..      LSLS     r0,r4,#31
        0x00005472:    d007        ..      BEQ      0x5484 ; _fp_digits + 148
        0x00005474:    4632        2F      MOV      r2,r6
        0x00005476:    463b        ;F      MOV      r3,r7
        0x00005478:    4640        @F      MOV      r0,r8
        0x0000547a:    4649        IF      MOV      r1,r9
        0x0000547c:    f7fbf8f1    ....    BL       __aeabi_dmul ; 0x662
        0x00005480:    4680        .F      MOV      r8,r0
        0x00005482:    4689        .F      MOV      r9,r1
        0x00005484:    4632        2F      MOV      r2,r6
        0x00005486:    463b        ;F      MOV      r3,r7
        0x00005488:    4610        .F      MOV      r0,r2
        0x0000548a:    4619        .F      MOV      r1,r3
        0x0000548c:    f7fbf8e9    ....    BL       __aeabi_dmul ; 0x662
        0x00005490:    4606        .F      MOV      r6,r0
        0x00005492:    460f        .F      MOV      r7,r1
        0x00005494:    1064        d.      ASRS     r4,r4,#1
        0x00005496:    2c00        .,      CMP      r4,#0
        0x00005498:    d1ea        ..      BNE      0x5470 ; _fp_digits + 128
        0x0000549a:    e9dd0104    ....    LDRD     r0,r1,[sp,#0x10]
        0x0000549e:    e9dd2300    ...#    LDRD     r2,r3,[sp,#0]
        0x000054a2:    f1ba0f00    ....    CMP      r10,#0
        0x000054a6:    da06        ..      BGE      0x54b6 ; _fp_digits + 198
        0x000054a8:    f7fbf8db    ....    BL       __aeabi_dmul ; 0x662
        0x000054ac:    4642        BF      MOV      r2,r8
        0x000054ae:    464b        KF      MOV      r3,r9
        0x000054b0:    f7fbf8d7    ....    BL       __aeabi_dmul ; 0x662
        0x000054b4:    e005        ..      B        0x54c2 ; _fp_digits + 210
        0x000054b6:    f7fbf946    ..F.    BL       __aeabi_ddiv ; 0x746
        0x000054ba:    4642        BF      MOV      r2,r8
        0x000054bc:    464b        KF      MOV      r3,r9
        0x000054be:    f7fbf942    ..B.    BL       __aeabi_ddiv ; 0x746
        0x000054c2:    4604        .F      MOV      r4,r0
        0x000054c4:    460e        .F      MOV      r6,r1
        0x000054c6:    2200        ."      MOVS     r2,#0
        0x000054c8:    4b28        (K      LDR      r3,[pc,#160] ; [0x556c] = 0x43f00000
        0x000054ca:    f7fbfa0d    ....    BL       __aeabi_cdrcmple ; 0x8e8
        0x000054ce:    d803        ..      BHI      0x54d8 ; _fp_digits + 232
        0x000054d0:    f04f30ff    O..0    MOV      r0,#0xffffffff
        0x000054d4:    4601        .F      MOV      r1,r0
        0x000054d6:    e007        ..      B        0x54e8 ; _fp_digits + 248
        0x000054d8:    2200        ."      MOVS     r2,#0
        0x000054da:    4b25        %K      LDR      r3,[pc,#148] ; [0x5570] = 0x3fe00000
        0x000054dc:    4620         F      MOV      r0,r4
        0x000054de:    4631        1F      MOV      r1,r6
        0x000054e0:    f7fbf818    ....    BL       __aeabi_dadd ; 0x514
        0x000054e4:    f7fbfb82    ....    BL       __aeabi_d2ulz ; 0xbec
        0x000054e8:    2410        .$      MOVS     r4,#0x10
        0x000054ea:    e009        ..      B        0x5500 ; _fp_digits + 272
        0x000054ec:    2c00        .,      CMP      r4,#0
        0x000054ee:    db0a        ..      BLT      0x5506 ; _fp_digits + 278
        0x000054f0:    220a        ."      MOVS     r2,#0xa
        0x000054f2:    2300        .#      MOVS     r3,#0
        0x000054f4:    f7fbfa42    ..B.    BL       __aeabi_uldivmod ; 0x97c
        0x000054f8:    9b03        ..      LDR      r3,[sp,#0xc]
        0x000054fa:    3230        02      ADDS     r2,r2,#0x30
        0x000054fc:    551a        .U      STRB     r2,[r3,r4]
        0x000054fe:    1e64        d.      SUBS     r4,r4,#1
        0x00005500:    ea500201    P...    ORRS     r2,r0,r1
        0x00005504:    d1f2        ..      BNE      0x54ec ; _fp_digits + 252
        0x00005506:    1c64        d.      ADDS     r4,r4,#1
        0x00005508:    9a03        ..      LDR      r2,[sp,#0xc]
        0x0000550a:    f1c40311    ....    RSB      r3,r4,#0x11
        0x0000550e:    4414        .D      ADD      r4,r4,r2
        0x00005510:    9a11        ..      LDR      r2,[sp,#0x44]
        0x00005512:    2a01        .*      CMP      r2,#1
        0x00005514:    d003        ..      BEQ      0x551e ; _fp_digits + 302
        0x00005516:    2201        ."      MOVS     r2,#1
        0x00005518:    4308        .C      ORRS     r0,r0,r1
        0x0000551a:    d10d        ..      BNE      0x5538 ; _fp_digits + 328
        0x0000551c:    e00a        ..      B        0x5534 ; _fp_digits + 324
        0x0000551e:    4308        .C      ORRS     r0,r0,r1
        0x00005520:    d004        ..      BEQ      0x552c ; _fp_digits + 316
        0x00005522:    2000        .       MOVS     r0,#0
        0x00005524:    f04f0b11    O...    MOV      r11,#0x11
        0x00005528:    9011        ..      STR      r0,[sp,#0x44]
        0x0000552a:    e772        r.      B        0x5412 ; _fp_digits + 34
        0x0000552c:    eba3050b    ....    SUB      r5,r3,r11
        0x00005530:    1e6d        m.      SUBS     r5,r5,#1
        0x00005532:    e00d        ..      B        0x5550 ; _fp_digits + 352
        0x00005534:    455b        [E      CMP      r3,r11
        0x00005536:    dd04        ..      BLE      0x5542 ; _fp_digits + 338
        0x00005538:    f04f0200    O...    MOV      r2,#0
        0x0000553c:    f1050501    ....    ADD      r5,r5,#1
        0x00005540:    e004        ..      B        0x554c ; _fp_digits + 348
        0x00005542:    da03        ..      BGE      0x554c ; _fp_digits + 348
        0x00005544:    f04f0200    O...    MOV      r2,#0
        0x00005548:    f1a50501    ....    SUB      r5,r5,#1
        0x0000554c:    2a00        .*      CMP      r2,#0
        0x0000554e:    d0ec        ..      BEQ      0x552a ; _fp_digits + 314
        0x00005550:    9802        ..      LDR      r0,[sp,#8]
        0x00005552:    9911        ..      LDR      r1,[sp,#0x44]
        0x00005554:    e9c03102    ...1    STRD     r3,r1,[r0,#8]
        0x00005558:    e9c04500    ...E    STRD     r4,r5,[r0,#0]
        0x0000555c:    e779        y.      B        0x5452 ; _fp_digits + 98
    $d
        0x0000555e:    0000        ..      DCW    0
        0x00005560:    40140000    ...@    DCD    1075052544
        0x00005564:    3ff00000    ...?    DCD    1072693248
        0x00005568:    00000030    0...    DCD    48
        0x0000556c:    43f00000    ...C    DCD    1139802112
        0x00005570:    3fe00000    ...?    DCD    1071644672
    $t
    i._printf_core
    _printf_core
        0x00005574:    e92d4fff    -..O    PUSH     {r0-r11,lr}
        0x00005578:    b095        ..      SUB      sp,sp,#0x54
        0x0000557a:    469b        .F      MOV      r11,r3
        0x0000557c:    4689        .F      MOV      r9,r1
        0x0000557e:    4606        .F      MOV      r6,r0
        0x00005580:    2500        .%      MOVS     r5,#0
        0x00005582:    e20f        ..      B        0x59a4 ; _printf_core + 1072
        0x00005584:    2825        %(      CMP      r0,#0x25
        0x00005586:    d177        w.      BNE      0x5678 ; _printf_core + 260
        0x00005588:    2400        .$      MOVS     r4,#0
        0x0000558a:    4627        'F      MOV      r7,r4
        0x0000558c:    4af8        .J      LDR      r2,[pc,#992] ; [0x5970] = 0x12809
        0x0000558e:    2101        .!      MOVS     r1,#1
        0x00005590:    9405        ..      STR      r4,[sp,#0x14]
        0x00005592:    e000        ..      B        0x5596 ; _printf_core + 34
        0x00005594:    4304        .C      ORRS     r4,r4,r0
        0x00005596:    f8163f01    ...?    LDRB     r3,[r6,#1]!
        0x0000559a:    3b20         ;      SUBS     r3,r3,#0x20
        0x0000559c:    fa01f003    ....    LSL      r0,r1,r3
        0x000055a0:    4210        .B      TST      r0,r2
        0x000055a2:    d1f7        ..      BNE      0x5594 ; _printf_core + 32
        0x000055a4:    7830        0x      LDRB     r0,[r6,#0]
        0x000055a6:    282a        *(      CMP      r0,#0x2a
        0x000055a8:    d011        ..      BEQ      0x55ce ; _printf_core + 90
        0x000055aa:    f06f032f    o./.    MVN      r3,#0x2f
        0x000055ae:    7830        0x      LDRB     r0,[r6,#0]
        0x000055b0:    f1a00230    ..0.    SUB      r2,r0,#0x30
        0x000055b4:    2a09        .*      CMP      r2,#9
        0x000055b6:    d816        ..      BHI      0x55e6 ; _printf_core + 114
        0x000055b8:    9a05        ..      LDR      r2,[sp,#0x14]
        0x000055ba:    f0440402    D...    ORR      r4,r4,#2
        0x000055be:    eb020282    ....    ADD      r2,r2,r2,LSL #2
        0x000055c2:    eb030242    ..B.    ADD      r2,r3,r2,LSL #1
        0x000055c6:    4410        .D      ADD      r0,r0,r2
        0x000055c8:    1c76        v.      ADDS     r6,r6,#1
        0x000055ca:    9005        ..      STR      r0,[sp,#0x14]
        0x000055cc:    e7ef        ..      B        0x55ae ; _printf_core + 58
        0x000055ce:    f8592b04    Y..+    LDR      r2,[r9],#4
        0x000055d2:    9205        ..      STR      r2,[sp,#0x14]
        0x000055d4:    2a00        .*      CMP      r2,#0
        0x000055d6:    da03        ..      BGE      0x55e0 ; _printf_core + 108
        0x000055d8:    4250        PB      RSBS     r0,r2,#0
        0x000055da:    f4445400    D..T    ORR      r4,r4,#0x2000
        0x000055de:    9005        ..      STR      r0,[sp,#0x14]
        0x000055e0:    f0440402    D...    ORR      r4,r4,#2
        0x000055e4:    1c76        v.      ADDS     r6,r6,#1
        0x000055e6:    7830        0x      LDRB     r0,[r6,#0]
        0x000055e8:    282e        .(      CMP      r0,#0x2e
        0x000055ea:    d116        ..      BNE      0x561a ; _printf_core + 166
        0x000055ec:    f8160f01    ....    LDRB     r0,[r6,#1]!
        0x000055f0:    f0440404    D...    ORR      r4,r4,#4
        0x000055f4:    282a        *(      CMP      r0,#0x2a
        0x000055f6:    d00d        ..      BEQ      0x5614 ; _printf_core + 160
        0x000055f8:    f06f022f    o./.    MVN      r2,#0x2f
        0x000055fc:    7830        0x      LDRB     r0,[r6,#0]
        0x000055fe:    f1a00330    ..0.    SUB      r3,r0,#0x30
        0x00005602:    2b09        .+      CMP      r3,#9
        0x00005604:    d809        ..      BHI      0x561a ; _printf_core + 166
        0x00005606:    eb070387    ....    ADD      r3,r7,r7,LSL #2
        0x0000560a:    eb020343    ..C.    ADD      r3,r2,r3,LSL #1
        0x0000560e:    18c7        ..      ADDS     r7,r0,r3
        0x00005610:    1c76        v.      ADDS     r6,r6,#1
        0x00005612:    e7f3        ..      B        0x55fc ; _printf_core + 136
        0x00005614:    f8597b04    Y..{    LDR      r7,[r9],#4
        0x00005618:    1c76        v.      ADDS     r6,r6,#1
        0x0000561a:    7830        0x      LDRB     r0,[r6,#0]
        0x0000561c:    286c        l(      CMP      r0,#0x6c
        0x0000561e:    d00f        ..      BEQ      0x5640 ; _printf_core + 204
        0x00005620:    dc06        ..      BGT      0x5630 ; _printf_core + 188
        0x00005622:    284c        L(      CMP      r0,#0x4c
        0x00005624:    d017        ..      BEQ      0x5656 ; _printf_core + 226
        0x00005626:    2868        h(      CMP      r0,#0x68
        0x00005628:    d00d        ..      BEQ      0x5646 ; _printf_core + 210
        0x0000562a:    286a        j(      CMP      r0,#0x6a
        0x0000562c:    d114        ..      BNE      0x5658 ; _printf_core + 228
        0x0000562e:    e004        ..      B        0x563a ; _printf_core + 198
        0x00005630:    2874        t(      CMP      r0,#0x74
        0x00005632:    d010        ..      BEQ      0x5656 ; _printf_core + 226
        0x00005634:    287a        z(      CMP      r0,#0x7a
        0x00005636:    d10f        ..      BNE      0x5658 ; _printf_core + 228
        0x00005638:    e00d        ..      B        0x5656 ; _printf_core + 226
        0x0000563a:    f4441400    D...    ORR      r4,r4,#0x200000
        0x0000563e:    e00a        ..      B        0x5656 ; _printf_core + 226
        0x00005640:    f4441480    D...    ORR      r4,r4,#0x100000
        0x00005644:    e001        ..      B        0x564a ; _printf_core + 214
        0x00005646:    f4441440    D.@.    ORR      r4,r4,#0x300000
        0x0000564a:    7872        rx      LDRB     r2,[r6,#1]
        0x0000564c:    4282        .B      CMP      r2,r0
        0x0000564e:    d102        ..      BNE      0x5656 ; _printf_core + 226
        0x00005650:    f5041480    ....    ADD      r4,r4,#0x100000
        0x00005654:    1c76        v.      ADDS     r6,r6,#1
        0x00005656:    1c76        v.      ADDS     r6,r6,#1
        0x00005658:    7830        0x      LDRB     r0,[r6,#0]
        0x0000565a:    2866        f(      CMP      r0,#0x66
        0x0000565c:    d00b        ..      BEQ      0x5676 ; _printf_core + 258
        0x0000565e:    dc13        ..      BGT      0x5688 ; _printf_core + 276
        0x00005660:    2858        X(      CMP      r0,#0x58
        0x00005662:    d077        w.      BEQ      0x5754 ; _printf_core + 480
        0x00005664:    dc09        ..      BGT      0x567a ; _printf_core + 262
        0x00005666:    2800        .(      CMP      r0,#0
        0x00005668:    d075        u.      BEQ      0x5756 ; _printf_core + 482
        0x0000566a:    2845        E(      CMP      r0,#0x45
        0x0000566c:    d0f6        ..      BEQ      0x565c ; _printf_core + 232
        0x0000566e:    2846        F(      CMP      r0,#0x46
        0x00005670:    d0f4        ..      BEQ      0x565c ; _printf_core + 232
        0x00005672:    2847        G(      CMP      r0,#0x47
        0x00005674:    d11a        ..      BNE      0x56ac ; _printf_core + 312
        0x00005676:    e19d        ..      B        0x59b4 ; _printf_core + 1088
        0x00005678:    e018        ..      B        0x56ac ; _printf_core + 312
        0x0000567a:    2863        c(      CMP      r0,#0x63
        0x0000567c:    d035        5.      BEQ      0x56ea ; _printf_core + 374
        0x0000567e:    2864        d(      CMP      r0,#0x64
        0x00005680:    d079        y.      BEQ      0x5776 ; _printf_core + 514
        0x00005682:    2865        e(      CMP      r0,#0x65
        0x00005684:    d112        ..      BNE      0x56ac ; _printf_core + 312
        0x00005686:    e195        ..      B        0x59b4 ; _printf_core + 1088
        0x00005688:    2870        p(      CMP      r0,#0x70
        0x0000568a:    d073        s.      BEQ      0x5774 ; _printf_core + 512
        0x0000568c:    dc08        ..      BGT      0x56a0 ; _printf_core + 300
        0x0000568e:    2867        g(      CMP      r0,#0x67
        0x00005690:    d0f1        ..      BEQ      0x5676 ; _printf_core + 258
        0x00005692:    2869        i(      CMP      r0,#0x69
        0x00005694:    d06f        o.      BEQ      0x5776 ; _printf_core + 514
        0x00005696:    286e        n(      CMP      r0,#0x6e
        0x00005698:    d00d        ..      BEQ      0x56b6 ; _printf_core + 322
        0x0000569a:    286f        o(      CMP      r0,#0x6f
        0x0000569c:    d106        ..      BNE      0x56ac ; _printf_core + 312
        0x0000569e:    e0b5        ..      B        0x580c ; _printf_core + 664
        0x000056a0:    2873        s(      CMP      r0,#0x73
        0x000056a2:    d02c        ,.      BEQ      0x56fe ; _printf_core + 394
        0x000056a4:    2875        u(      CMP      r0,#0x75
        0x000056a6:    d075        u.      BEQ      0x5794 ; _printf_core + 544
        0x000056a8:    2878        x(      CMP      r0,#0x78
        0x000056aa:    d074        t.      BEQ      0x5796 ; _printf_core + 546
        0x000056ac:    465a        ZF      MOV      r2,r11
        0x000056ae:    9917        ..      LDR      r1,[sp,#0x5c]
        0x000056b0:    4790        .G      BLX      r2
        0x000056b2:    1c6d        m.      ADDS     r5,r5,#1
        0x000056b4:    e175        u.      B        0x59a2 ; _printf_core + 1070
        0x000056b6:    f3c45002    ...P    UBFX     r0,r4,#20,#3
        0x000056ba:    2802        .(      CMP      r0,#2
        0x000056bc:    d009        ..      BEQ      0x56d2 ; _printf_core + 350
        0x000056be:    2803        .(      CMP      r0,#3
        0x000056c0:    d00d        ..      BEQ      0x56de ; _printf_core + 362
        0x000056c2:    f8d91000    ....    LDR      r1,[r9,#0]
        0x000056c6:    2804        .(      CMP      r0,#4
        0x000056c8:    d00d        ..      BEQ      0x56e6 ; _printf_core + 370
        0x000056ca:    600d        .`      STR      r5,[r1,#0]
        0x000056cc:    f1090904    ....    ADD      r9,r9,#4
        0x000056d0:    e167        g.      B        0x59a2 ; _printf_core + 1070
        0x000056d2:    f8d91000    ....    LDR      r1,[r9,#0]
        0x000056d6:    17ea        ..      ASRS     r2,r5,#31
        0x000056d8:    e9c15200    ...R    STRD     r5,r2,[r1,#0]
        0x000056dc:    e7f6        ..      B        0x56cc ; _printf_core + 344
        0x000056de:    f8d91000    ....    LDR      r1,[r9,#0]
        0x000056e2:    800d        ..      STRH     r5,[r1,#0]
        0x000056e4:    e7f2        ..      B        0x56cc ; _printf_core + 344
        0x000056e6:    700d        .p      STRB     r5,[r1,#0]
        0x000056e8:    e7f0        ..      B        0x56cc ; _printf_core + 344
        0x000056ea:    f8191b04    ....    LDRB     r1,[r9],#4
        0x000056ee:    f88d1000    ....    STRB     r1,[sp,#0]
        0x000056f2:    2000        .       MOVS     r0,#0
        0x000056f4:    f88d0001    ....    STRB     r0,[sp,#1]
        0x000056f8:    46ea        .F      MOV      r10,sp
        0x000056fa:    2001        .       MOVS     r0,#1
        0x000056fc:    e003        ..      B        0x5706 ; _printf_core + 402
        0x000056fe:    f859ab04    Y...    LDR      r10,[r9],#4
        0x00005702:    f04f30ff    O..0    MOV      r0,#0xffffffff
        0x00005706:    0761        a.      LSLS     r1,r4,#29
        0x00005708:    f04f0100    O...    MOV      r1,#0
        0x0000570c:    d402        ..      BMI      0x5714 ; _printf_core + 416
        0x0000570e:    e00d        ..      B        0x572c ; _printf_core + 440
        0x00005710:    f1080101    ....    ADD      r1,r8,#1
        0x00005714:    4688        .F      MOV      r8,r1
        0x00005716:    42b9        .B      CMP      r1,r7
        0x00005718:    da0f        ..      BGE      0x573a ; _printf_core + 454
        0x0000571a:    4580        .E      CMP      r8,r0
        0x0000571c:    dbf8        ..      BLT      0x5710 ; _printf_core + 412
        0x0000571e:    f81a1008    ....    LDRB     r1,[r10,r8]
        0x00005722:    2900        .)      CMP      r1,#0
        0x00005724:    d1f4        ..      BNE      0x5710 ; _printf_core + 412
        0x00005726:    e008        ..      B        0x573a ; _printf_core + 454
        0x00005728:    f1080101    ....    ADD      r1,r8,#1
        0x0000572c:    4688        .F      MOV      r8,r1
        0x0000572e:    4281        .B      CMP      r1,r0
        0x00005730:    dbfa        ..      BLT      0x5728 ; _printf_core + 436
        0x00005732:    f81a1008    ....    LDRB     r1,[r10,r8]
        0x00005736:    2900        .)      CMP      r1,#0
        0x00005738:    d1f6        ..      BNE      0x5728 ; _printf_core + 436
        0x0000573a:    9805        ..      LDR      r0,[sp,#0x14]
        0x0000573c:    465b        [F      MOV      r3,r11
        0x0000573e:    eba00708    ....    SUB      r7,r0,r8
        0x00005742:    4621        !F      MOV      r1,r4
        0x00005744:    4638        8F      MOV      r0,r7
        0x00005746:    9a17        ..      LDR      r2,[sp,#0x5c]
        0x00005748:    f000fa94    ....    BL       _printf_pre_padding ; 0x5c74
        0x0000574c:    4428        (D      ADD      r0,r0,r5
        0x0000574e:    eb000508    ....    ADD      r5,r0,r8
        0x00005752:    e007        ..      B        0x5764 ; _printf_core + 496
        0x00005754:    e04d        M.      B        0x57f2 ; _printf_core + 638
        0x00005756:    e129        ).      B        0x59ac ; _printf_core + 1080
        0x00005758:    e00d        ..      B        0x5776 ; _printf_core + 514
        0x0000575a:    f81a0b01    ....    LDRB     r0,[r10],#1
        0x0000575e:    465a        ZF      MOV      r2,r11
        0x00005760:    9917        ..      LDR      r1,[sp,#0x5c]
        0x00005762:    4790        .G      BLX      r2
        0x00005764:    f1b80801    ....    SUBS     r8,r8,#1
        0x00005768:    d2f7        ..      BCS      0x575a ; _printf_core + 486
        0x0000576a:    465b        [F      MOV      r3,r11
        0x0000576c:    4621        !F      MOV      r1,r4
        0x0000576e:    4638        8F      MOV      r0,r7
        0x00005770:    9a17        ..      LDR      r2,[sp,#0x5c]
        0x00005772:    e113        ..      B        0x599c ; _printf_core + 1064
        0x00005774:    e042        B.      B        0x57fc ; _printf_core + 648
        0x00005776:    220a        ."      MOVS     r2,#0xa
        0x00005778:    9200        ..      STR      r2,[sp,#0]
        0x0000577a:    f3c45202    ...R    UBFX     r2,r4,#20,#3
        0x0000577e:    f04f0a00    O...    MOV      r10,#0
        0x00005782:    2a02        .*      CMP      r2,#2
        0x00005784:    d008        ..      BEQ      0x5798 ; _printf_core + 548
        0x00005786:    f859cb04    Y...    LDR      r12,[r9],#4
        0x0000578a:    2a03        .*      CMP      r2,#3
        0x0000578c:    ea4f71ec    O..q    ASR      r1,r12,#31
        0x00005790:    d00a        ..      BEQ      0x57a8 ; _printf_core + 564
        0x00005792:    e00d        ..      B        0x57b0 ; _printf_core + 572
        0x00005794:    e029        ).      B        0x57ea ; _printf_core + 630
        0x00005796:    e02a        *.      B        0x57ee ; _printf_core + 634
        0x00005798:    f1090107    ....    ADD      r1,r9,#7
        0x0000579c:    f0210207    !...    BIC      r2,r1,#7
        0x000057a0:    e8f2c102    ....    LDRD     r12,r1,[r2],#8
        0x000057a4:    4691        .F      MOV      r9,r2
        0x000057a6:    e009        ..      B        0x57bc ; _printf_core + 584
        0x000057a8:    fa0ffc8c    ....    SXTH     r12,r12
        0x000057ac:    ea4f71ec    O..q    ASR      r1,r12,#31
        0x000057b0:    2a04        .*      CMP      r2,#4
        0x000057b2:    d103        ..      BNE      0x57bc ; _printf_core + 584
        0x000057b4:    fa4ffc8c    O...    SXTB     r12,r12
        0x000057b8:    ea4f71ec    O..q    ASR      r1,r12,#31
        0x000057bc:    2900        .)      CMP      r1,#0
        0x000057be:    da07        ..      BGE      0x57d0 ; _printf_core + 604
        0x000057c0:    460a        .F      MOV      r2,r1
        0x000057c2:    2100        .!      MOVS     r1,#0
        0x000057c4:    f1dc0c00    ....    RSBS     r12,r12,#0
        0x000057c8:    eb610102    a...    SBC      r1,r1,r2
        0x000057cc:    222d        -"      MOVS     r2,#0x2d
        0x000057ce:    e002        ..      B        0x57d6 ; _printf_core + 610
        0x000057d0:    0522        ".      LSLS     r2,r4,#20
        0x000057d2:    d504        ..      BPL      0x57de ; _printf_core + 618
        0x000057d4:    222b        +"      MOVS     r2,#0x2b
        0x000057d6:    f88d2004    ...     STRB     r2,[sp,#4]
        0x000057da:    2201        ."      MOVS     r2,#1
        0x000057dc:    e003        ..      B        0x57e6 ; _printf_core + 626
        0x000057de:    07e2        ..      LSLS     r2,r4,#31
        0x000057e0:    d001        ..      BEQ      0x57e6 ; _printf_core + 626
        0x000057e2:    2220         "      MOVS     r2,#0x20
        0x000057e4:    e7f7        ..      B        0x57d6 ; _printf_core + 610
        0x000057e6:    4690        .F      MOV      r8,r2
        0x000057e8:    e059        Y.      B        0x589e ; _printf_core + 810
        0x000057ea:    210a        .!      MOVS     r1,#0xa
        0x000057ec:    e002        ..      B        0x57f4 ; _printf_core + 640
        0x000057ee:    2210        ."      MOVS     r2,#0x10
        0x000057f0:    e00d        ..      B        0x580e ; _printf_core + 666
        0x000057f2:    2110        .!      MOVS     r1,#0x10
        0x000057f4:    f04f0a00    O...    MOV      r10,#0
        0x000057f8:    9100        ..      STR      r1,[sp,#0]
        0x000057fa:    e00b        ..      B        0x5814 ; _printf_core + 672
        0x000057fc:    2210        ."      MOVS     r2,#0x10
        0x000057fe:    f04f0a00    O...    MOV      r10,#0
        0x00005802:    f0440404    D...    ORR      r4,r4,#4
        0x00005806:    2708        .'      MOVS     r7,#8
        0x00005808:    9200        ..      STR      r2,[sp,#0]
        0x0000580a:    e003        ..      B        0x5814 ; _printf_core + 672
        0x0000580c:    2208        ."      MOVS     r2,#8
        0x0000580e:    f04f0a00    O...    MOV      r10,#0
        0x00005812:    9200        ..      STR      r2,[sp,#0]
        0x00005814:    f3c45202    ...R    UBFX     r2,r4,#20,#3
        0x00005818:    2a02        .*      CMP      r2,#2
        0x0000581a:    d005        ..      BEQ      0x5828 ; _printf_core + 692
        0x0000581c:    f859cb04    Y...    LDR      r12,[r9],#4
        0x00005820:    2100        .!      MOVS     r1,#0
        0x00005822:    2a03        .*      CMP      r2,#3
        0x00005824:    d008        ..      BEQ      0x5838 ; _printf_core + 708
        0x00005826:    e009        ..      B        0x583c ; _printf_core + 712
        0x00005828:    f1090107    ....    ADD      r1,r9,#7
        0x0000582c:    f0210207    !...    BIC      r2,r1,#7
        0x00005830:    e8f2c102    ....    LDRD     r12,r1,[r2],#8
        0x00005834:    4691        .F      MOV      r9,r2
        0x00005836:    e005        ..      B        0x5844 ; _printf_core + 720
        0x00005838:    fa1ffc8c    ....    UXTH     r12,r12
        0x0000583c:    2a04        .*      CMP      r2,#4
        0x0000583e:    d101        ..      BNE      0x5844 ; _printf_core + 720
        0x00005840:    f00c0cff    ....    AND      r12,r12,#0xff
        0x00005844:    f04f0800    O...    MOV      r8,#0
        0x00005848:    0722        ".      LSLS     r2,r4,#28
        0x0000584a:    d528        (.      BPL      0x589e ; _printf_core + 810
        0x0000584c:    2870        p(      CMP      r0,#0x70
        0x0000584e:    d006        ..      BEQ      0x585e ; _printf_core + 746
        0x00005850:    9b00        ..      LDR      r3,[sp,#0]
        0x00005852:    f0830310    ....    EOR      r3,r3,#0x10
        0x00005856:    ea53030a    S...    ORRS     r3,r3,r10
        0x0000585a:    d005        ..      BEQ      0x5868 ; _printf_core + 756
        0x0000585c:    e00e        ..      B        0x587c ; _printf_core + 776
        0x0000585e:    2240        @"      MOVS     r2,#0x40
        0x00005860:    f88d2004    ...     STRB     r2,[sp,#4]
        0x00005864:    2201        ."      MOVS     r2,#1
        0x00005866:    e008        ..      B        0x587a ; _printf_core + 774
        0x00005868:    ea5c0201    \...    ORRS     r2,r12,r1
        0x0000586c:    d006        ..      BEQ      0x587c ; _printf_core + 776
        0x0000586e:    2230        0"      MOVS     r2,#0x30
        0x00005870:    f88d2004    ...     STRB     r2,[sp,#4]
        0x00005874:    f88d0005    ....    STRB     r0,[sp,#5]
        0x00005878:    2202        ."      MOVS     r2,#2
        0x0000587a:    4690        .F      MOV      r8,r2
        0x0000587c:    9b00        ..      LDR      r3,[sp,#0]
        0x0000587e:    f0830308    ....    EOR      r3,r3,#8
        0x00005882:    ea53030a    S...    ORRS     r3,r3,r10
        0x00005886:    d10a        ..      BNE      0x589e ; _printf_core + 810
        0x00005888:    ea5c0201    \...    ORRS     r2,r12,r1
        0x0000588c:    d101        ..      BNE      0x5892 ; _printf_core + 798
        0x0000588e:    0762        b.      LSLS     r2,r4,#29
        0x00005890:    d505        ..      BPL      0x589e ; _printf_core + 810
        0x00005892:    2230        0"      MOVS     r2,#0x30
        0x00005894:    f88d2004    ...     STRB     r2,[sp,#4]
        0x00005898:    f04f0801    O...    MOV      r8,#1
        0x0000589c:    1e7f        ..      SUBS     r7,r7,#1
        0x0000589e:    2858        X(      CMP      r0,#0x58
        0x000058a0:    d004        ..      BEQ      0x58ac ; _printf_core + 824
        0x000058a2:    a034        4.      ADR      r0,{pc}+0xd2 ; 0x5974
        0x000058a4:    9003        ..      STR      r0,[sp,#0xc]
        0x000058a6:    a80e        ..      ADD      r0,sp,#0x38
        0x000058a8:    9002        ..      STR      r0,[sp,#8]
        0x000058aa:    e00d        ..      B        0x58c8 ; _printf_core + 852
        0x000058ac:    a036        6.      ADR      r0,{pc}+0xdc ; 0x5988
        0x000058ae:    e7f9        ..      B        0x58a4 ; _printf_core + 816
        0x000058b0:    4653        SF      MOV      r3,r10
        0x000058b2:    4660        `F      MOV      r0,r12
        0x000058b4:    9a00        ..      LDR      r2,[sp,#0]
        0x000058b6:    f7fbf861    ..a.    BL       __aeabi_uldivmod ; 0x97c
        0x000058ba:    4684        .F      MOV      r12,r0
        0x000058bc:    9803        ..      LDR      r0,[sp,#0xc]
        0x000058be:    5c82        .\      LDRB     r2,[r0,r2]
        0x000058c0:    9802        ..      LDR      r0,[sp,#8]
        0x000058c2:    1e40        @.      SUBS     r0,r0,#1
        0x000058c4:    9002        ..      STR      r0,[sp,#8]
        0x000058c6:    7002        .p      STRB     r2,[r0,#0]
        0x000058c8:    ea5c0001    \...    ORRS     r0,r12,r1
        0x000058cc:    d1f0        ..      BNE      0x58b0 ; _printf_core + 828
        0x000058ce:    9802        ..      LDR      r0,[sp,#8]
        0x000058d0:    a906        ..      ADD      r1,sp,#0x18
        0x000058d2:    1a08        ..      SUBS     r0,r1,r0
        0x000058d4:    f1000a20    .. .    ADD      r10,r0,#0x20
        0x000058d8:    0760        `.      LSLS     r0,r4,#29
        0x000058da:    d502        ..      BPL      0x58e2 ; _printf_core + 878
        0x000058dc:    f4243480    $..4    BIC      r4,r4,#0x10000
        0x000058e0:    e000        ..      B        0x58e4 ; _printf_core + 880
        0x000058e2:    2701        .'      MOVS     r7,#1
        0x000058e4:    4557        WE      CMP      r7,r10
        0x000058e6:    dd02        ..      BLE      0x58ee ; _printf_core + 890
        0x000058e8:    eba7000a    ....    SUB      r0,r7,r10
        0x000058ec:    e000        ..      B        0x58f0 ; _printf_core + 892
        0x000058ee:    2000        .       MOVS     r0,#0
        0x000058f0:    eb00010a    ....    ADD      r1,r0,r10
        0x000058f4:    9000        ..      STR      r0,[sp,#0]
        0x000058f6:    9805        ..      LDR      r0,[sp,#0x14]
        0x000058f8:    4441        AD      ADD      r1,r1,r8
        0x000058fa:    1a40        @.      SUBS     r0,r0,r1
        0x000058fc:    9005        ..      STR      r0,[sp,#0x14]
        0x000058fe:    03e0        ..      LSLS     r0,r4,#15
        0x00005900:    d406        ..      BMI      0x5910 ; _printf_core + 924
        0x00005902:    465b        [F      MOV      r3,r11
        0x00005904:    4621        !F      MOV      r1,r4
        0x00005906:    9a17        ..      LDR      r2,[sp,#0x5c]
        0x00005908:    9805        ..      LDR      r0,[sp,#0x14]
        0x0000590a:    f000f9b3    ....    BL       _printf_pre_padding ; 0x5c74
        0x0000590e:    4405        .D      ADD      r5,r5,r0
        0x00005910:    2700        .'      MOVS     r7,#0
        0x00005912:    e006        ..      B        0x5922 ; _printf_core + 942
        0x00005914:    a801        ..      ADD      r0,sp,#4
        0x00005916:    465a        ZF      MOV      r2,r11
        0x00005918:    5dc0        .]      LDRB     r0,[r0,r7]
        0x0000591a:    9917        ..      LDR      r1,[sp,#0x5c]
        0x0000591c:    4790        .G      BLX      r2
        0x0000591e:    1c6d        m.      ADDS     r5,r5,#1
        0x00005920:    1c7f        ..      ADDS     r7,r7,#1
        0x00005922:    4547        GE      CMP      r7,r8
        0x00005924:    dbf6        ..      BLT      0x5914 ; _printf_core + 928
        0x00005926:    03e0        ..      LSLS     r0,r4,#15
        0x00005928:    d50c        ..      BPL      0x5944 ; _printf_core + 976
        0x0000592a:    465b        [F      MOV      r3,r11
        0x0000592c:    4621        !F      MOV      r1,r4
        0x0000592e:    9a17        ..      LDR      r2,[sp,#0x5c]
        0x00005930:    9805        ..      LDR      r0,[sp,#0x14]
        0x00005932:    f000f99f    ....    BL       _printf_pre_padding ; 0x5c74
        0x00005936:    4405        .D      ADD      r5,r5,r0
        0x00005938:    e004        ..      B        0x5944 ; _printf_core + 976
        0x0000593a:    2030        0       MOVS     r0,#0x30
        0x0000593c:    465a        ZF      MOV      r2,r11
        0x0000593e:    9917        ..      LDR      r1,[sp,#0x5c]
        0x00005940:    4790        .G      BLX      r2
        0x00005942:    1c6d        m.      ADDS     r5,r5,#1
        0x00005944:    9900        ..      LDR      r1,[sp,#0]
        0x00005946:    1e48        H.      SUBS     r0,r1,#1
        0x00005948:    9000        ..      STR      r0,[sp,#0]
        0x0000594a:    2900        .)      CMP      r1,#0
        0x0000594c:    dcf5        ..      BGT      0x593a ; _printf_core + 966
        0x0000594e:    e008        ..      B        0x5962 ; _printf_core + 1006
        0x00005950:    9802        ..      LDR      r0,[sp,#8]
        0x00005952:    9902        ..      LDR      r1,[sp,#8]
        0x00005954:    465a        ZF      MOV      r2,r11
        0x00005956:    7800        .x      LDRB     r0,[r0,#0]
        0x00005958:    1c49        I.      ADDS     r1,r1,#1
        0x0000595a:    9102        ..      STR      r1,[sp,#8]
        0x0000595c:    9917        ..      LDR      r1,[sp,#0x5c]
        0x0000595e:    4790        .G      BLX      r2
        0x00005960:    1c6d        m.      ADDS     r5,r5,#1
        0x00005962:    f1ba0100    ....    SUBS     r1,r10,#0
        0x00005966:    f1aa0a01    ....    SUB      r10,r10,#1
        0x0000596a:    dcf1        ..      BGT      0x5950 ; _printf_core + 988
        0x0000596c:    e165        e.      B        0x5c3a ; _printf_core + 1734
    $d
        0x0000596e:    0000        ..      DCW    0
        0x00005970:    00012809    .(..    DCD    75785
        0x00005974:    33323130    0123    DCD    858927408
        0x00005978:    37363534    4567    DCD    926299444
        0x0000597c:    62613938    89ab    DCD    1650538808
        0x00005980:    66656463    cdef    DCD    1717920867
        0x00005984:    00000000    ....    DCD    0
        0x00005988:    33323130    0123    DCD    858927408
        0x0000598c:    37363534    4567    DCD    926299444
        0x00005990:    42413938    89AB    DCD    1111570744
        0x00005994:    46454443    CDEF    DCD    1178944579
        0x00005998:    00000000    ....    DCD    0
    $t
        0x0000599c:    f000f958    ..X.    BL       _printf_post_padding ; 0x5c50
        0x000059a0:    4405        .D      ADD      r5,r5,r0
        0x000059a2:    1c76        v.      ADDS     r6,r6,#1
        0x000059a4:    7830        0x      LDRB     r0,[r6,#0]
        0x000059a6:    2800        .(      CMP      r0,#0
        0x000059a8:    f47fadec    ....    BNE      0x5584 ; _printf_core + 16
        0x000059ac:    b019        ..      ADD      sp,sp,#0x64
        0x000059ae:    4628        (F      MOV      r0,r5
        0x000059b0:    e8bd8ff0    ....    POP      {r4-r11,pc}
        0x000059b4:    0762        b.      LSLS     r2,r4,#29
        0x000059b6:    d400        ..      BMI      0x59ba ; _printf_core + 1094
        0x000059b8:    2706        .'      MOVS     r7,#6
        0x000059ba:    f1090207    ....    ADD      r2,r9,#7
        0x000059be:    f0220c07    "...    BIC      r12,r2,#7
        0x000059c2:    e8fc2302    ...#    LDRD     r2,r3,[r12],#8
        0x000059c6:    46e1        .F      MOV      r9,r12
        0x000059c8:    f0034800    ...H    AND      r8,r3,#0x80000000
        0x000059cc:    ea5f0c08    _...    MOVS     r12,r8
        0x000059d0:    d002        ..      BEQ      0x59d8 ; _printf_core + 1124
        0x000059d2:    f20f2c70    ..p,    ADR.W    r12,{pc}+0x272 ; 0x5c44
        0x000059d6:    e00d        ..      B        0x59f4 ; _printf_core + 1152
        0x000059d8:    ea5f5c04    _..\    LSLS     r12,r4,#20
        0x000059dc:    d502        ..      BPL      0x59e4 ; _printf_core + 1136
        0x000059de:    f20f2c68    ..h,    ADR.W    r12,{pc}+0x26a ; 0x5c48
        0x000059e2:    e007        ..      B        0x59f4 ; _printf_core + 1152
        0x000059e4:    ea5f7cc4    _..|    LSLS     r12,r4,#31
        0x000059e8:    d002        ..      BEQ      0x59f0 ; _printf_core + 1148
        0x000059ea:    f20f2c60    ..`,    ADR.W    r12,{pc}+0x262 ; 0x5c4c
        0x000059ee:    e001        ..      B        0x59f4 ; _printf_core + 1152
        0x000059f0:    f2af0c70    ..p.    ADR      r12,{pc}-0x6c ; 0x5984
        0x000059f4:    f04f38ff    O..8    MOV      r8,#0xffffffff
        0x000059f8:    f0234300    #..C    BIC      r3,r3,#0x80000000
        0x000059fc:    f8cdc050    ..P.    STR      r12,[sp,#0x50]
        0x00005a00:    2865        e(      CMP      r0,#0x65
        0x00005a02:    d00c        ..      BEQ      0x5a1e ; _printf_core + 1194
        0x00005a04:    dc06        ..      BGT      0x5a14 ; _printf_core + 1184
        0x00005a06:    2845        E(      CMP      r0,#0x45
        0x00005a08:    d009        ..      BEQ      0x5a1e ; _printf_core + 1194
        0x00005a0a:    2846        F(      CMP      r0,#0x46
        0x00005a0c:    d01d        ..      BEQ      0x5a4a ; _printf_core + 1238
        0x00005a0e:    2847        G(      CMP      r0,#0x47
        0x00005a10:    d13d        =.      BNE      0x5a8e ; _printf_core + 1306
        0x00005a12:    e03d        =.      B        0x5a90 ; _printf_core + 1308
        0x00005a14:    2866        f(      CMP      r0,#0x66
        0x00005a16:    d018        ..      BEQ      0x5a4a ; _printf_core + 1238
        0x00005a18:    2867        g(      CMP      r0,#0x67
        0x00005a1a:    d17e        ~.      BNE      0x5b1a ; _printf_core + 1446
        0x00005a1c:    e038        8.      B        0x5a90 ; _printf_core + 1308
        0x00005a1e:    2100        .!      MOVS     r1,#0
        0x00005a20:    2f11        ./      CMP      r7,#0x11
        0x00005a22:    db01        ..      BLT      0x5a28 ; _printf_core + 1204
        0x00005a24:    2011        .       MOVS     r0,#0x11
        0x00005a26:    e000        ..      B        0x5a2a ; _printf_core + 1206
        0x00005a28:    1c78        x.      ADDS     r0,r7,#1
        0x00005a2a:    e9cd0100    ....    STRD     r0,r1,[sp,#0]
        0x00005a2e:    a906        ..      ADD      r1,sp,#0x18
        0x00005a30:    a80e        ..      ADD      r0,sp,#0x38
        0x00005a32:    f7fffcdd    ....    BL       _fp_digits ; 0x53f0
        0x00005a36:    e9dd010f    ....    LDRD     r0,r1,[sp,#0x3c]
        0x00005a3a:    9a0e        ..      LDR      r2,[sp,#0x38]
        0x00005a3c:    9103        ..      STR      r1,[sp,#0xc]
        0x00005a3e:    2100        .!      MOVS     r1,#0
        0x00005a40:    9200        ..      STR      r2,[sp,#0]
        0x00005a42:    f1070a01    ....    ADD      r10,r7,#1
        0x00005a46:    9104        ..      STR      r1,[sp,#0x10]
        0x00005a48:    e04d        M.      B        0x5ae6 ; _printf_core + 1394
        0x00005a4a:    f04f4000    O..@    MOV      r0,#0x80000000
        0x00005a4e:    9700        ..      STR      r7,[sp,#0]
        0x00005a50:    e9cd1001    ....    STRD     r1,r0,[sp,#4]
        0x00005a54:    a906        ..      ADD      r1,sp,#0x18
        0x00005a56:    a80e        ..      ADD      r0,sp,#0x38
        0x00005a58:    f7fffcca    ....    BL       _fp_digits ; 0x53f0
        0x00005a5c:    e9dd020f    ....    LDRD     r0,r2,[sp,#0x3c]
        0x00005a60:    9203        ..      STR      r2,[sp,#0xc]
        0x00005a62:    9b0e        ..      LDR      r3,[sp,#0x38]
        0x00005a64:    9911        ..      LDR      r1,[sp,#0x44]
        0x00005a66:    2200        ."      MOVS     r2,#0
        0x00005a68:    f8dda00c    ....    LDR      r10,[sp,#0xc]
        0x00005a6c:    9300        ..      STR      r3,[sp,#0]
        0x00005a6e:    9204        ..      STR      r2,[sp,#0x10]
        0x00005a70:    b911        ..      CBNZ     r1,0x5a78 ; _printf_core + 1284
        0x00005a72:    1c79        y.      ADDS     r1,r7,#1
        0x00005a74:    eb000a01    ....    ADD      r10,r0,r1
        0x00005a78:    ebb7000a    ....    SUBS     r0,r7,r10
        0x00005a7c:    d404        ..      BMI      0x5a88 ; _printf_core + 1300
        0x00005a7e:    f1c030ff    ...0    RSB      r0,r0,#0xffffffff
        0x00005a82:    f1070a01    ....    ADD      r10,r7,#1
        0x00005a86:    9004        ..      STR      r0,[sp,#0x10]
        0x00005a88:    ebaa0007    ....    SUB      r0,r10,r7
        0x00005a8c:    9001        ..      STR      r0,[sp,#4]
        0x00005a8e:    e044        D.      B        0x5b1a ; _printf_core + 1446
        0x00005a90:    2f01        ./      CMP      r7,#1
        0x00005a92:    da00        ..      BGE      0x5a96 ; _printf_core + 1314
        0x00005a94:    2701        .'      MOVS     r7,#1
        0x00005a96:    2100        .!      MOVS     r1,#0
        0x00005a98:    2f11        ./      CMP      r7,#0x11
        0x00005a9a:    dd01        ..      BLE      0x5aa0 ; _printf_core + 1324
        0x00005a9c:    2011        .       MOVS     r0,#0x11
        0x00005a9e:    e000        ..      B        0x5aa2 ; _printf_core + 1326
        0x00005aa0:    4638        8F      MOV      r0,r7
        0x00005aa2:    e9cd0100    ....    STRD     r0,r1,[sp,#0]
        0x00005aa6:    a906        ..      ADD      r1,sp,#0x18
        0x00005aa8:    a80e        ..      ADD      r0,sp,#0x38
        0x00005aaa:    f7fffca1    ....    BL       _fp_digits ; 0x53f0
        0x00005aae:    e9dd010f    ....    LDRD     r0,r1,[sp,#0x3c]
        0x00005ab2:    9a0e        ..      LDR      r2,[sp,#0x38]
        0x00005ab4:    9103        ..      STR      r1,[sp,#0xc]
        0x00005ab6:    2100        .!      MOVS     r1,#0
        0x00005ab8:    9104        ..      STR      r1,[sp,#0x10]
        0x00005aba:    9200        ..      STR      r2,[sp,#0]
        0x00005abc:    46ba        .F      MOV      r10,r7
        0x00005abe:    0721        !.      LSLS     r1,r4,#28
        0x00005ac0:    d40c        ..      BMI      0x5adc ; _printf_core + 1384
        0x00005ac2:    9903        ..      LDR      r1,[sp,#0xc]
        0x00005ac4:    4551        QE      CMP      r1,r10
        0x00005ac6:    da00        ..      BGE      0x5aca ; _printf_core + 1366
        0x00005ac8:    468a        .F      MOV      r10,r1
        0x00005aca:    f1ba0f01    ....    CMP      r10,#1
        0x00005ace:    dd05        ..      BLE      0x5adc ; _printf_core + 1384
        0x00005ad0:    9a00        ..      LDR      r2,[sp,#0]
        0x00005ad2:    f1aa0101    ....    SUB      r1,r10,#1
        0x00005ad6:    5c51        Q\      LDRB     r1,[r2,r1]
        0x00005ad8:    2930        0)      CMP      r1,#0x30
        0x00005ada:    d008        ..      BEQ      0x5aee ; _printf_core + 1402
        0x00005adc:    42b8        .B      CMP      r0,r7
        0x00005ade:    da02        ..      BGE      0x5ae6 ; _printf_core + 1394
        0x00005ae0:    f1100f04    ....    CMN      r0,#4
        0x00005ae4:    da06        ..      BGE      0x5af4 ; _printf_core + 1408
        0x00005ae6:    2101        .!      MOVS     r1,#1
        0x00005ae8:    e9cd1001    ....    STRD     r1,r0,[sp,#4]
        0x00005aec:    e015        ..      B        0x5b1a ; _printf_core + 1446
        0x00005aee:    f1aa0101    ....    SUB      r1,r10,#1
        0x00005af2:    e7e9        ..      B        0x5ac8 ; _printf_core + 1364
        0x00005af4:    2800        .(      CMP      r0,#0
        0x00005af6:    dc05        ..      BGT      0x5b04 ; _printf_core + 1424
        0x00005af8:    9904        ..      LDR      r1,[sp,#0x10]
        0x00005afa:    4401        .D      ADD      r1,r1,r0
        0x00005afc:    9104        ..      STR      r1,[sp,#0x10]
        0x00005afe:    ebaa0100    ....    SUB      r1,r10,r0
        0x00005b02:    e002        ..      B        0x5b0a ; _printf_core + 1430
        0x00005b04:    1c41        A.      ADDS     r1,r0,#1
        0x00005b06:    4551        QE      CMP      r1,r10
        0x00005b08:    dd00        ..      BLE      0x5b0c ; _printf_core + 1432
        0x00005b0a:    468a        .F      MOV      r10,r1
        0x00005b0c:    9904        ..      LDR      r1,[sp,#0x10]
        0x00005b0e:    1a40        @.      SUBS     r0,r0,r1
        0x00005b10:    1c40        @.      ADDS     r0,r0,#1
        0x00005b12:    9001        ..      STR      r0,[sp,#4]
        0x00005b14:    f04f4000    O..@    MOV      r0,#0x80000000
        0x00005b18:    9002        ..      STR      r0,[sp,#8]
        0x00005b1a:    0720         .      LSLS     r0,r4,#28
        0x00005b1c:    d404        ..      BMI      0x5b28 ; _printf_core + 1460
        0x00005b1e:    9801        ..      LDR      r0,[sp,#4]
        0x00005b20:    4550        PE      CMP      r0,r10
        0x00005b22:    db01        ..      BLT      0x5b28 ; _printf_core + 1460
        0x00005b24:    f8cd8004    ....    STR      r8,[sp,#4]
        0x00005b28:    2000        .       MOVS     r0,#0
        0x00005b2a:    f88d004f    ..O.    STRB     r0,[sp,#0x4f]
        0x00005b2e:    9802        ..      LDR      r0,[sp,#8]
        0x00005b30:    f10d074f    ..O.    ADD      r7,sp,#0x4f
        0x00005b34:    f1b04f00    ...O    CMP      r0,#0x80000000
        0x00005b38:    d025        %.      BEQ      0x5b86 ; _printf_core + 1554
        0x00005b3a:    202b        +       MOVS     r0,#0x2b
        0x00005b3c:    900e        ..      STR      r0,[sp,#0x38]
        0x00005b3e:    9802        ..      LDR      r0,[sp,#8]
        0x00005b40:    f04f0802    O...    MOV      r8,#2
        0x00005b44:    2800        .(      CMP      r0,#0
        0x00005b46:    da0c        ..      BGE      0x5b62 ; _printf_core + 1518
        0x00005b48:    4240        @B      RSBS     r0,r0,#0
        0x00005b4a:    9002        ..      STR      r0,[sp,#8]
        0x00005b4c:    202d        -       MOVS     r0,#0x2d
        0x00005b4e:    900e        ..      STR      r0,[sp,#0x38]
        0x00005b50:    e007        ..      B        0x5b62 ; _printf_core + 1518
        0x00005b52:    210a        .!      MOVS     r1,#0xa
        0x00005b54:    9802        ..      LDR      r0,[sp,#8]
        0x00005b56:    f7fafefb    ....    BL       __aeabi_uidiv ; 0x950
        0x00005b5a:    3130        01      ADDS     r1,r1,#0x30
        0x00005b5c:    9002        ..      STR      r0,[sp,#8]
        0x00005b5e:    f8071d01    ....    STRB     r1,[r7,#-1]!
        0x00005b62:    f1b80100    ....    SUBS     r1,r8,#0
        0x00005b66:    f1a80801    ....    SUB      r8,r8,#1
        0x00005b6a:    dcf2        ..      BGT      0x5b52 ; _printf_core + 1502
        0x00005b6c:    9802        ..      LDR      r0,[sp,#8]
        0x00005b6e:    2800        .(      CMP      r0,#0
        0x00005b70:    d1ef        ..      BNE      0x5b52 ; _printf_core + 1502
        0x00005b72:    1e79        y.      SUBS     r1,r7,#1
        0x00005b74:    980e        ..      LDR      r0,[sp,#0x38]
        0x00005b76:    7008        .p      STRB     r0,[r1,#0]
        0x00005b78:    7830        0x      LDRB     r0,[r6,#0]
        0x00005b7a:    f0000020    .. .    AND      r0,r0,#0x20
        0x00005b7e:    f0400045    @.E.    ORR      r0,r0,#0x45
        0x00005b82:    f8070d02    ....    STRB     r0,[r7,#-2]!
        0x00005b86:    a812        ..      ADD      r0,sp,#0x48
        0x00005b88:    1bc0        ..      SUBS     r0,r0,r7
        0x00005b8a:    f1000807    ....    ADD      r8,r0,#7
        0x00005b8e:    9814        ..      LDR      r0,[sp,#0x50]
        0x00005b90:    7800        .x      LDRB     r0,[r0,#0]
        0x00005b92:    b100        ..      CBZ      r0,0x5b96 ; _printf_core + 1570
        0x00005b94:    2001        .       MOVS     r0,#1
        0x00005b96:    eb00010a    ....    ADD      r1,r0,r10
        0x00005b9a:    9801        ..      LDR      r0,[sp,#4]
        0x00005b9c:    eb0171e0    ...q    ADD      r1,r1,r0,ASR #31
        0x00005ba0:    9805        ..      LDR      r0,[sp,#0x14]
        0x00005ba2:    4441        AD      ADD      r1,r1,r8
        0x00005ba4:    1a40        @.      SUBS     r0,r0,r1
        0x00005ba6:    1e40        @.      SUBS     r0,r0,#1
        0x00005ba8:    9005        ..      STR      r0,[sp,#0x14]
        0x00005baa:    03e0        ..      LSLS     r0,r4,#15
        0x00005bac:    d406        ..      BMI      0x5bbc ; _printf_core + 1608
        0x00005bae:    465b        [F      MOV      r3,r11
        0x00005bb0:    4621        !F      MOV      r1,r4
        0x00005bb2:    9a17        ..      LDR      r2,[sp,#0x5c]
        0x00005bb4:    9805        ..      LDR      r0,[sp,#0x14]
        0x00005bb6:    f000f85d    ..].    BL       _printf_pre_padding ; 0x5c74
        0x00005bba:    4405        .D      ADD      r5,r5,r0
        0x00005bbc:    9814        ..      LDR      r0,[sp,#0x50]
        0x00005bbe:    7800        .x      LDRB     r0,[r0,#0]
        0x00005bc0:    b118        ..      CBZ      r0,0x5bca ; _printf_core + 1622
        0x00005bc2:    465a        ZF      MOV      r2,r11
        0x00005bc4:    9917        ..      LDR      r1,[sp,#0x5c]
        0x00005bc6:    4790        .G      BLX      r2
        0x00005bc8:    1c6d        m.      ADDS     r5,r5,#1
        0x00005bca:    03e0        ..      LSLS     r0,r4,#15
        0x00005bcc:    d524        $.      BPL      0x5c18 ; _printf_core + 1700
        0x00005bce:    465b        [F      MOV      r3,r11
        0x00005bd0:    4621        !F      MOV      r1,r4
        0x00005bd2:    9a17        ..      LDR      r2,[sp,#0x5c]
        0x00005bd4:    9805        ..      LDR      r0,[sp,#0x14]
        0x00005bd6:    f000f84d    ..M.    BL       _printf_pre_padding ; 0x5c74
        0x00005bda:    4405        .D      ADD      r5,r5,r0
        0x00005bdc:    e01c        ..      B        0x5c18 ; _printf_core + 1700
        0x00005bde:    9804        ..      LDR      r0,[sp,#0x10]
        0x00005be0:    2800        .(      CMP      r0,#0
        0x00005be2:    db07        ..      BLT      0x5bf4 ; _printf_core + 1664
        0x00005be4:    e9dd0103    ....    LDRD     r0,r1,[sp,#0xc]
        0x00005be8:    4288        .B      CMP      r0,r1
        0x00005bea:    dd03        ..      BLE      0x5bf4 ; _printf_core + 1664
        0x00005bec:    9800        ..      LDR      r0,[sp,#0]
        0x00005bee:    5c40        @\      LDRB     r0,[r0,r1]
        0x00005bf0:    9917        ..      LDR      r1,[sp,#0x5c]
        0x00005bf2:    e001        ..      B        0x5bf8 ; _printf_core + 1668
        0x00005bf4:    9917        ..      LDR      r1,[sp,#0x5c]
        0x00005bf6:    2030        0       MOVS     r0,#0x30
        0x00005bf8:    465a        ZF      MOV      r2,r11
        0x00005bfa:    4790        .G      BLX      r2
        0x00005bfc:    9804        ..      LDR      r0,[sp,#0x10]
        0x00005bfe:    f1050501    ....    ADD      r5,r5,#1
        0x00005c02:    1c40        @.      ADDS     r0,r0,#1
        0x00005c04:    9004        ..      STR      r0,[sp,#0x10]
        0x00005c06:    9801        ..      LDR      r0,[sp,#4]
        0x00005c08:    1e40        @.      SUBS     r0,r0,#1
        0x00005c0a:    9001        ..      STR      r0,[sp,#4]
        0x00005c0c:    d104        ..      BNE      0x5c18 ; _printf_core + 1700
        0x00005c0e:    202e        .       MOVS     r0,#0x2e
        0x00005c10:    465a        ZF      MOV      r2,r11
        0x00005c12:    9917        ..      LDR      r1,[sp,#0x5c]
        0x00005c14:    4790        .G      BLX      r2
        0x00005c16:    1c6d        m.      ADDS     r5,r5,#1
        0x00005c18:    f1ba0100    ....    SUBS     r1,r10,#0
        0x00005c1c:    f1aa0a01    ....    SUB      r10,r10,#1
        0x00005c20:    dcdd        ..      BGT      0x5bde ; _printf_core + 1642
        0x00005c22:    e005        ..      B        0x5c30 ; _printf_core + 1724
        0x00005c24:    f8170b01    ....    LDRB     r0,[r7],#1
        0x00005c28:    465a        ZF      MOV      r2,r11
        0x00005c2a:    9917        ..      LDR      r1,[sp,#0x5c]
        0x00005c2c:    4790        .G      BLX      r2
        0x00005c2e:    1c6d        m.      ADDS     r5,r5,#1
        0x00005c30:    f1b80100    ....    SUBS     r1,r8,#0
        0x00005c34:    f1a80801    ....    SUB      r8,r8,#1
        0x00005c38:    dcf4        ..      BGT      0x5c24 ; _printf_core + 1712
        0x00005c3a:    465b        [F      MOV      r3,r11
        0x00005c3c:    4621        !F      MOV      r1,r4
        0x00005c3e:    9a17        ..      LDR      r2,[sp,#0x5c]
        0x00005c40:    9805        ..      LDR      r0,[sp,#0x14]
        0x00005c42:    e6ab        ..      B        0x599c ; _printf_core + 1064
    $d
        0x00005c44:    0000002d    -...    DCD    45
        0x00005c48:    0000002b    +...    DCD    43
        0x00005c4c:    00000020     ...    DCD    32
    $t
    i._printf_post_padding
    _printf_post_padding
        0x00005c50:    e92d41f0    -..A    PUSH     {r4-r8,lr}
        0x00005c54:    4604        .F      MOV      r4,r0
        0x00005c56:    2500        .%      MOVS     r5,#0
        0x00005c58:    461e        .F      MOV      r6,r3
        0x00005c5a:    4617        .F      MOV      r7,r2
        0x00005c5c:    0488        ..      LSLS     r0,r1,#18
        0x00005c5e:    d404        ..      BMI      0x5c6a ; _printf_post_padding + 26
        0x00005c60:    e005        ..      B        0x5c6e ; _printf_post_padding + 30
        0x00005c62:    4639        9F      MOV      r1,r7
        0x00005c64:    2020                MOVS     r0,#0x20
        0x00005c66:    47b0        .G      BLX      r6
        0x00005c68:    1c6d        m.      ADDS     r5,r5,#1
        0x00005c6a:    1e64        d.      SUBS     r4,r4,#1
        0x00005c6c:    d5f9        ..      BPL      0x5c62 ; _printf_post_padding + 18
        0x00005c6e:    4628        (F      MOV      r0,r5
        0x00005c70:    e8bd81f0    ....    POP      {r4-r8,pc}
    i._printf_pre_padding
    _printf_pre_padding
        0x00005c74:    e92d41f0    -..A    PUSH     {r4-r8,lr}
        0x00005c78:    4604        .F      MOV      r4,r0
        0x00005c7a:    2500        .%      MOVS     r5,#0
        0x00005c7c:    461e        .F      MOV      r6,r3
        0x00005c7e:    4690        .F      MOV      r8,r2
        0x00005c80:    03c8        ..      LSLS     r0,r1,#15
        0x00005c82:    d501        ..      BPL      0x5c88 ; _printf_pre_padding + 20
        0x00005c84:    2730        0'      MOVS     r7,#0x30
        0x00005c86:    e000        ..      B        0x5c8a ; _printf_pre_padding + 22
        0x00005c88:    2720         '      MOVS     r7,#0x20
        0x00005c8a:    0488        ..      LSLS     r0,r1,#18
        0x00005c8c:    d504        ..      BPL      0x5c98 ; _printf_pre_padding + 36
        0x00005c8e:    e005        ..      B        0x5c9c ; _printf_pre_padding + 40
        0x00005c90:    4641        AF      MOV      r1,r8
        0x00005c92:    4638        8F      MOV      r0,r7
        0x00005c94:    47b0        .G      BLX      r6
        0x00005c96:    1c6d        m.      ADDS     r5,r5,#1
        0x00005c98:    1e64        d.      SUBS     r4,r4,#1
        0x00005c9a:    d5f9        ..      BPL      0x5c90 ; _printf_pre_padding + 28
        0x00005c9c:    4628        (F      MOV      r0,r5
        0x00005c9e:    e8bd81f0    ....    POP      {r4-r8,pc}
    i._snputc
    _snputc
        0x00005ca2:    684a        Jh      LDR      r2,[r1,#4]
        0x00005ca4:    2a00        .*      CMP      r2,#0
        0x00005ca6:    d006        ..      BEQ      0x5cb6 ; _snputc + 20
        0x00005ca8:    680a        .h      LDR      r2,[r1,#0]
        0x00005caa:    1c53        S.      ADDS     r3,r2,#1
        0x00005cac:    600b        .`      STR      r3,[r1,#0]
        0x00005cae:    7010        .p      STRB     r0,[r2,#0]
        0x00005cb0:    6848        Hh      LDR      r0,[r1,#4]
        0x00005cb2:    1e40        @.      SUBS     r0,r0,#1
        0x00005cb4:    6048        H`      STR      r0,[r1,#4]
        0x00005cb6:    4770        pG      BX       lr
    i._sputc
    _sputc
        0x00005cb8:    680a        .h      LDR      r2,[r1,#0]
        0x00005cba:    1c53        S.      ADDS     r3,r2,#1
        0x00005cbc:    600b        .`      STR      r3,[r1,#0]
        0x00005cbe:    7010        .p      STRB     r0,[r2,#0]
        0x00005cc0:    4770        pG      BX       lr
        0x00005cc2:    0000        ..      MOVS     r0,r0
    i._trace_uart_receive_function
    _trace_uart_receive_function
        0x00005cc4:    b530        0.      PUSH     {r4,r5,lr}
        0x00005cc6:    4c17        .L      LDR      r4,[pc,#92] ; [0x5d24] = 0x40071000
        0x00005cc8:    69e0        .i      LDR      r0,[r4,#0x1c]
        0x00005cca:    05c0        ..      LSLS     r0,r0,#23
        0x00005ccc:    d528        (.      BPL      0x5d20 ; _trace_uart_receive_function + 92
        0x00005cce:    4a16        .J      LDR      r2,[pc,#88] ; [0x5d28] = 0x20000ef8
        0x00005cd0:    4916        .I      LDR      r1,[pc,#88] ; [0x5d2c] = 0x2000002c
        0x00005cd2:    2300        .#      MOVS     r3,#0
        0x00005cd4:    69e0        .i      LDR      r0,[r4,#0x1c]
        0x00005cd6:    07c0        ..      LSLS     r0,r0,#31
        0x00005cd8:    d022        ".      BEQ      0x5d20 ; _trace_uart_receive_function + 92
        0x00005cda:    6820         h      LDR      r0,[r4,#0]
        0x00005cdc:    b2c0        ..      UXTB     r0,r0
        0x00005cde:    7148        Hq      STRB     r0,[r1,#5]
        0x00005ce0:    2824        $(      CMP      r0,#0x24
        0x00005ce2:    d102        ..      BNE      0x5cea ; _trace_uart_receive_function + 38
        0x00005ce4:    62cb        .b      STR      r3,[r1,#0x2c]
        0x00005ce6:    6acd        .j      LDR      r5,[r1,#0x2c]
        0x00005ce8:    b17d        }.      CBZ      r5,0x5d0a ; _trace_uart_receive_function + 70
        0x00005cea:    6acd        .j      LDR      r5,[r1,#0x2c]
        0x00005cec:    b19d        ..      CBZ      r5,0x5d16 ; _trace_uart_receive_function + 82
        0x00005cee:    6acd        .j      LDR      r5,[r1,#0x2c]
        0x00005cf0:    5550        PU      STRB     r0,[r2,r5]
        0x00005cf2:    6acd        .j      LDR      r5,[r1,#0x2c]
        0x00005cf4:    1c6d        m.      ADDS     r5,r5,#1
        0x00005cf6:    62cd        .b      STR      r5,[r1,#0x2c]
        0x00005cf8:    6acd        .j      LDR      r5,[r1,#0x2c]
        0x00005cfa:    5553        SU      STRB     r3,[r2,r5]
        0x00005cfc:    280a        .(      CMP      r0,#0xa
        0x00005cfe:    d001        ..      BEQ      0x5d04 ; _trace_uart_receive_function + 64
        0x00005d00:    280d        .(      CMP      r0,#0xd
        0x00005d02:    d1e7        ..      BNE      0x5cd4 ; _trace_uart_receive_function + 16
        0x00005d04:    2001        .       MOVS     r0,#1
        0x00005d06:    7048        Hp      STRB     r0,[r1,#1]
        0x00005d08:    bd30        0.      POP      {r4,r5,pc}
        0x00005d0a:    6acd        .j      LDR      r5,[r1,#0x2c]
        0x00005d0c:    5550        PU      STRB     r0,[r2,r5]
        0x00005d0e:    6ac8        .j      LDR      r0,[r1,#0x2c]
        0x00005d10:    1c40        @.      ADDS     r0,r0,#1
        0x00005d12:    62c8        .b      STR      r0,[r1,#0x2c]
        0x00005d14:    e7de        ..      B        0x5cd4 ; _trace_uart_receive_function + 16
        0x00005d16:    7888        .x      LDRB     r0,[r1,#2]
        0x00005d18:    1c45        E.      ADDS     r5,r0,#1
        0x00005d1a:    708d        .p      STRB     r5,[r1,#2]
        0x00005d1c:    280a        .(      CMP      r0,#0xa
        0x00005d1e:    d9d9        ..      BLS      0x5cd4 ; _trace_uart_receive_function + 16
        0x00005d20:    2000        .       MOVS     r0,#0
        0x00005d22:    bd30        0.      POP      {r4,r5,pc}
    $d
        0x00005d24:    40071000    ...@    DCD    1074204672
        0x00005d28:    20000ef8    ...     DCD    536874744
        0x00005d2c:    2000002c    ,..     DCD    536870956
    $t
    i.buffer_memsets
    buffer_memsets
        0x00005d30:    b510        ..      PUSH     {r4,lr}
        0x00005d32:    f240444c    @.LD    MOV      r4,#0x44c
        0x00005d36:    4621        !F      MOV      r1,r4
        0x00005d38:    4834        4H      LDR      r0,[pc,#208] ; [0x5e0c] = 0x200001af
        0x00005d3a:    f7fafacd    ....    BL       __aeabi_memclr ; 0x2d8
        0x00005d3e:    4621        !F      MOV      r1,r4
        0x00005d40:    4833        3H      LDR      r0,[pc,#204] ; [0x5e10] = 0x200005fb
        0x00005d42:    f7fafac9    ....    BL       __aeabi_memclr ; 0x2d8
        0x00005d46:    4832        2H      LDR      r0,[pc,#200] ; [0x5e10] = 0x200005fb
        0x00005d48:    2164        d!      MOVS     r1,#0x64
        0x00005d4a:    300a        .0      ADDS     r0,r0,#0xa
        0x00005d4c:    f7fafac4    ....    BL       __aeabi_memclr ; 0x2d8
        0x00005d50:    482f        /H      LDR      r0,[pc,#188] ; [0x5e10] = 0x200005fb
        0x00005d52:    2132        2!      MOVS     r1,#0x32
        0x00005d54:    306e        n0      ADDS     r0,r0,#0x6e
        0x00005d56:    f7fafabf    ....    BL       __aeabi_memclr ; 0x2d8
        0x00005d5a:    482d        -H      LDR      r0,[pc,#180] ; [0x5e10] = 0x200005fb
        0x00005d5c:    f44f71fa    O..q    MOV      r1,#0x1f4
        0x00005d60:    30a0        .0      ADDS     r0,r0,#0xa0
        0x00005d62:    f7fafab9    ....    BL       __aeabi_memclr ; 0x2d8
        0x00005d66:    21c8        .!      MOVS     r1,#0xc8
        0x00005d68:    482a        *H      LDR      r0,[pc,#168] ; [0x5e14] = 0x2000088f
        0x00005d6a:    f7fafab5    ....    BL       __aeabi_memclr ; 0x2d8
        0x00005d6e:    4829        )H      LDR      r0,[pc,#164] ; [0x5e14] = 0x2000088f
        0x00005d70:    f2401177    @.w.    MOV      r1,#0x177
        0x00005d74:    30c8        .0      ADDS     r0,r0,#0xc8
        0x00005d76:    f7fafaaf    ....    BL       __aeabi_memclr ; 0x2d8
        0x00005d7a:    21f0        .!      MOVS     r1,#0xf0
        0x00005d7c:    4826        &H      LDR      r0,[pc,#152] ; [0x5e18] = 0x20000ace
        0x00005d7e:    f7fafaab    ....    BL       __aeabi_memclr ; 0x2d8
        0x00005d82:    21f0        .!      MOVS     r1,#0xf0
        0x00005d84:    4824        $H      LDR      r0,[pc,#144] ; [0x5e18] = 0x20000ace
        0x00005d86:    f7fafaa7    ....    BL       __aeabi_memclr ; 0x2d8
        0x00005d8a:    2114        .!      MOVS     r1,#0x14
        0x00005d8c:    4823        #H      LDR      r0,[pc,#140] ; [0x5e1c] = 0x20000bd2
        0x00005d8e:    f7fafaa3    ....    BL       __aeabi_memclr ; 0x2d8
        0x00005d92:    481e        .H      LDR      r0,[pc,#120] ; [0x5e0c] = 0x200001af
        0x00005d94:    2100        .!      MOVS     r1,#0
        0x00005d96:    380b        .8      SUBS     r0,r0,#0xb
        0x00005d98:    f64034b8    @..4    MOV      r4,#0xbb8
        0x00005d9c:    6001        .`      STR      r1,[r0,#0]
        0x00005d9e:    7101        .q      STRB     r1,[r0,#4]
        0x00005da0:    4621        !F      MOV      r1,r4
        0x00005da2:    481f        .H      LDR      r0,[pc,#124] ; [0x5e20] = 0x20002e99
        0x00005da4:    f7fafa98    ....    BL       __aeabi_memclr ; 0x2d8
        0x00005da8:    4621        !F      MOV      r1,r4
        0x00005daa:    481e        .H      LDR      r0,[pc,#120] ; [0x5e24] = 0x20003a51
        0x00005dac:    f7fafa94    ....    BL       __aeabi_memclr ; 0x2d8
        0x00005db0:    210f        .!      MOVS     r1,#0xf
        0x00005db2:    481d        .H      LDR      r0,[pc,#116] ; [0x5e28] = 0x20001178
        0x00005db4:    f7fafa90    ....    BL       __aeabi_memclr ; 0x2d8
        0x00005db8:    481b        .H      LDR      r0,[pc,#108] ; [0x5e28] = 0x20001178
        0x00005dba:    2120         !      MOVS     r1,#0x20
        0x00005dbc:    3820         8      SUBS     r0,r0,#0x20
        0x00005dbe:    f7fafa8b    ....    BL       __aeabi_memclr ; 0x2d8
        0x00005dc2:    4819        .H      LDR      r0,[pc,#100] ; [0x5e28] = 0x20001178
        0x00005dc4:    f44f6180    O..a    MOV      r1,#0x400
        0x00005dc8:    3023        #0      ADDS     r0,r0,#0x23
        0x00005dca:    f7fafa85    ....    BL       __aeabi_memclr ; 0x2d8
        0x00005dce:    2196        .!      MOVS     r1,#0x96
        0x00005dd0:    4816        .H      LDR      r0,[pc,#88] ; [0x5e2c] = 0x20000ce0
        0x00005dd2:    f7fafa81    ....    BL       __aeabi_memclr ; 0x2d8
        0x00005dd6:    4811        .H      LDR      r0,[pc,#68] ; [0x5e1c] = 0x20000bd2
        0x00005dd8:    21c8        .!      MOVS     r1,#0xc8
        0x00005dda:    3046        F0      ADDS     r0,r0,#0x46
        0x00005ddc:    f7fafa7c    ..|.    BL       __aeabi_memclr ; 0x2d8
        0x00005de0:    4811        .H      LDR      r0,[pc,#68] ; [0x5e28] = 0x20001178
        0x00005de2:    2114        .!      MOVS     r1,#0x14
        0x00005de4:    300f        .0      ADDS     r0,r0,#0xf
        0x00005de6:    f7fafa77    ..w.    BL       __aeabi_memclr ; 0x2d8
        0x00005dea:    4810        .H      LDR      r0,[pc,#64] ; [0x5e2c] = 0x20000ce0
        0x00005dec:    f44f71af    O..q    MOV      r1,#0x15e
        0x00005df0:    3096        .0      ADDS     r0,r0,#0x96
        0x00005df2:    f7fafa71    ..q.    BL       __aeabi_memclr ; 0x2d8
        0x00005df6:    21c8        .!      MOVS     r1,#0xc8
        0x00005df8:    480d        .H      LDR      r0,[pc,#52] ; [0x5e30] = 0x20004609
        0x00005dfa:    f7fafa6d    ..m.    BL       __aeabi_memclr ; 0x2d8
        0x00005dfe:    480c        .H      LDR      r0,[pc,#48] ; [0x5e30] = 0x20004609
        0x00005e00:    21a0        .!      MOVS     r1,#0xa0
        0x00005e02:    e8bd4010    ...@    POP      {r4,lr}
        0x00005e06:    30cb        .0      ADDS     r0,r0,#0xcb
        0x00005e08:    f7faba66    ..f.    B        __aeabi_memclr ; 0x2d8
    $d
        0x00005e0c:    200001af    ...     DCD    536871343
        0x00005e10:    200005fb    ...     DCD    536872443
        0x00005e14:    2000088f    ...     DCD    536873103
        0x00005e18:    20000ace    ...     DCD    536873678
        0x00005e1c:    20000bd2    ...     DCD    536873938
        0x00005e20:    20002e99    ...     DCD    536882841
        0x00005e24:    20003a51    Q:.     DCD    536885841
        0x00005e28:    20001178    x..     DCD    536875384
        0x00005e2c:    20000ce0    ...     DCD    536874208
        0x00005e30:    20004609    .F.     DCD    536888841
    $t
    i.crc8
    crc8
        0x00005e34:    b570        p.      PUSH     {r4-r6,lr}
        0x00005e36:    4605        .F      MOV      r5,r0
        0x00005e38:    2000        .       MOVS     r0,#0
        0x00005e3a:    4603        .F      MOV      r3,r0
        0x00005e3c:    2407        .$      MOVS     r4,#7
        0x00005e3e:    e00e        ..      B        0x5e5e ; crc8 + 42
        0x00005e40:    5cea        .\      LDRB     r2,[r5,r3]
        0x00005e42:    4050        P@      EORS     r0,r0,r2
        0x00005e44:    2200        ."      MOVS     r2,#0
        0x00005e46:    0606        ..      LSLS     r6,r0,#24
        0x00005e48:    d502        ..      BPL      0x5e50 ; crc8 + 28
        0x00005e4a:    ea840040    ..@.    EOR      r0,r4,r0,LSL #1
        0x00005e4e:    e000        ..      B        0x5e52 ; crc8 + 30
        0x00005e50:    0040        @.      LSLS     r0,r0,#1
        0x00005e52:    1c52        R.      ADDS     r2,r2,#1
        0x00005e54:    b2d2        ..      UXTB     r2,r2
        0x00005e56:    b2c0        ..      UXTB     r0,r0
        0x00005e58:    2a08        .*      CMP      r2,#8
        0x00005e5a:    d3f4        ..      BCC      0x5e46 ; crc8 + 18
        0x00005e5c:    1c5b        [.      ADDS     r3,r3,#1
        0x00005e5e:    428b        .B      CMP      r3,r1
        0x00005e60:    d3ee        ..      BCC      0x5e40 ; crc8 + 12
        0x00005e62:    bd70        p.      POP      {r4-r6,pc}
    i.debug
    debug
        0x00005e64:    e92d41f0    -..A    PUSH     {r4-r8,lr}
        0x00005e68:    460d        .F      MOV      r5,r1
        0x00005e6a:    4607        .F      MOV      r7,r0
        0x00005e6c:    2400        .$      MOVS     r4,#0
        0x00005e6e:    4e08        .N      LDR      r6,[pc,#32] ; [0x5e90] = 0x40071000
        0x00005e70:    f44f78fa    O..x    MOV      r8,#0x1f4
        0x00005e74:    e005        ..      B        0x5e82 ; debug + 30
        0x00005e76:    5d38        8]      LDRB     r0,[r7,r4]
        0x00005e78:    6030        0`      STR      r0,[r6,#0]
        0x00005e7a:    4640        @F      MOV      r0,r8
        0x00005e7c:    1c64        d.      ADDS     r4,r4,#1
        0x00005e7e:    f000f809    ....    BL       delaym ; 0x5e94
        0x00005e82:    1e6d        m.      SUBS     r5,r5,#1
        0x00005e84:    d2f7        ..      BCS      0x5e76 ; debug + 18
        0x00005e86:    200a        .       MOVS     r0,#0xa
        0x00005e88:    6030        0`      STR      r0,[r6,#0]
        0x00005e8a:    e8bd81f0    ....    POP      {r4-r8,pc}
    $d
        0x00005e8e:    0000        ..      DCW    0
        0x00005e90:    40071000    ...@    DCD    1074204672
    $t
    i.delaym
    delaym
        0x00005e94:    2200        ."      MOVS     r2,#0
        0x00005e96:    2100        .!      MOVS     r1,#0
        0x00005e98:    e000        ..      B        0x5e9c ; delaym + 8
        0x00005e9a:    1c49        I.      ADDS     r1,r1,#1
        0x00005e9c:    4281        .B      CMP      r1,r0
        0x00005e9e:    d9fc        ..      BLS      0x5e9a ; delaym + 6
        0x00005ea0:    1c52        R.      ADDS     r2,r2,#1
        0x00005ea2:    2a0a        .*      CMP      r2,#0xa
        0x00005ea4:    d9f7        ..      BLS      0x5e96 ; delaym + 2
        0x00005ea6:    4770        pG      BX       lr
    i.fputc
    fputc
        0x00005ea8:    b510        ..      PUSH     {r4,lr}
        0x00005eaa:    4604        .F      MOV      r4,r0
        0x00005eac:    f7fefc18    ....    BL       SendChar ; 0x46e0
        0x00005eb0:    4620         F      MOV      r0,r4
        0x00005eb2:    bd10        ..      POP      {r4,pc}
    i.isDtValidLength
    isDtValidLength
        0x00005eb4:    b510        ..      PUSH     {r4,lr}
        0x00005eb6:    f7fafa38    ..8.    BL       strlen ; 0x32a
        0x00005eba:    2811        .(      CMP      r0,#0x11
        0x00005ebc:    d001        ..      BEQ      0x5ec2 ; isDtValidLength + 14
        0x00005ebe:    2000        .       MOVS     r0,#0
        0x00005ec0:    bd10        ..      POP      {r4,pc}
        0x00005ec2:    2001        .       MOVS     r0,#1
        0x00005ec4:    bd10        ..      POP      {r4,pc}
    i.isValidCyclicTimerFormat
    isValidCyclicTimerFormat
        0x00005ec6:    b570        p.      PUSH     {r4-r6,lr}
        0x00005ec8:    4605        .F      MOV      r5,r0
        0x00005eca:    2400        .$      MOVS     r4,#0
        0x00005ecc:    f7fafa2d    ..-.    BL       strlen ; 0x32a
        0x00005ed0:    2804        .(      CMP      r0,#4
        0x00005ed2:    d106        ..      BNE      0x5ee2 ; isValidCyclicTimerFormat + 28
        0x00005ed4:    f7faf9da    ....    BL       __rt_ctype_table ; 0x28c
        0x00005ed8:    6801        .h      LDR      r1,[r0,#0]
        0x00005eda:    5d28        (]      LDRB     r0,[r5,r4]
        0x00005edc:    5c08        .\      LDRB     r0,[r1,r0]
        0x00005ede:    2820         (      CMP      r0,#0x20
        0x00005ee0:    d001        ..      BEQ      0x5ee6 ; isValidCyclicTimerFormat + 32
        0x00005ee2:    2000        .       MOVS     r0,#0
        0x00005ee4:    bd70        p.      POP      {r4-r6,pc}
        0x00005ee6:    1c64        d.      ADDS     r4,r4,#1
        0x00005ee8:    2c04        .,      CMP      r4,#4
        0x00005eea:    dbf6        ..      BLT      0x5eda ; isValidCyclicTimerFormat + 20
        0x00005eec:    2001        .       MOVS     r0,#1
        0x00005eee:    bd70        p.      POP      {r4-r6,pc}
    i.isValidDRTFormat
    isValidDRTFormat
        0x00005ef0:    b570        p.      PUSH     {r4-r6,lr}
        0x00005ef2:    4605        .F      MOV      r5,r0
        0x00005ef4:    f7fafa19    ....    BL       strlen ; 0x32a
        0x00005ef8:    280f        .(      CMP      r0,#0xf
        0x00005efa:    d107        ..      BNE      0x5f0c ; isValidDRTFormat + 28
        0x00005efc:    2409        .$      MOVS     r4,#9
        0x00005efe:    f7faf9c5    ....    BL       __rt_ctype_table ; 0x28c
        0x00005f02:    6801        .h      LDR      r1,[r0,#0]
        0x00005f04:    5d28        (]      LDRB     r0,[r5,r4]
        0x00005f06:    5c08        .\      LDRB     r0,[r1,r0]
        0x00005f08:    2820         (      CMP      r0,#0x20
        0x00005f0a:    d001        ..      BEQ      0x5f10 ; isValidDRTFormat + 32
        0x00005f0c:    2000        .       MOVS     r0,#0
        0x00005f0e:    bd70        p.      POP      {r4-r6,pc}
        0x00005f10:    1c64        d.      ADDS     r4,r4,#1
        0x00005f12:    2c0f        .,      CMP      r4,#0xf
        0x00005f14:    ddf6        ..      BLE      0x5f04 ; isValidDRTFormat + 20
        0x00005f16:    2001        .       MOVS     r0,#1
        0x00005f18:    bd70        p.      POP      {r4-r6,pc}
        0x00005f1a:    0000        ..      MOVS     r0,r0
    i.lcd_clear
    lcd_clear
        0x00005f1c:    490a        .I      LDR      r1,[pc,#40] ; [0x5f48] = 0x4000487c
        0x00005f1e:    b500        ..      PUSH     {lr}
        0x00005f20:    2000        .       MOVS     r0,#0
        0x00005f22:    6008        .`      STR      r0,[r1,#0]
        0x00005f24:    2002        .       MOVS     r0,#2
        0x00005f26:    f7ffffb5    ....    BL       delaym ; 0x5e94
        0x00005f2a:    2000        .       MOVS     r0,#0
        0x00005f2c:    f000f8a4    ....    BL       lcd_write ; 0x6078
        0x00005f30:    2064        d       MOVS     r0,#0x64
        0x00005f32:    f7ffffaf    ....    BL       delaym ; 0x5e94
        0x00005f36:    2001        .       MOVS     r0,#1
        0x00005f38:    f000f89e    ....    BL       lcd_write ; 0x6078
        0x00005f3c:    2064        d       MOVS     r0,#0x64
        0x00005f3e:    f85deb04    ]...    POP      {lr}
        0x00005f42:    f7ffbfa7    ....    B.W      delaym ; 0x5e94
    $d
        0x00005f46:    0000        ..      DCW    0
        0x00005f48:    4000487c    |H.@    DCD    1073760380
    $t
    i.lcd_goto
    lcd_goto
        0x00005f4c:    b510        ..      PUSH     {r4,lr}
        0x00005f4e:    460c        .F      MOV      r4,r1
        0x00005f50:    490c        .I      LDR      r1,[pc,#48] ; [0x5f84] = 0x4000487c
        0x00005f52:    4603        .F      MOV      r3,r0
        0x00005f54:    2000        .       MOVS     r0,#0
        0x00005f56:    6008        .`      STR      r0,[r1,#0]
        0x00005f58:    2064        d       MOVS     r0,#0x64
        0x00005f5a:    f7ffff9b    ....    BL       delaym ; 0x5e94
        0x00005f5e:    2b01        .+      CMP      r3,#1
        0x00005f60:    d002        ..      BEQ      0x5f68 ; lcd_goto + 28
        0x00005f62:    2b02        .+      CMP      r3,#2
        0x00005f64:    d002        ..      BEQ      0x5f6c ; lcd_goto + 32
        0x00005f66:    e004        ..      B        0x5f72 ; lcd_goto + 38
        0x00005f68:    2008        .       MOVS     r0,#8
        0x00005f6a:    e000        ..      B        0x5f6e ; lcd_goto + 34
        0x00005f6c:    200c        .       MOVS     r0,#0xc
        0x00005f6e:    f000f883    ....    BL       lcd_write ; 0x6078
        0x00005f72:    4620         F      MOV      r0,r4
        0x00005f74:    f000f880    ....    BL       lcd_write ; 0x6078
        0x00005f78:    e8bd4010    ...@    POP      {r4,lr}
        0x00005f7c:    2064        d       MOVS     r0,#0x64
        0x00005f7e:    f7ffbf89    ....    B.W      delaym ; 0x5e94
    $d
        0x00005f82:    0000        ..      DCW    0
        0x00005f84:    4000487c    |H.@    DCD    1073760380
    $t
    i.lcd_init
    lcd_init
        0x00005f88:    4927        'I      LDR      r1,[pc,#156] ; [0x6028] = 0x40004878
        0x00005f8a:    b510        ..      PUSH     {r4,lr}
        0x00005f8c:    2000        .       MOVS     r0,#0
        0x00005f8e:    6008        .`      STR      r0,[r1,#0]
        0x00005f90:    1d0a        ..      ADDS     r2,r1,#4
        0x00005f92:    6010        .`      STR      r0,[r2,#0]
        0x00005f94:    4b24        $K      LDR      r3,[pc,#144] ; [0x6028] = 0x40004878
        0x00005f96:    3b0c        .;      SUBS     r3,r3,#0xc
        0x00005f98:    6018        .`      STR      r0,[r3,#0]
        0x00005f9a:    1f1b        ..      SUBS     r3,r3,#4
        0x00005f9c:    6018        .`      STR      r0,[r3,#0]
        0x00005f9e:    1f1b        ..      SUBS     r3,r3,#4
        0x00005fa0:    6018        .`      STR      r0,[r3,#0]
        0x00005fa2:    1f1b        ..      SUBS     r3,r3,#4
        0x00005fa4:    6018        .`      STR      r0,[r3,#0]
        0x00005fa6:    6010        .`      STR      r0,[r2,#0]
        0x00005fa8:    2001        .       MOVS     r0,#1
        0x00005faa:    6008        .`      STR      r0,[r1,#0]
        0x00005fac:    2064        d       MOVS     r0,#0x64
        0x00005fae:    f7ffff71    ..q.    BL       delaym ; 0x5e94
        0x00005fb2:    2003        .       MOVS     r0,#3
        0x00005fb4:    f000f860    ..`.    BL       lcd_write ; 0x6078
        0x00005fb8:    f44f7496    O..t    MOV      r4,#0x12c
        0x00005fbc:    4620         F      MOV      r0,r4
        0x00005fbe:    f7ffff69    ..i.    BL       delaym ; 0x5e94
        0x00005fc2:    2003        .       MOVS     r0,#3
        0x00005fc4:    f000f858    ..X.    BL       lcd_write ; 0x6078
        0x00005fc8:    4620         F      MOV      r0,r4
        0x00005fca:    f7ffff63    ..c.    BL       delaym ; 0x5e94
        0x00005fce:    2003        .       MOVS     r0,#3
        0x00005fd0:    f000f852    ..R.    BL       lcd_write ; 0x6078
        0x00005fd4:    4620         F      MOV      r0,r4
        0x00005fd6:    f7ffff5d    ..].    BL       delaym ; 0x5e94
        0x00005fda:    2002        .       MOVS     r0,#2
        0x00005fdc:    f000f84c    ..L.    BL       lcd_write ; 0x6078
        0x00005fe0:    2002        .       MOVS     r0,#2
        0x00005fe2:    f000f849    ..I.    BL       lcd_write ; 0x6078
        0x00005fe6:    2008        .       MOVS     r0,#8
        0x00005fe8:    f000f846    ..F.    BL       lcd_write ; 0x6078
        0x00005fec:    2000        .       MOVS     r0,#0
        0x00005fee:    f000f843    ..C.    BL       lcd_write ; 0x6078
        0x00005ff2:    2006        .       MOVS     r0,#6
        0x00005ff4:    f000f840    ..@.    BL       lcd_write ; 0x6078
        0x00005ff8:    2000        .       MOVS     r0,#0
        0x00005ffa:    f000f83d    ..=.    BL       lcd_write ; 0x6078
        0x00005ffe:    200e        .       MOVS     r0,#0xe
        0x00006000:    f000f83a    ..:.    BL       lcd_write ; 0x6078
        0x00006004:    2000        .       MOVS     r0,#0
        0x00006006:    f000f837    ..7.    BL       lcd_write ; 0x6078
        0x0000600a:    2001        .       MOVS     r0,#1
        0x0000600c:    f000f834    ..4.    BL       lcd_write ; 0x6078
        0x00006010:    200a        .       MOVS     r0,#0xa
        0x00006012:    f7ffff3f    ..?.    BL       delaym ; 0x5e94
        0x00006016:    2008        .       MOVS     r0,#8
        0x00006018:    f000f82e    ....    BL       lcd_write ; 0x6078
        0x0000601c:    e8bd4010    ...@    POP      {r4,lr}
        0x00006020:    2000        .       MOVS     r0,#0
        0x00006022:    f000b829    ..).    B.W      lcd_write ; 0x6078
    $d
        0x00006026:    0000        ..      DCW    0
        0x00006028:    40004878    xH.@    DCD    1073760376
    $t
    i.lcd_putch
    lcd_putch
        0x0000602c:    b530        0.      PUSH     {r4,r5,lr}
        0x0000602e:    490c        .I      LDR      r1,[pc,#48] ; [0x6060] = 0x4000487c
        0x00006030:    4604        .F      MOV      r4,r0
        0x00006032:    0903        ..      LSRS     r3,r0,#4
        0x00006034:    2001        .       MOVS     r0,#1
        0x00006036:    6008        .`      STR      r0,[r1,#0]
        0x00006038:    200a        .       MOVS     r0,#0xa
        0x0000603a:    f7ffff2b    ..+.    BL       delaym ; 0x5e94
        0x0000603e:    4618        .F      MOV      r0,r3
        0x00006040:    f000f81a    ....    BL       lcd_write ; 0x6078
        0x00006044:    f44f757a    O.zu    MOV      r5,#0x3e8
        0x00006048:    4628        (F      MOV      r0,r5
        0x0000604a:    f7ffff23    ..#.    BL       delaym ; 0x5e94
        0x0000604e:    4620         F      MOV      r0,r4
        0x00006050:    f000f812    ....    BL       lcd_write ; 0x6078
        0x00006054:    4628        (F      MOV      r0,r5
        0x00006056:    e8bd4030    ..0@    POP      {r4,r5,lr}
        0x0000605a:    f7ffbf1b    ....    B.W      delaym ; 0x5e94
    $d
        0x0000605e:    0000        ..      DCW    0
        0x00006060:    4000487c    |H.@    DCD    1073760380
    $t
    i.lcd_puts
    lcd_puts
        0x00006064:    b510        ..      PUSH     {r4,lr}
        0x00006066:    4604        .F      MOV      r4,r0
        0x00006068:    e002        ..      B        0x6070 ; lcd_puts + 12
        0x0000606a:    1c64        d.      ADDS     r4,r4,#1
        0x0000606c:    f7ffffde    ....    BL       lcd_putch ; 0x602c
        0x00006070:    7820         x      LDRB     r0,[r4,#0]
        0x00006072:    2800        .(      CMP      r0,#0
        0x00006074:    d1f9        ..      BNE      0x606a ; lcd_puts + 6
        0x00006076:    bd10        ..      POP      {r4,pc}
    i.lcd_write
    lcd_write
        0x00006078:    4a10        .J      LDR      r2,[pc,#64] ; [0x60bc] = 0x4000486c
        0x0000607a:    b510        ..      PUSH     {r4,lr}
        0x0000607c:    f0000101    ....    AND      r1,r0,#1
        0x00006080:    6011        .`      STR      r1,[r2,#0]
        0x00006082:    1f12        ..      SUBS     r2,r2,#4
        0x00006084:    f3c00140    ..@.    UBFX     r1,r0,#1,#1
        0x00006088:    6011        .`      STR      r1,[r2,#0]
        0x0000608a:    1f12        ..      SUBS     r2,r2,#4
        0x0000608c:    f3c00180    ....    UBFX     r1,r0,#2,#1
        0x00006090:    6011        .`      STR      r1,[r2,#0]
        0x00006092:    1f11        ..      SUBS     r1,r2,#4
        0x00006094:    f3c000c0    ....    UBFX     r0,r0,#3,#1
        0x00006098:    6008        .`      STR      r0,[r1,#0]
        0x0000609a:    4b08        .K      LDR      r3,[pc,#32] ; [0x60bc] = 0x4000486c
        0x0000609c:    2001        .       MOVS     r0,#1
        0x0000609e:    330c        .3      ADDS     r3,r3,#0xc
        0x000060a0:    6018        .`      STR      r0,[r3,#0]
        0x000060a2:    f44f747a    O.zt    MOV      r4,#0x3e8
        0x000060a6:    4620         F      MOV      r0,r4
        0x000060a8:    f7fffef4    ....    BL       delaym ; 0x5e94
        0x000060ac:    2100        .!      MOVS     r1,#0
        0x000060ae:    6019        .`      STR      r1,[r3,#0]
        0x000060b0:    4620         F      MOV      r0,r4
        0x000060b2:    e8bd4010    ...@    POP      {r4,lr}
        0x000060b6:    f7ffbeed    ....    B.W      delaym ; 0x5e94
    $d
        0x000060ba:    0000        ..      DCW    0
        0x000060bc:    4000486c    lH.@    DCD    1073760364
    $t
    i.main
    main
        0x000060c0:    b0fe        ..      SUB      sp,sp,#0x1f8
        0x000060c2:    2059        Y       MOVS     r0,#0x59
        0x000060c4:    0785        ..      LSLS     r5,r0,#30
        0x000060c6:    2116        .!      MOVS     r1,#0x16
        0x000060c8:    2288        ."      MOVS     r2,#0x88
        0x000060ca:    f8c50100    ....    STR      r0,[r5,#0x100]
        0x000060ce:    f8c51100    ....    STR      r1,[r5,#0x100]
        0x000060d2:    f8c52100    ...!    STR      r2,[r5,#0x100]
        0x000060d6:    f8d53100    ...1    LDR      r3,[r5,#0x100]
        0x000060da:    2b00        .+      CMP      r3,#0
        0x000060dc:    d0f5        ..      BEQ      0x60ca ; main + 10
        0x000060de:    f7fefa49    ..I.    BL       SYS_Init ; 0x4574
        0x000060e2:    2400        .$      MOVS     r4,#0
        0x000060e4:    f8c54100    ...A    STR      r4,[r5,#0x100]
        0x000060e8:    f7fefc70    ..p.    BL       UART0_Init ; 0x49cc
        0x000060ec:    f7fefc82    ....    BL       UART1_Init ; 0x49f4
        0x000060f0:    f7fefc94    ....    BL       UART2_Init ; 0x4a1c
        0x000060f4:    f7faff3a    ..:.    BL       ADC_Init ; 0xf6c
        0x000060f8:    f7fefc32    ..2.    BL       Timer_Init ; 0x4960
        0x000060fc:    f7fbfa06    ....    BL       Config_GPIOs ; 0x150c
        0x00006100:    f7fffe16    ....    BL       buffer_memsets ; 0x5d30
        0x00006104:    f7fbfcf6    ....    BL       LCD_pinConfig ; 0x1af4
        0x00006108:    f7ffff3e    ..>.    BL       lcd_init ; 0x5f88
        0x0000610c:    f7ffff06    ....    BL       lcd_clear ; 0x5f1c
        0x00006110:    4885        .H      LDR      r0,[pc,#532] ; [0x6328] = 0x40050000
        0x00006112:    6801        .h      LDR      r1,[r0,#0]
        0x00006114:    f0414180    A..A    ORR      r1,r1,#0x40000000
        0x00006118:    6001        .`      STR      r1,[r0,#0]
        0x0000611a:    4884        .H      LDR      r0,[pc,#528] ; [0x632c] = 0x40050100
        0x0000611c:    6801        .h      LDR      r1,[r0,#0]
        0x0000611e:    f0414180    A..A    ORR      r1,r1,#0x40000000
        0x00006122:    6001        .`      STR      r1,[r0,#0]
        0x00006124:    4882        .H      LDR      r0,[pc,#520] ; [0x6330] = 0x20000000
        0x00006126:    6801        .h      LDR      r1,[r0,#0]
        0x00006128:    a082        ..      ADR      r0,{pc}+0x20c ; 0x6334
        0x0000612a:    f7fbfa35    ..5.    BL       Debug ; 0x1598
        0x0000612e:    a188        ..      ADR      r1,{pc}+0x222 ; 0x6350
        0x00006130:    488a        .H      LDR      r0,[pc,#552] ; [0x635c] = 0x20001158
        0x00006132:    f7fff923    ..#.    BL       __0sprintf ; 0x537c
        0x00006136:    4889        .H      LDR      r0,[pc,#548] ; [0x635c] = 0x20001158
        0x00006138:    a189        ..      ADR      r1,{pc}+0x228 ; 0x6360
        0x0000613a:    3010        .0      ADDS     r0,r0,#0x10
        0x0000613c:    4606        .F      MOV      r6,r0
        0x0000613e:    f7fff91d    ....    BL       __0sprintf ; 0x537c
        0x00006142:    4886        .H      LDR      r0,[pc,#536] ; [0x635c] = 0x20001158
        0x00006144:    f000fbdd    ....    BL       print_lcd ; 0x6902
        0x00006148:    4d88        .M      LDR      r5,[pc,#544] ; [0x636c] = 0x6acfc0
        0x0000614a:    4628        (F      MOV      r0,r5
        0x0000614c:    f7fbf96e    ..n.    BL       CLK_SysTickLongDelay ; 0x142c
        0x00006150:    a287        ..      ADR      r2,{pc}+0x220 ; 0x6370
        0x00006152:    a189        ..      ADR      r1,{pc}+0x226 ; 0x6378
        0x00006154:    4881        .H      LDR      r0,[pc,#516] ; [0x635c] = 0x20001158
        0x00006156:    f7fff911    ....    BL       __0sprintf ; 0x537c
        0x0000615a:    a289        ..      ADR      r2,{pc}+0x226 ; 0x6380
        0x0000615c:    a18b        ..      ADR      r1,{pc}+0x230 ; 0x638c
        0x0000615e:    4630        0F      MOV      r0,r6
        0x00006160:    f7fff90c    ....    BL       __0sprintf ; 0x537c
        0x00006164:    487d        }H      LDR      r0,[pc,#500] ; [0x635c] = 0x20001158
        0x00006166:    f000fbcc    ....    BL       print_lcd ; 0x6902
        0x0000616a:    4628        (F      MOV      r0,r5
        0x0000616c:    f7fbf95e    ..^.    BL       CLK_SysTickLongDelay ; 0x142c
        0x00006170:    4887        .H      LDR      r0,[pc,#540] ; [0x6390] = 0x20000082
        0x00006172:    7004        .p      STRB     r4,[r0,#0]
        0x00006174:    f8dfa220    .. .    LDR      r10,[pc,#544] ; [0x6398] = 0x20000fe8
        0x00006178:    f8df9218    ....    LDR      r9,[pc,#536] ; [0x6394] = 0x200000da
        0x0000617c:    4d87        .M      LDR      r5,[pc,#540] ; [0x639c] = 0x2000002c
        0x0000617e:    f50a7bac    ...{    ADD      r11,r10,#0x158
        0x00006182:    78e8        .x      LDRB     r0,[r5,#3]
        0x00006184:    2801        .(      CMP      r0,#1
        0x00006186:    d007        ..      BEQ      0x6198 ; main + 216
        0x00006188:    7928        (y      LDRB     r0,[r5,#4]
        0x0000618a:    2801        .(      CMP      r0,#1
        0x0000618c:    d1f9        ..      BNE      0x6182 ; main + 194
        0x0000618e:    a084        ..      ADR      r0,{pc}+0x212 ; 0x63a0
        0x00006190:    f7fff8e4    ....    BL       __0printf ; 0x535c
        0x00006194:    712c        ,q      STRB     r4,[r5,#4]
        0x00006196:    e7f4        ..      B        0x6182 ; main + 194
        0x00006198:    a086        ..      ADR      r0,{pc}+0x21c ; 0x63b4
        0x0000619a:    f7fff8df    ....    BL       __0printf ; 0x535c
        0x0000619e:    f8df8228    ..(.    LDR      r8,[pc,#552] ; [0x63c8] = 0x20000091
        0x000061a2:    4e8a        .N      LDR      r6,[pc,#552] ; [0x63cc] = 0x200000d8
        0x000061a4:    2701        .'      MOVS     r7,#1
        0x000061a6:    f8887000    ...p    STRB     r7,[r8,#0]
        0x000061aa:    7830        0x      LDRB     r0,[r6,#0]
        0x000061ac:    b940        @.      CBNZ     r0,0x61c0 ; main + 256
        0x000061ae:    f7fdfb87    ....    BL       ReadSettingsFile ; 0x38c0
        0x000061b2:    f7fdfcb1    ....    BL       ReadTimerSettings ; 0x3b18
        0x000061b6:    7037        7p      STRB     r7,[r6,#0]
        0x000061b8:    f8980000    ....    LDRB     r0,[r8,#0]
        0x000061bc:    2801        .(      CMP      r0,#1
        0x000061be:    d173        s.      BNE      0x62a8 ; main + 488
        0x000061c0:    7830        0x      LDRB     r0,[r6,#0]
        0x000061c2:    284e        N(      CMP      r0,#0x4e
        0x000061c4:    d870        p.      BHI      0x62a8 ; main + 488
        0x000061c6:    46b0        .F      MOV      r8,r6
        0x000061c8:    2801        .(      CMP      r0,#1
        0x000061ca:    d002        ..      BEQ      0x61d2 ; main + 274
        0x000061cc:    2805        .(      CMP      r0,#5
        0x000061ce:    d06d        m.      BEQ      0x62ac ; main + 492
        0x000061d0:    e07c        |.      B        0x62cc ; main + 524
        0x000061d2:    4e7f        .N      LDR      r6,[pc,#508] ; [0x63d0] = 0x20000096
        0x000061d4:    7830        0x      LDRB     r0,[r6,#0]
        0x000061d6:    2801        .(      CMP      r0,#1
        0x000061d8:    d163        c.      BNE      0x62a2 ; main + 482
        0x000061da:    f7fdfb71    ..q.    BL       ReadSettingsFile ; 0x38c0
        0x000061de:    487d        }H      LDR      r0,[pc,#500] ; [0x63d4] = 0x200000d9
        0x000061e0:    7801        .x      LDRB     r1,[r0,#0]
        0x000061e2:    2901        .)      CMP      r1,#1
        0x000061e4:    d01e        ..      BEQ      0x6224 ; main + 356
        0x000061e6:    497c        |I      LDR      r1,[pc,#496] ; [0x63d8] = 0x2000010c
        0x000061e8:    2227        '"      MOVS     r2,#0x27
        0x000061ea:    600c        .`      STR      r4,[r1,#0]
        0x000061ec:    497b        {I      LDR      r1,[pc,#492] ; [0x63dc] = 0x200000c1
        0x000061ee:    700c        .p      STRB     r4,[r1,#0]
        0x000061f0:    497b        {I      LDR      r1,[pc,#492] ; [0x63e0] = 0x20000110
        0x000061f2:    600c        .`      STR      r4,[r1,#0]
        0x000061f4:    497b        {I      LDR      r1,[pc,#492] ; [0x63e4] = 0x2000159c
        0x000061f6:    f8c14090    ...@    STR      r4,[r1,#0x90]
        0x000061fa:    497b        {I      LDR      r1,[pc,#492] ; [0x63e8] = 0x2000007d
        0x000061fc:    700a        .p      STRB     r2,[r1,#0]
        0x000061fe:    497b        {I      LDR      r1,[pc,#492] ; [0x63ec] = 0x2000008c
        0x00006200:    4a7b        {J      LDR      r2,[pc,#492] ; [0x63f0] = 0x2000007b
        0x00006202:    700f        .p      STRB     r7,[r1,#0]
        0x00006204:    2120         !      MOVS     r1,#0x20
        0x00006206:    7011        .p      STRB     r1,[r2,#0]
        0x00006208:    497a        zI      LDR      r1,[pc,#488] ; [0x63f4] = 0x2000007c
        0x0000620a:    700c        .p      STRB     r4,[r1,#0]
        0x0000620c:    f8894000    ...@    STRB     r4,[r9,#0]
        0x00006210:    7004        .p      STRB     r4,[r0,#0]
        0x00006212:    4879        yH      LDR      r0,[pc,#484] ; [0x63f8] = 0x20000080
        0x00006214:    7004        .p      STRB     r4,[r0,#0]
        0x00006216:    4879        yH      LDR      r0,[pc,#484] ; [0x63fc] = 0x2000008b
        0x00006218:    7004        .p      STRB     r4,[r0,#0]
        0x0000621a:    f89b0004    ....    LDRB     r0,[r11,#4]
        0x0000621e:    2801        .(      CMP      r0,#1
        0x00006220:    d028        (.      BEQ      0x6274 ; main + 436
        0x00006222:    e029        ).      B        0x6278 ; main + 440
        0x00006224:    496d        mI      LDR      r1,[pc,#436] ; [0x63dc] = 0x200000c1
        0x00006226:    700c        .p      STRB     r4,[r1,#0]
        0x00006228:    496e        nI      LDR      r1,[pc,#440] ; [0x63e4] = 0x2000159c
        0x0000622a:    f8c14090    ...@    STR      r4,[r1,#0x90]
        0x0000622e:    f89a2022    .."     LDRB     r2,[r10,#0x22]
        0x00006232:    b1aa        ..      CBZ      r2,0x6260 ; main + 416
        0x00006234:    f8894000    ...@    STRB     r4,[r9,#0]
        0x00006238:    7004        .p      STRB     r4,[r0,#0]
        0x0000623a:    4871        qH      LDR      r0,[pc,#452] ; [0x6400] = 0x200000cc
        0x0000623c:    a171        q.      ADR      r1,{pc}+0x1c8 ; 0x6404
        0x0000623e:    7004        .p      STRB     r4,[r0,#0]
        0x00006240:    486e        nH      LDR      r0,[pc,#440] ; [0x63fc] = 0x2000008b
        0x00006242:    7004        .p      STRB     r4,[r0,#0]
        0x00006244:    4864        dH      LDR      r0,[pc,#400] ; [0x63d8] = 0x2000010c
        0x00006246:    6004        .`      STR      r4,[r0,#0]
        0x00006248:    4865        eH      LDR      r0,[pc,#404] ; [0x63e0] = 0x20000110
        0x0000624a:    6004        .`      STR      r4,[r0,#0]
        0x0000624c:    f88a400a    ...@    STRB     r4,[r10,#0xa]
        0x00006250:    486e        nH      LDR      r0,[pc,#440] ; [0x640c] = 0x2000088f
        0x00006252:    f7fff893    ....    BL       __0sprintf ; 0x537c
        0x00006256:    496d        mI      LDR      r1,[pc,#436] ; [0x640c] = 0x2000088f
        0x00006258:    486d        mH      LDR      r0,[pc,#436] ; [0x6410] = 0x20000bbe
        0x0000625a:    f7faf86d    ..m.    BL       strcpy ; 0x338
        0x0000625e:    e020         .      B        0x62a2 ; main + 482
        0x00006260:    f8897000    ...p    STRB     r7,[r9,#0]
        0x00006264:    7007        .p      STRB     r7,[r0,#0]
        0x00006266:    4860        `H      LDR      r0,[pc,#384] ; [0x63e8] = 0x2000007d
        0x00006268:    2224        $"      MOVS     r2,#0x24
        0x0000626a:    7002        .p      STRB     r2,[r0,#0]
        0x0000626c:    4861        aH      LDR      r0,[pc,#388] ; [0x63f4] = 0x2000007c
        0x0000626e:    220f        ."      MOVS     r2,#0xf
        0x00006270:    7002        .p      STRB     r2,[r0,#0]
        0x00006272:    e7e2        ..      B        0x623a ; main + 378
        0x00006274:    4867        gH      LDR      r0,[pc,#412] ; [0x6414] = 0x200000ca
        0x00006276:    7004        .p      STRB     r4,[r0,#0]
        0x00006278:    4867        gH      LDR      r0,[pc,#412] ; [0x6418] = 0x200000c9
        0x0000627a:    4657        WF      MOV      r7,r10
        0x0000627c:    a161        a.      ADR      r1,{pc}+0x188 ; 0x6404
        0x0000627e:    7004        .p      STRB     r4,[r0,#0]
        0x00006280:    4866        fH      LDR      r0,[pc,#408] ; [0x641c] = 0x20000081
        0x00006282:    7004        .p      STRB     r4,[r0,#0]
        0x00006284:    4866        fH      LDR      r0,[pc,#408] ; [0x6420] = 0x200000be
        0x00006286:    f88a400b    ...@    STRB     r4,[r10,#0xb]
        0x0000628a:    7004        .p      STRB     r4,[r0,#0]
        0x0000628c:    485f        _H      LDR      r0,[pc,#380] ; [0x640c] = 0x2000088f
        0x0000628e:    f7fff875    ..u.    BL       __0sprintf ; 0x537c
        0x00006292:    495e        ^I      LDR      r1,[pc,#376] ; [0x640c] = 0x2000088f
        0x00006294:    485e        ^H      LDR      r0,[pc,#376] ; [0x6410] = 0x20000bbe
        0x00006296:    f7faf84f    ..O.    BL       strcpy ; 0x338
        0x0000629a:    a062        b.      ADR      r0,{pc}+0x18a ; 0x6424
        0x0000629c:    f7fbf97c    ..|.    BL       Debug ; 0x1598
        0x000062a0:    72fc        .r      STRB     r4,[r7,#0xb]
        0x000062a2:    2002        .       MOVS     r0,#2
        0x000062a4:    7030        0p      STRB     r0,[r6,#0]
        0x000062a6:    e011        ..      B        0x62cc ; main + 524
        0x000062a8:    e019        ..      B        0x62de ; main + 542
        0x000062aa:    e7ff        ..      B        0x62ac ; main + 492
        0x000062ac:    f89b0012    ....    LDRB     r0,[r11,#0x12]
        0x000062b0:    465e        ^F      MOV      r6,r11
        0x000062b2:    b110        ..      CBZ      r0,0x62ba ; main + 506
        0x000062b4:    2801        .(      CMP      r0,#1
        0x000062b6:    d004        ..      BEQ      0x62c2 ; main + 514
        0x000062b8:    e008        ..      B        0x62cc ; main + 524
        0x000062ba:    f7fdfb01    ....    BL       ReadSettingsFile ; 0x38c0
        0x000062be:    7474        tt      STRB     r4,[r6,#0x11]
        0x000062c0:    e002        ..      B        0x62c8 ; main + 520
        0x000062c2:    f7fdfafd    ....    BL       ReadSettingsFile ; 0x38c0
        0x000062c6:    7477        wt      STRB     r7,[r6,#0x11]
        0x000062c8:    f7fefc8a    ....    BL       WriteSettingsFile ; 0x4be0
        0x000062cc:    f8981000    ....    LDRB     r1,[r8,#0]
        0x000062d0:    a058        X.      ADR      r0,{pc}+0x164 ; 0x6434
        0x000062d2:    1c49        I.      ADDS     r1,r1,#1
        0x000062d4:    b2c9        ..      UXTB     r1,r1
        0x000062d6:    f8881000    ....    STRB     r1,[r8,#0]
        0x000062da:    f7fbf95d    ..].    BL       Debug ; 0x1598
        0x000062de:    7828        (x      LDRB     r0,[r5,#0]
        0x000062e0:    2801        .(      CMP      r0,#1
        0x000062e2:    d119        ..      BNE      0x6318 ; main + 600
        0x000062e4:    f44f71fa    O..q    MOV      r1,#0x1f4
        0x000062e8:    4668        hF      MOV      r0,sp
        0x000062ea:    f7f9fff5    ....    BL       __aeabi_memclr ; 0x2d8
        0x000062ee:    482a        *H      LDR      r0,[pc,#168] ; [0x6398] = 0x20000fe8
        0x000062f0:    702c        ,p      STRB     r4,[r5,#0]
        0x000062f2:    38f0        .8      SUBS     r0,r0,#0xf0
        0x000062f4:    f7faf819    ....    BL       strlen ; 0x32a
        0x000062f8:    4927        'I      LDR      r1,[pc,#156] ; [0x6398] = 0x20000fe8
        0x000062fa:    1ec2        ..      SUBS     r2,r0,#3
        0x000062fc:    39ef        .9      SUBS     r1,r1,#0xef
        0x000062fe:    4668        hF      MOV      r0,sp
        0x00006300:    f7faf807    ....    BL       strncpy ; 0x312
        0x00006304:    4668        hF      MOV      r0,sp
        0x00006306:    f7faf810    ....    BL       strlen ; 0x32a
        0x0000630a:    4601        .F      MOV      r1,r0
        0x0000630c:    4668        hF      MOV      r0,sp
        0x0000630e:    f7fffd91    ....    BL       crc8 ; 0x5e34
        0x00006312:    71a8        .q      STRB     r0,[r5,#6]
        0x00006314:    f7fbfc1e    ....    BL       Process_Received_Settings ; 0x1b54
        0x00006318:    7868        hx      LDRB     r0,[r5,#1]
        0x0000631a:    2801        .(      CMP      r0,#1
        0x0000631c:    d102        ..      BNE      0x6324 ; main + 612
        0x0000631e:    706c        lp      STRB     r4,[r5,#1]
        0x00006320:    f7fbfc18    ....    BL       Process_Received_Settings ; 0x1b54
        0x00006324:    70ec        .p      STRB     r4,[r5,#3]
        0x00006326:    e72c        ,.      B        0x6182 ; main + 194
    $d
        0x00006328:    40050000    ...@    DCD    1074069504
        0x0000632c:    40050100    ...@    DCD    1074069760
        0x00006330:    20000000    ...     DCD    536870912
        0x00006334:    7379530a    .Sys    DCD    1937330954
        0x00006338:    206d6574    tem     DCD    544040308
        0x0000633c:    636f6c63    cloc    DCD    1668246627
        0x00006340:    6172206b    k ra    DCD    1634869355
        0x00006344:    203a6574    te:     DCD    540697972
        0x00006348:    48206425    %d H    DCD    1210082341
        0x0000634c:    0000007a    z...    DCD    122
        0x00006350:    524f202a    * OR    DCD    1380917290
        0x00006354:    2a20204f    O  *    DCD    706748495
        0x00006358:    00000000    ....    DCD    0
        0x0000635c:    20001158    X..     DCD    536875352
        0x00006360:    5550202a    * PU    DCD    1431314474
        0x00006364:    2a20504d    MP *    DCD    706760781
        0x00006368:    00000000    ....    DCD    0
        0x0000636c:    006acfc0    ..j.    DCD    7000000
        0x00006370:    302e3156    V1.0    DCD    808333654
        0x00006374:    0000302e    .0..    DCD    12334
        0x00006378:    20732520     %s     DCD    544417056
        0x0000637c:    00000020     ...    DCD    32
        0x00006380:    302d3531    15-0    DCD    808269105
        0x00006384:    33322d35    5-23    DCD    858926389
        0x00006388:    00000000    ....    DCD    0
        0x0000638c:    00207325    %s .    DCD    2126629
        0x00006390:    20000082    ...     DCD    536871042
        0x00006394:    200000da    ...     DCD    536871130
        0x00006398:    20000fe8    ...     DCD    536874984
        0x0000639c:    2000002c    ,..     DCD    536870956
        0x000063a0:    6e6f200a    . on    DCD    1852776458
        0x000063a4:    65732065    e se    DCD    1702043749
        0x000063a8:    69542063    c Ti    DCD    1767120995
        0x000063ac:    2072656d    mer     DCD    544367981
        0x000063b0:    0000000a    ....    DCD    10
        0x000063b4:    30330d0a    ..30    DCD    808652042
        0x000063b8:    736d2030    0 ms    DCD    1936531504
        0x000063bc:    6d697420     tim    DCD    1835627552
        0x000063c0:    2e2e7265    er..    DCD    774795877
        0x000063c4:    00002e2e    ....    DCD    11822
        0x000063c8:    20000091    ...     DCD    536871057
        0x000063cc:    200000d8    ...     DCD    536871128
        0x000063d0:    20000096    ...     DCD    536871062
        0x000063d4:    200000d9    ...     DCD    536871129
        0x000063d8:    2000010c    ...     DCD    536871180
        0x000063dc:    200000c1    ...     DCD    536871105
        0x000063e0:    20000110    ...     DCD    536871184
        0x000063e4:    2000159c    ...     DCD    536876444
        0x000063e8:    2000007d    }..     DCD    536871037
        0x000063ec:    2000008c    ...     DCD    536871052
        0x000063f0:    2000007b    {..     DCD    536871035
        0x000063f4:    2000007c    |..     DCD    536871036
        0x000063f8:    20000080    ...     DCD    536871040
        0x000063fc:    2000008b    ...     DCD    536871051
        0x00006400:    200000cc    ...     DCD    536871116
        0x00006404:    554e414d    MANU    DCD    1431191885
        0x00006408:    00004c41    AL..    DCD    19521
        0x0000640c:    2000088f    ...     DCD    536873103
        0x00006410:    20000bbe    ...     DCD    536873918
        0x00006414:    200000ca    ...     DCD    536871114
        0x00006418:    200000c9    ...     DCD    536871113
        0x0000641c:    20000081    ...     DCD    536871041
        0x00006420:    200000be    ...     DCD    536871102
        0x00006424:    6c6c6957    Will    DCD    1819044183
        0x00006428:    6b616d20     mak    DCD    1801547040
        0x0000642c:    664f2065    e Of    DCD    1716461669
        0x00006430:    00000066    f...    DCD    102
        0x00006434:    20656854    The     DCD    543516756
        0x00006438:    756c6156    Valu    DCD    1970037078
        0x0000643c:    666f2065    e of    DCD    1718558821
        0x00006440:    746e4520     Ent    DCD    1953383712
        0x00006444:    69207265    er i    DCD    1763734117
        0x00006448:    257b3a73    s:{%    DCD    628832883
        0x0000644c:    000a7d64    d}..    DCD    687460
    $t
    i.motorof
    motorof
        0x00006450:    b570        p.      PUSH     {r4-r6,lr}
        0x00006452:    4d2a        *M      LDR      r5,[pc,#168] ; [0x64fc] = 0x20000078
        0x00006454:    f8951061    ..a.    LDRB     r1,[r5,#0x61]
        0x00006458:    2901        .)      CMP      r1,#1
        0x0000645a:    d14e        N.      BNE      0x64fa ; motorof + 170
        0x0000645c:    2400        .$      MOVS     r4,#0
        0x0000645e:    f1050680    ....    ADD      r6,r5,#0x80
        0x00006462:    f8854024    ..$@    STRB     r4,[r5,#0x24]
        0x00006466:    6174        ta      STR      r4,[r6,#0x14]
        0x00006468:    f8854049    ..I@    STRB     r4,[r5,#0x49]
        0x0000646c:    4601        .F      MOV      r1,r0
        0x0000646e:    f6053046    ..F0    ADD      r0,r5,#0xb46
        0x00006472:    3535        55      ADDS     r5,r5,#0x35
        0x00006474:    61b4        .a      STR      r4,[r6,#0x18]
        0x00006476:    f7f9ff5f    .._.    BL       strcpy ; 0x338
        0x0000647a:    746c        lt      STRB     r4,[r5,#0x11]
        0x0000647c:    f885402c    ..,@    STRB     r4,[r5,#0x2c]
        0x00006480:    f885402d    ..-@    STRB     r4,[r5,#0x2d]
        0x00006484:    77ec        .w      STRB     r4,[r5,#0x1f]
        0x00006486:    491e        .I      LDR      r1,[pc,#120] ; [0x6500] = 0x2000159c
        0x00006488:    71ac        .q      STRB     r4,[r5,#6]
        0x0000648a:    2001        .       MOVS     r0,#1
        0x0000648c:    7168        hq      STRB     r0,[r5,#5]
        0x0000648e:    f8c14090    ...@    STR      r4,[r1,#0x90]
        0x00006492:    f8054c2d    ..-L    STRB     r4,[r5,#-0x2d]
        0x00006496:    f8050c22    ..".    STRB     r0,[r5,#-0x22]
        0x0000649a:    a01a        ..      ADR      r0,{pc}+0x6a ; 0x6504
        0x0000649c:    3d35        5=      SUBS     r5,r5,#0x35
        0x0000649e:    f7fbf87b    ..{.    BL       Debug ; 0x1598
        0x000064a2:    a01c        ..      ADR      r0,{pc}+0x72 ; 0x6514
        0x000064a4:    f7fbf878    ..x.    BL       Debug ; 0x1598
        0x000064a8:    481f        .H      LDR      r0,[pc,#124] ; [0x6528] = 0x20001140
        0x000064aa:    7901        .y      LDRB     r1,[r0,#4]
        0x000064ac:    2901        .)      CMP      r1,#1
        0x000064ae:    d101        ..      BNE      0x64b4 ; motorof + 100
        0x000064b0:    f8854052    ..R@    STRB     r4,[r5,#0x52]
        0x000064b4:    f8854051    ..Q@    STRB     r4,[r5,#0x51]
        0x000064b8:    726c        lr      STRB     r4,[r5,#9]
        0x000064ba:    7d69        i}      LDRB     r1,[r5,#0x15]
        0x000064bc:    2901        .)      CMP      r1,#1
        0x000064be:    d015        ..      BEQ      0x64ec ; motorof + 156
        0x000064c0:    f8951025    ..%.    LDRB     r1,[r5,#0x25]
        0x000064c4:    2902        .)      CMP      r1,#2
        0x000064c6:    d00a        ..      BEQ      0x64de ; motorof + 142
        0x000064c8:    e005        ..      B        0x64d6 ; motorof + 134
        0x000064ca:    a118        ..      ADR      r1,{pc}+0x62 ; 0x652c
        0x000064cc:    e000        ..      B        0x64d0 ; motorof + 128
        0x000064ce:    a123        #.      ADR      r1,{pc}+0x8e ; 0x655c
        0x000064d0:    482c        ,H      LDR      r0,[pc,#176] ; [0x6584] = 0x20000c18
        0x000064d2:    f7feff53    ..S.    BL       __0sprintf ; 0x537c
        0x000064d6:    e8bd4070    ..p@    POP      {r4-r6,lr}
        0x000064da:    f7febb81    ....    B        WriteSettingsFile ; 0x4be0
        0x000064de:    492a        *I      LDR      r1,[pc,#168] ; [0x6588] = 0x20000fe8
        0x000064e0:    f89110cf    ....    LDRB     r1,[r1,#0xcf]
        0x000064e4:    b111        ..      CBZ      r1,0x64ec ; motorof + 156
        0x000064e6:    6b71        qk      LDR      r1,[r6,#0x34]
        0x000064e8:    2903        .)      CMP      r1,#3
        0x000064ea:    d1f4        ..      BNE      0x64d6 ; motorof + 134
        0x000064ec:    7a80        .z      LDRB     r0,[r0,#0xa]
        0x000064ee:    4a25        %J      LDR      r2,[pc,#148] ; [0x6584] = 0x20000c18
        0x000064f0:    2801        .(      CMP      r0,#1
        0x000064f2:    f1a2025a    ..Z.    SUB      r2,r2,#0x5a
        0x000064f6:    d1ea        ..      BNE      0x64ce ; motorof + 126
        0x000064f8:    e7e7        ..      B        0x64ca ; motorof + 122
        0x000064fa:    bd70        p.      POP      {r4-r6,pc}
    $d
        0x000064fc:    20000078    x..     DCD    536871032
        0x00006500:    2000159c    ...     DCD    536876444
        0x00006504:    6f4d0d0a    ..Mo    DCD    1867320586
        0x00006508:    20726f74    tor     DCD    544370548
        0x0000650c:    2046464f    OFF     DCD    541476431
        0x00006510:    00000d0a    ....    DCD    3338
        0x00006514:    4d530d0a    ..SM    DCD    1297288458
        0x00006518:    45532053    S SE    DCD    1163075667
        0x0000651c:    4e20444e    ND N    DCD    1310737486
        0x00006520:    0d0a574f    OW..    DCD    218781519
        0x00006524:    00000000    ....    DCD    0
        0x00006528:    20001140    @..     DCD    536875328
        0x0000652c:    49424f4d    MOBI    DCD    1229082445
        0x00006530:    4f20454c    LE O    DCD    1327514956
        0x00006534:    42204646    FF B    DCD    1109411398
        0x00006538:    203a2059    Y :     DCD    540680281
        0x0000653c:    2531392b    +91%    DCD    623982891
        0x00006540:    0d0a3073    s0..    DCD    218771571
        0x00006544:    45574f50    POWE    DCD    1163349840
        0x00006548:    464f2052    R OF    DCD    1179590738
        0x0000654c:    4d0d0a46    F..M    DCD    1292700230
        0x00006550:    524f544f    OTOR    DCD    1380930639
        0x00006554:    46464f20     OFF    DCD    1179012896
        0x00006558:    0000000a    ....    DCD    10
        0x0000655c:    49424f4d    MOBI    DCD    1229082445
        0x00006560:    4f20454c    LE O    DCD    1327514956
        0x00006564:    42204646    FF B    DCD    1109411398
        0x00006568:    73252059    Y %s    DCD    1931812953
        0x0000656c:    4f500d0a    ..PO    DCD    1330646282
        0x00006570:    20524557    WER     DCD    542262615
        0x00006574:    0a46464f    OFF.    DCD    172377679
        0x00006578:    544f4d0d    .MOT    DCD    1414483213
        0x0000657c:    4f20524f    OR O    DCD    1327518287
        0x00006580:    000a4646    FF..    DCD    673350
        0x00006584:    20000c18    ...     DCD    536874008
        0x00006588:    20000fe8    ...     DCD    536874984
    $t
    i.motoron
    motoron
        0x0000658c:    e92d41f0    -..A    PUSH     {r4-r8,lr}
        0x00006590:    4c36        6L      LDR      r4,[pc,#216] ; [0x666c] = 0x20000078
        0x00006592:    f8941061    ..a.    LDRB     r1,[r4,#0x61]
        0x00006596:    2900        .)      CMP      r1,#0
        0x00006598:    d166        f.      BNE      0x6668 ; motoron + 220
        0x0000659a:    f1040780    ....    ADD      r7,r4,#0x80
        0x0000659e:    2500        .%      MOVS     r5,#0
        0x000065a0:    617d        }a      STR      r5,[r7,#0x14]
        0x000065a2:    f8df80cc    ....    LDR      r8,[pc,#204] ; [0x6670] = 0x20000fe8
        0x000065a6:    f8045f49    ..I_    STRB     r5,[r4,#0x49]!
        0x000065aa:    61bd        .a      STR      r5,[r7,#0x18]
        0x000065ac:    4601        .F      MOV      r1,r0
        0x000065ae:    f888500a    ...P    STRB     r5,[r8,#0xa]
        0x000065b2:    f60720c6    ...     ADD      r0,r7,#0xac6
        0x000065b6:    f7f9febf    ....    BL       strcpy ; 0x338
        0x000065ba:    f60721c6    ...!    ADD      r1,r7,#0xac6
        0x000065be:    a02d        -.      ADR      r0,{pc}+0xb6 ; 0x6674
        0x000065c0:    f7faffea    ....    BL       Debug ; 0x1598
        0x000065c4:    2601        .&      MOVS     r6,#1
        0x000065c6:    7626        &v      STRB     r6,[r4,#0x18]
        0x000065c8:    482c        ,H      LDR      r0,[pc,#176] ; [0x667c] = 0x2000159c
        0x000065ca:    7666        fv      STRB     r6,[r4,#0x19]
        0x000065cc:    72e6        .r      STRB     r6,[r4,#0xb]
        0x000065ce:    f8c05090    ...P    STR      r5,[r0,#0x90]
        0x000065d2:    f7faff67    ..g.    BL       Check2Phase ; 0x14a4
        0x000065d6:    f8040c24    ..$.    STRB     r0,[r4,#-0x24]
        0x000065da:    f8142c34    ..4,    LDRB     r2,[r4,#-0x34]
        0x000065de:    4d28        (M      LDR      r5,[pc,#160] ; [0x6680] = 0x20001140
        0x000065e0:    3c49        I<      SUBS     r4,r4,#0x49
        0x000065e2:    f10701b1    ....    ADD      r1,r7,#0xb1
        0x000065e6:    2a01        .*      CMP      r2,#1
        0x000065e8:    d002        ..      BEQ      0x65f0 ; motoron + 100
        0x000065ea:    2802        .(      CMP      r0,#2
        0x000065ec:    d017        ..      BEQ      0x661e ; motoron + 146
        0x000065ee:    e035        5.      B        0x665c ; motoron + 208
        0x000065f0:    f9912002    ...     LDRSB    r2,[r1,#2]
        0x000065f4:    a123        #.      ADR      r1,{pc}+0x90 ; 0x6684
        0x000065f6:    4826        &H      LDR      r0,[pc,#152] ; [0x6690] = 0x20000c18
        0x000065f8:    1c92        ..      ADDS     r2,r2,#2
        0x000065fa:    f7fefebf    ....    BL       __0sprintf ; 0x537c
        0x000065fe:    7aa8        .z      LDRB     r0,[r5,#0xa]
        0x00006600:    4b23        #K      LDR      r3,[pc,#140] ; [0x6690] = 0x20000c18
        0x00006602:    4a23        #J      LDR      r2,[pc,#140] ; [0x6690] = 0x20000c18
        0x00006604:    2801        .(      CMP      r0,#1
        0x00006606:    f1a3035a    ..Z.    SUB      r3,r3,#0x5a
        0x0000660a:    d006        ..      BEQ      0x661a ; motoron + 142
        0x0000660c:    a121        !.      ADR      r1,{pc}+0x88 ; 0x6694
        0x0000660e:    4820         H      LDR      r0,[pc,#128] ; [0x6690] = 0x20000c18
        0x00006610:    f7fefeb4    ....    BL       __0sprintf ; 0x537c
        0x00006614:    4a1e        .J      LDR      r2,[pc,#120] ; [0x6690] = 0x20000c18
        0x00006616:    a12a        *.      ADR      r1,{pc}+0xaa ; 0x66c0
        0x00006618:    e01b        ..      B        0x6652 ; motoron + 198
        0x0000661a:    a134        4.      ADR      r1,{pc}+0xd2 ; 0x66ec
        0x0000661c:    e7f7        ..      B        0x660e ; motoron + 130
        0x0000661e:    f89800cf    ....    LDRB     r0,[r8,#0xcf]
        0x00006622:    b110        ..      CBZ      r0,0x662a ; motoron + 158
        0x00006624:    6b78        xk      LDR      r0,[r7,#0x34]
        0x00006626:    2803        .(      CMP      r0,#3
        0x00006628:    d118        ..      BNE      0x665c ; motoron + 208
        0x0000662a:    f9912002    ...     LDRSB    r2,[r1,#2]
        0x0000662e:    a13b        ;.      ADR      r1,{pc}+0xee ; 0x671c
        0x00006630:    4817        .H      LDR      r0,[pc,#92] ; [0x6690] = 0x20000c18
        0x00006632:    1c92        ..      ADDS     r2,r2,#2
        0x00006634:    f7fefea2    ....    BL       __0sprintf ; 0x537c
        0x00006638:    7aa8        .z      LDRB     r0,[r5,#0xa]
        0x0000663a:    4b15        .K      LDR      r3,[pc,#84] ; [0x6690] = 0x20000c18
        0x0000663c:    4a14        .J      LDR      r2,[pc,#80] ; [0x6690] = 0x20000c18
        0x0000663e:    2801        .(      CMP      r0,#1
        0x00006640:    f1a3035a    ..Z.    SUB      r3,r3,#0x5a
        0x00006644:    d00e        ..      BEQ      0x6664 ; motoron + 216
        0x00006646:    a138        8.      ADR      r1,{pc}+0xe2 ; 0x6728
        0x00006648:    4811        .H      LDR      r0,[pc,#68] ; [0x6690] = 0x20000c18
        0x0000664a:    f7fefe97    ....    BL       __0sprintf ; 0x537c
        0x0000664e:    4a10        .J      LDR      r2,[pc,#64] ; [0x6690] = 0x20000c18
        0x00006650:    a13f        ?.      ADR      r1,{pc}+0x100 ; 0x6750
        0x00006652:    480f        .H      LDR      r0,[pc,#60] ; [0x6690] = 0x20000c18
        0x00006654:    f7fefe92    ....    BL       __0sprintf ; 0x537c
        0x00006658:    f8846055    ..U`    STRB     r6,[r4,#0x55]
        0x0000665c:    e8bd41f0    ...A    POP      {r4-r8,lr}
        0x00006660:    f7febabe    ....    B        WriteSettingsFile ; 0x4be0
        0x00006664:    a147        G.      ADR      r1,{pc}+0x120 ; 0x6784
        0x00006666:    e7ef        ..      B        0x6648 ; motoron + 188
        0x00006668:    e8bd81f0    ....    POP      {r4-r8,pc}
    $d
        0x0000666c:    20000078    x..     DCD    536871032
        0x00006670:    20000fe8    ...     DCD    536874984
        0x00006674:    5b4f4857    WHO[    DCD    1531922519
        0x00006678:    005d7325    %s].    DCD    6124325
        0x0000667c:    2000159c    ...     DCD    536876444
        0x00006680:    20001140    @..     DCD    536875328
        0x00006684:    32302520     %02    DCD    842016032
        0x00006688:    36363064    d066    DCD    909520996
        0x0000668c:    0000000a    ....    DCD    10
        0x00006690:    20000c18    ...     DCD    536874008
        0x00006694:    4f4d7325    %sMO    DCD    1330475813
        0x00006698:    454c4942    BILE    DCD    1162627394
        0x0000669c:    204e4f20     ON     DCD    542002976
        0x000066a0:    25205942    BY %    DCD    622876994
        0x000066a4:    500d0a73    s..P    DCD    1343031923
        0x000066a8:    5245574f    OWER    DCD    1380276047
        0x000066ac:    46464f20     OFF    DCD    1179012896
        0x000066b0:    4f4d0d0a    ..MO    DCD    1330449674
        0x000066b4:    20524f54    TOR     DCD    542265172
        0x000066b8:    0a46464f    OFF.    DCD    172377679
        0x000066bc:    00000000    ....    DCD    0
        0x000066c0:    4d207325    %s M    DCD    1293972261
        0x000066c4:    524f544f    OTOR    DCD    1380930639
        0x000066c8:    4e414320     CAN    DCD    1312899872
        0x000066cc:    53205427    'T S    DCD    1394627623
        0x000066d0:    54524154    TART    DCD    1414676820
        0x000066d4:    41454220     BEA    DCD    1095057952
        0x000066d8:    45535543    CUSE    DCD    1163089219
        0x000066dc:    204f4e20     NO     DCD    542068256
        0x000066e0:    43454c45    ELEC    DCD    1128614981
        0x000066e4:    43495254    TRIC    DCD    1128878676
        0x000066e8:    00595449    ITY.    DCD    5854281
        0x000066ec:    4f4d7325    %sMO    DCD    1330475813
        0x000066f0:    454c4942    BILE    DCD    1162627394
        0x000066f4:    204e4f20     ON     DCD    542002976
        0x000066f8:    3a205942    BY :    DCD    975198530
        0x000066fc:    31392b20     +91    DCD    825830176
        0x00006700:    0a307325    %s0.    DCD    170947365
        0x00006704:    574f500d    .POW    DCD    1464815629
        0x00006708:    4f205245    ER O    DCD    1327518277
        0x0000670c:    0d0a4646    FF..    DCD    218777158
        0x00006710:    4f544f4d    MOTO    DCD    1330925389
        0x00006714:    464f2052    R OF    DCD    1179590738
        0x00006718:    00000a46    F...    DCD    2630
        0x0000671c:    32302520     %02    DCD    842016032
        0x00006720:    38323064    d028    DCD    942813284
        0x00006724:    0000000a    ....    DCD    10
        0x00006728:    4f4d7325    %sMO    DCD    1330475813
        0x0000672c:    454c4942    BILE    DCD    1162627394
        0x00006730:    204e4f20     ON     DCD    542002976
        0x00006734:    25205942    BY %    DCD    622876994
        0x00006738:    500d0a73    s..P    DCD    1343031923
        0x0000673c:    5245574f    OWER    DCD    1380276047
        0x00006740:    0a4e4f20     ON.    DCD    172904224
        0x00006744:    544f4d0d    .MOT    DCD    1414483213
        0x00006748:    4f20524f    OR O    DCD    1327518287
        0x0000674c:    000a4646    FF..    DCD    673350
        0x00006750:    4d207325    %s M    DCD    1293972261
        0x00006754:    524f544f    OTOR    DCD    1380930639
        0x00006758:    4e414320     CAN    DCD    1312899872
        0x0000675c:    53205427    'T S    DCD    1394627623
        0x00006760:    54524154    TART    DCD    1414676820
        0x00006764:    41454220     BEA    DCD    1095057952
        0x00006768:    45535543    CUSE    DCD    1163089219
        0x0000676c:    50203320     3 P    DCD    1344287520
        0x00006770:    45534148    HASE    DCD    1163084104
        0x00006774:    4c455320     SEL    DCD    1279611680
        0x00006778:    49544345    ECTI    DCD    1230259013
        0x0000677c:    4f204e4f    ON O    DCD    1327517263
        0x00006780:    00594c4e    NLY.    DCD    5852238
        0x00006784:    4f4d7325    %sMO    DCD    1330475813
        0x00006788:    454c4942    BILE    DCD    1162627394
        0x0000678c:    204e4f20     ON     DCD    542002976
        0x00006790:    3a205942    BY :    DCD    975198530
        0x00006794:    31392b20     +91    DCD    825830176
        0x00006798:    0a307325    %s0.    DCD    170947365
        0x0000679c:    574f500d    .POW    DCD    1464815629
        0x000067a0:    4f205245    ER O    DCD    1327518277
        0x000067a4:    4d0d0a4e    N..M    DCD    1292700238
        0x000067a8:    524f544f    OTOR    DCD    1380930639
        0x000067ac:    46464f20     OFF    DCD    1179012896
        0x000067b0:    0000000a    ....    DCD    10
    $t
    i.myatof
    myatof
        0x000067b4:    b570        p.      PUSH     {r4-r6,lr}
        0x000067b6:    4605        .F      MOV      r5,r0
        0x000067b8:    ed2d8b06    -...    VPUSH    {d8-d10}
        0x000067bc:    ed9f8b42    ..B.    VLDR     d8,[pc,#264] ; [0x68c8] = 0
        0x000067c0:    2400        .$      MOVS     r4,#0
        0x000067c2:    ed9fab43    ..C.    VLDR     d10,[pc,#268] ; [0x68d0] = 0
        0x000067c6:    e014        ..      B        0x67f2 ; myatof + 62
        0x000067c8:    f1a00130    ..0.    SUB      r1,r0,#0x30
        0x000067cc:    2909        .)      CMP      r1,#9
        0x000067ce:    d815        ..      BHI      0x67fc ; myatof + 72
        0x000067d0:    4608        .F      MOV      r0,r1
        0x000067d2:    f7faf827    ..'.    BL       __aeabi_i2d ; 0x824
        0x000067d6:    ec410b19    A...    VMOV     d9,r0,r1
        0x000067da:    ec532b1a    S..+    VMOV     r2,r3,d10
        0x000067de:    ec510b18    Q...    VMOV     r0,r1,d8
        0x000067e2:    f7f9ff3e    ..>.    BL       __aeabi_dmul ; 0x662
        0x000067e6:    ec532b19    S..+    VMOV     r2,r3,d9
        0x000067ea:    f7f9fe93    ....    BL       __aeabi_dadd ; 0x514
        0x000067ee:    ec410b18    A...    VMOV     d8,r0,r1
        0x000067f2:    f8150b01    ....    LDRB     r0,[r5],#1
        0x000067f6:    2800        .(      CMP      r0,#0
        0x000067f8:    d1e6        ..      BNE      0x67c8 ; myatof + 20
        0x000067fa:    e04d        M.      B        0x6898 ; myatof + 228
        0x000067fc:    282e        .(      CMP      r0,#0x2e
        0x000067fe:    d01a        ..      BEQ      0x6836 ; myatof + 130
        0x00006800:    e01e        ..      B        0x6840 ; myatof + 140
        0x00006802:    f1a00130    ..0.    SUB      r1,r0,#0x30
        0x00006806:    2909        .)      CMP      r1,#9
        0x00006808:    d81a        ..      BHI      0x6840 ; myatof + 140
        0x0000680a:    4608        .F      MOV      r0,r1
        0x0000680c:    f7faf80a    ....    BL       __aeabi_i2d ; 0x824
        0x00006810:    ec410b19    A...    VMOV     d9,r0,r1
        0x00006814:    eeb00a4a    ..J.    VMOV.F32 s0,s20
        0x00006818:    eef00a6a    ..j.    VMOV.F32 s1,s21
        0x0000681c:    ec532b10    S..+    VMOV     r2,r3,d0
        0x00006820:    ec510b18    Q...    VMOV     r0,r1,d8
        0x00006824:    f7f9ff1d    ....    BL       __aeabi_dmul ; 0x662
        0x00006828:    ec532b19    S..+    VMOV     r2,r3,d9
        0x0000682c:    f7f9fe72    ..r.    BL       __aeabi_dadd ; 0x514
        0x00006830:    ec410b18    A...    VMOV     d8,r0,r1
        0x00006834:    1e64        d.      SUBS     r4,r4,#1
        0x00006836:    f8150b01    ....    LDRB     r0,[r5],#1
        0x0000683a:    2800        .(      CMP      r0,#0
        0x0000683c:    d1e1        ..      BNE      0x6802 ; myatof + 78
        0x0000683e:    e02b        +.      B        0x6898 ; myatof + 228
        0x00006840:    2865        e(      CMP      r0,#0x65
        0x00006842:    d001        ..      BEQ      0x6848 ; myatof + 148
        0x00006844:    2845        E(      CMP      r0,#0x45
        0x00006846:    d127        '.      BNE      0x6898 ; myatof + 228
        0x00006848:    f8150b01    ....    LDRB     r0,[r5],#1
        0x0000684c:    2201        ."      MOVS     r2,#1
        0x0000684e:    2100        .!      MOVS     r1,#0
        0x00006850:    282b        +(      CMP      r0,#0x2b
        0x00006852:    d002        ..      BEQ      0x685a ; myatof + 166
        0x00006854:    282d        -(      CMP      r0,#0x2d
        0x00006856:    d003        ..      BEQ      0x6860 ; myatof + 172
        0x00006858:    e00e        ..      B        0x6878 ; myatof + 196
        0x0000685a:    f8150b01    ....    LDRB     r0,[r5],#1
        0x0000685e:    e00b        ..      B        0x6878 ; myatof + 196
        0x00006860:    f8150b01    ....    LDRB     r0,[r5],#1
        0x00006864:    f04f32ff    O..2    MOV      r2,#0xffffffff
        0x00006868:    e006        ..      B        0x6878 ; myatof + 196
        0x0000686a:    eb010181    ....    ADD      r1,r1,r1,LSL #2
        0x0000686e:    eb000141    ..A.    ADD      r1,r0,r1,LSL #1
        0x00006872:    f8150b01    ....    LDRB     r0,[r5],#1
        0x00006876:    3930        09      SUBS     r1,r1,#0x30
        0x00006878:    f1a00330    ..0.    SUB      r3,r0,#0x30
        0x0000687c:    2b09        .+      CMP      r3,#9
        0x0000687e:    d9f4        ..      BLS      0x686a ; myatof + 182
        0x00006880:    fb014402    ...D    MLA      r4,r1,r2,r4
        0x00006884:    e008        ..      B        0x6898 ; myatof + 228
        0x00006886:    ec532b1a    S..+    VMOV     r2,r3,d10
        0x0000688a:    ec510b18    Q...    VMOV     r0,r1,d8
        0x0000688e:    f7f9fee8    ....    BL       __aeabi_dmul ; 0x662
        0x00006892:    ec410b18    A...    VMOV     d8,r0,r1
        0x00006896:    1e64        d.      SUBS     r4,r4,#1
        0x00006898:    2c00        .,      CMP      r4,#0
        0x0000689a:    dcf4        ..      BGT      0x6886 ; myatof + 210
        0x0000689c:    ed9f9b0e    ....    VLDR     d9,[pc,#56] ; [0x68d8] = 0x9999999a
        0x000068a0:    2c00        .,      CMP      r4,#0
        0x000068a2:    da09        ..      BGE      0x68b8 ; myatof + 260
        0x000068a4:    ec532b19    S..+    VMOV     r2,r3,d9
        0x000068a8:    ec510b18    Q...    VMOV     r0,r1,d8
        0x000068ac:    f7f9fed9    ....    BL       __aeabi_dmul ; 0x662
        0x000068b0:    ec410b18    A...    VMOV     d8,r0,r1
        0x000068b4:    1c64        d.      ADDS     r4,r4,#1
        0x000068b6:    e7f3        ..      B        0x68a0 ; myatof + 236
        0x000068b8:    eeb00a48    ..H.    VMOV.F32 s0,s16
        0x000068bc:    eef00a68    ..h.    VMOV.F32 s1,s17
        0x000068c0:    ecbd8b06    ....    VPOP     {d8-d10}
        0x000068c4:    bd70        p.      POP      {r4-r6,pc}
    $d
        0x000068c6:    0000        ..      DCW    0
        0x000068c8:    00000000    ....    DCD    0
        0x000068cc:    00000000    ....    DCD    0
        0x000068d0:    00000000    ....    DCD    0
        0x000068d4:    40240000    ..$@    DCD    1076101120
        0x000068d8:    9999999a    ....    DCD    2576980378
        0x000068dc:    3fb99999    ...?    DCD    1069128089
    $t
    i.myatoi
    myatoi
        0x000068e0:    4601        .F      MOV      r1,r0
        0x000068e2:    2000        .       MOVS     r0,#0
        0x000068e4:    e008        ..      B        0x68f8 ; myatoi + 24
        0x000068e6:    f1a20330    ..0.    SUB      r3,r2,#0x30
        0x000068ea:    2b09        .+      CMP      r3,#9
        0x000068ec:    d804        ..      BHI      0x68f8 ; myatoi + 24
        0x000068ee:    eb000080    ....    ADD      r0,r0,r0,LSL #2
        0x000068f2:    eb020040    ..@.    ADD      r0,r2,r0,LSL #1
        0x000068f6:    3830        08      SUBS     r0,r0,#0x30
        0x000068f8:    f8112b01    ...+    LDRB     r2,[r1],#1
        0x000068fc:    2a00        .*      CMP      r2,#0
        0x000068fe:    d1f2        ..      BNE      0x68e6 ; myatoi + 6
        0x00006900:    4770        pG      BX       lr
    i.print_lcd
    print_lcd
        0x00006902:    b510        ..      PUSH     {r4,lr}
        0x00006904:    4604        .F      MOV      r4,r0
        0x00006906:    2100        .!      MOVS     r1,#0
        0x00006908:    2001        .       MOVS     r0,#1
        0x0000690a:    f7fffb1f    ....    BL       lcd_goto ; 0x5f4c
        0x0000690e:    4620         F      MOV      r0,r4
        0x00006910:    f7fffba8    ....    BL       lcd_puts ; 0x6064
        0x00006914:    2100        .!      MOVS     r1,#0
        0x00006916:    2002        .       MOVS     r0,#2
        0x00006918:    f7fffb18    ....    BL       lcd_goto ; 0x5f4c
        0x0000691c:    f1040010    ....    ADD      r0,r4,#0x10
        0x00006920:    e8bd4010    ...@    POP      {r4,lr}
        0x00006924:    f7ffbb9e    ....    B        lcd_puts ; 0x6064
    i.prodset
    prodset
        0x00006928:    e92d41f0    -..A    PUSH     {r4-r8,lr}
        0x0000692c:    a07e        ~.      ADR      r0,{pc}+0x1fc ; 0x6b28
        0x0000692e:    f7fafe33    ..3.    BL       Debug ; 0x1598
        0x00006932:    f8dfe208    ....    LDR      lr,[pc,#520] ; [0x6b3c] = 0x20000078
        0x00006936:    2301        .#      MOVS     r3,#1
        0x00006938:    4881        .H      LDR      r0,[pc,#516] ; [0x6b40] = 0x20000fe8
        0x0000693a:    f88e303c    ..<0    STRB     r3,[lr,#0x3c]
        0x0000693e:    2100        .!      MOVS     r1,#0
        0x00006940:    f8801046    ..F.    STRB     r1,[r0,#0x46]
        0x00006944:    4d7f        .M      LDR      r5,[pc,#508] ; [0x6b44] = 0x20001140
        0x00006946:    f8801047    ..G.    STRB     r1,[r0,#0x47]
        0x0000694a:    f8801048    ..H.    STRB     r1,[r0,#0x48]
        0x0000694e:    72a9        .r      STRB     r1,[r5,#0xa]
        0x00006950:    7029        )p      STRB     r1,[r5,#0]
        0x00006952:    72e9        .r      STRB     r1,[r5,#0xb]
        0x00006954:    7069        ip      STRB     r1,[r5,#1]
        0x00006956:    70a9        .p      STRB     r1,[r5,#2]
        0x00006958:    70e9        .p      STRB     r1,[r5,#3]
        0x0000695a:    7129        )q      STRB     r1,[r5,#4]
        0x0000695c:    7169        iq      STRB     r1,[r5,#5]
        0x0000695e:    71a9        .q      STRB     r1,[r5,#6]
        0x00006960:    71e9        .q      STRB     r1,[r5,#7]
        0x00006962:    7229        )r      STRB     r1,[r5,#8]
        0x00006964:    7269        ir      STRB     r1,[r5,#9]
        0x00006966:    7001        .p      STRB     r1,[r0,#0]
        0x00006968:    7041        Ap      STRB     r1,[r0,#1]
        0x0000696a:    7081        .p      STRB     r1,[r0,#2]
        0x0000696c:    70c1        .p      STRB     r1,[r0,#3]
        0x0000696e:    7101        .q      STRB     r1,[r0,#4]
        0x00006970:    7141        Aq      STRB     r1,[r0,#5]
        0x00006972:    7181        .q      STRB     r1,[r0,#6]
        0x00006974:    71c1        .q      STRB     r1,[r0,#7]
        0x00006976:    7201        .r      STRB     r1,[r0,#8]
        0x00006978:    7241        Ar      STRB     r1,[r0,#9]
        0x0000697a:    7301        .s      STRB     r1,[r0,#0xc]
        0x0000697c:    7341        As      STRB     r1,[r0,#0xd]
        0x0000697e:    7381        .s      STRB     r1,[r0,#0xe]
        0x00006980:    73c1        .s      STRB     r1,[r0,#0xf]
        0x00006982:    7401        .t      STRB     r1,[r0,#0x10]
        0x00006984:    7441        At      STRB     r1,[r0,#0x11]
        0x00006986:    7481        .t      STRB     r1,[r0,#0x12]
        0x00006988:    74c1        .t      STRB     r1,[r0,#0x13]
        0x0000698a:    7501        .u      STRB     r1,[r0,#0x14]
        0x0000698c:    7541        Au      STRB     r1,[r0,#0x15]
        0x0000698e:    7581        .u      STRB     r1,[r0,#0x16]
        0x00006990:    75c1        .u      STRB     r1,[r0,#0x17]
        0x00006992:    7601        .v      STRB     r1,[r0,#0x18]
        0x00006994:    7641        Av      STRB     r1,[r0,#0x19]
        0x00006996:    7681        .v      STRB     r1,[r0,#0x1a]
        0x00006998:    7741        Aw      STRB     r1,[r0,#0x1d]
        0x0000699a:    7781        .w      STRB     r1,[r0,#0x1e]
        0x0000699c:    77c1        .w      STRB     r1,[r0,#0x1f]
        0x0000699e:    f10e0680    ....    ADD      r6,lr,#0x80
        0x000069a2:    f8801022    ..".    STRB     r1,[r0,#0x22]
        0x000069a6:    81f3        ..      STRH     r3,[r6,#0xe]
        0x000069a8:    89f4        ..      LDRH     r4,[r6,#0xe]
        0x000069aa:    1902        ..      ADDS     r2,r0,r4
        0x000069ac:    1c64        d.      ADDS     r4,r4,#1
        0x000069ae:    f8021f23    ..#.    STRB     r1,[r2,#0x23]!
        0x000069b2:    7151        Qq      STRB     r1,[r2,#5]
        0x000069b4:    7291        .r      STRB     r1,[r2,#0xa]
        0x000069b6:    73d1        .s      STRB     r1,[r2,#0xf]
        0x000069b8:    7511        .u      STRB     r1,[r2,#0x14]
        0x000069ba:    7651        Qv      STRB     r1,[r2,#0x19]
        0x000069bc:    b2a2        ..      UXTH     r2,r4
        0x000069be:    81f2        ..      STRH     r2,[r6,#0xe]
        0x000069c0:    2a05        .*      CMP      r2,#5
        0x000069c2:    d3f1        ..      BCC      0x69a8 ; prodset + 128
        0x000069c4:    f88010d0    ....    STRB     r1,[r0,#0xd0]
        0x000069c8:    f88010d4    ....    STRB     r1,[r0,#0xd4]
        0x000069cc:    f88010d5    ....    STRB     r1,[r0,#0xd5]
        0x000069d0:    f88010d6    ....    STRB     r1,[r0,#0xd6]
        0x000069d4:    f88010d7    ....    STRB     r1,[r0,#0xd7]
        0x000069d8:    f88010d8    ....    STRB     r1,[r0,#0xd8]
        0x000069dc:    f88010d9    ....    STRB     r1,[r0,#0xd9]
        0x000069e0:    f88010da    ....    STRB     r1,[r0,#0xda]
        0x000069e4:    f88010db    ....    STRB     r1,[r0,#0xdb]
        0x000069e8:    702b        +p      STRB     r3,[r5,#0]
        0x000069ea:    706b        kp      STRB     r3,[r5,#1]
        0x000069ec:    7169        iq      STRB     r1,[r5,#5]
        0x000069ee:    7001        .p      STRB     r1,[r0,#0]
        0x000069f0:    240a        .$      MOVS     r4,#0xa
        0x000069f2:    7041        Ap      STRB     r1,[r0,#1]
        0x000069f4:    7084        .p      STRB     r4,[r0,#2]
        0x000069f6:    70c1        .p      STRB     r1,[r0,#3]
        0x000069f8:    2705        .'      MOVS     r7,#5
        0x000069fa:    7101        .q      STRB     r1,[r0,#4]
        0x000069fc:    7147        Gq      STRB     r7,[r0,#5]
        0x000069fe:    7181        .q      STRB     r1,[r0,#6]
        0x00006a00:    71c1        .q      STRB     r1,[r0,#7]
        0x00006a02:    2214        ."      MOVS     r2,#0x14
        0x00006a04:    7202        .r      STRB     r2,[r0,#8]
        0x00006a06:    73c3        .s      STRB     r3,[r0,#0xf]
        0x00006a08:    7401        .t      STRB     r1,[r0,#0x10]
        0x00006a0a:    7441        At      STRB     r1,[r0,#0x11]
        0x00006a0c:    7482        .t      STRB     r2,[r0,#0x12]
        0x00006a0e:    f8801077    ..w.    STRB     r1,[r0,#0x77]
        0x00006a12:    f88010cc    ....    STRB     r1,[r0,#0xcc]
        0x00006a16:    f88010cd    ....    STRB     r1,[r0,#0xcd]
        0x00006a1a:    f88040ce    ...@    STRB     r4,[r0,#0xce]
        0x00006a1e:    ed9f0b4a    ..J.    VLDR     d0,[pc,#296] ; [0x6b48] = 0
        0x00006a22:    ed800b28    ..(.    VSTR     d0,[r0,#0xa0]
        0x00006a26:    ed800b2a    ..*.    VSTR     d0,[r0,#0xa8]
        0x00006a2a:    ed9f0b49    ..I.    VLDR     d0,[pc,#292] ; [0x6b50] = 0
        0x00006a2e:    2407        .$      MOVS     r4,#7
        0x00006a30:    ed800b20    .. .    VSTR     d0,[r0,#0x80]
        0x00006a34:    ed800b22    ..".    VSTR     d0,[r0,#0x88]
        0x00006a38:    f8803041    ..A0    STRB     r3,[r0,#0x41]
        0x00006a3c:    f8801042    ..B.    STRB     r1,[r0,#0x42]
        0x00006a40:    f8801043    ..C.    STRB     r1,[r0,#0x43]
        0x00006a44:    f8804044    ..D@    STRB     r4,[r0,#0x44]
        0x00006a48:    f8801049    ..I.    STRB     r1,[r0,#0x49]
        0x00006a4c:    f44f74be    O..t    MOV      r4,#0x17c
        0x00006a50:    64c4        .d      STR      r4,[r0,#0x4c]
        0x00006a52:    f44f748c    O..t    MOV      r4,#0x118
        0x00006a56:    6504        .e      STR      r4,[r0,#0x50]
        0x00006a58:    f8801054    ..T.    STRB     r1,[r0,#0x54]
        0x00006a5c:    0064        d.      LSLS     r4,r4,#1
        0x00006a5e:    6584        .e      STR      r4,[r0,#0x58]
        0x00006a60:    f04f0c28    O.(.    MOV      r12,#0x28
        0x00006a64:    f44f74fa    O..t    MOV      r4,#0x1f4
        0x00006a68:    f8c0c068    ..h.    STR      r12,[r0,#0x68]
        0x00006a6c:    65c4        .e      STR      r4,[r0,#0x5c]
        0x00006a6e:    f8801074    ..t.    STRB     r1,[r0,#0x74]
        0x00006a72:    f8801075    ..u.    STRB     r1,[r0,#0x75]
        0x00006a76:    f8801076    ..v.    STRB     r1,[r0,#0x76]
        0x00006a7a:    f8c02128    ..(!    STR      r2,[r0,#0x128]
        0x00006a7e:    2450        P$      MOVS     r4,#0x50
        0x00006a80:    f8c02124    ..$!    STR      r2,[r0,#0x124]
        0x00006a84:    e9c04c18    ...L    STRD     r4,r12,[r0,#0x60]
        0x00006a88:    f880311c    ...1    STRB     r3,[r0,#0x11c]
        0x00006a8c:    f880311d    ...1    STRB     r3,[r0,#0x11d]
        0x00006a90:    f880311e    ...1    STRB     r3,[r0,#0x11e]
        0x00006a94:    7303        .s      STRB     r3,[r0,#0xc]
        0x00006a96:    7341        As      STRB     r1,[r0,#0xd]
        0x00006a98:    7381        .s      STRB     r1,[r0,#0xe]
        0x00006a9a:    f880311f    ...1    STRB     r3,[r0,#0x11f]
        0x00006a9e:    f8803120    .. 1    STRB     r3,[r0,#0x120]
        0x00006aa2:    f88030d1    ...0    STRB     r3,[r0,#0xd1]
        0x00006aa6:    ed9f0b2c    ..,.    VLDR     d0,[pc,#176] ; [0x6b58] = 0
        0x00006aaa:    f88030d2    ...0    STRB     r3,[r0,#0xd2]
        0x00006aae:    ed800b4c    ..L.    VSTR     d0,[r0,#0x130]
        0x00006ab2:    f88010d3    ....    STRB     r1,[r0,#0xd3]
        0x00006ab6:    f24012db    @...    MOV      r2,#0x1db
        0x00006aba:    66c2        .f      STR      r2,[r0,#0x6c]
        0x00006abc:    ed800b4e    ..N.    VSTR     d0,[r0,#0x138]
        0x00006ac0:    ed800b50    ..P.    VSTR     d0,[r0,#0x140]
        0x00006ac4:    ed9f0b26    ..&.    VLDR     d0,[pc,#152] ; [0x6b60] = 0x66666666
        0x00006ac8:    2202        ."      MOVS     r2,#2
        0x00006aca:    ed800b52    ..R.    VSTR     d0,[r0,#0x148]
        0x00006ace:    6372        rc      STR      r2,[r6,#0x34]
        0x00006ad0:    f8801045    ..E.    STRB     r1,[r0,#0x45]
        0x00006ad4:    f8801046    ..F.    STRB     r1,[r0,#0x46]
        0x00006ad8:    f8801047    ..G.    STRB     r1,[r0,#0x47]
        0x00006adc:    f8807048    ..Hp    STRB     r7,[r0,#0x48]
        0x00006ae0:    70e9        .p      STRB     r1,[r5,#3]
        0x00006ae2:    7129        )q      STRB     r1,[r5,#4]
        0x00006ae4:    f88e3064    ..d0    STRB     r3,[lr,#0x64]
        0x00006ae8:    ed9f0b1f    ....    VLDR     d0,[pc,#124] ; [0x6b68] = 0
        0x00006aec:    f88e4065    ..e@    STRB     r4,[lr,#0x65]
        0x00006af0:    ed800b38    ..8.    VSTR     d0,[r0,#0xe0]
        0x00006af4:    ed800b3a    ..:.    VSTR     d0,[r0,#0xe8]
        0x00006af8:    ed800b3c    ..<.    VSTR     d0,[r0,#0xf0]
        0x00006afc:    ed9f0b1c    ....    VLDR     d0,[pc,#112] ; [0x6b70] = 0xe147ae14
        0x00006b00:    ed800b3e    ..>.    VSTR     d0,[r0,#0xf8]
        0x00006b04:    ed800b40    ..@.    VSTR     d0,[r0,#0x100]
        0x00006b08:    ed800b42    ..B.    VSTR     d0,[r0,#0x108]
        0x00006b0c:    73eb        .s      STRB     r3,[r5,#0xf]
        0x00006b0e:    742b        +t      STRB     r3,[r5,#0x10]
        0x00006b10:    74ab        .t      STRB     r3,[r5,#0x12]
        0x00006b12:    746b        kt      STRB     r3,[r5,#0x11]
        0x00006b14:    f7fef864    ..d.    BL       WriteSettingsFile ; 0x4be0
        0x00006b18:    f7fef996    ....    BL       WriteTimerSettings ; 0x4e48
        0x00006b1c:    f7fcfffc    ....    BL       ReadTimerSettings ; 0x3b18
        0x00006b20:    e8bd41f0    ...A    POP      {r4-r8,lr}
        0x00006b24:    f7fcbecc    ....    B        ReadSettingsFile ; 0x38c0
    $d
        0x00006b28:    746e450a    .Ent    DCD    1953383690
        0x00006b2c:    74207972    ry t    DCD    1948285298
        0x00006b30:    7270206f    o pr    DCD    1919950959
        0x00006b34:    6573646f    odse    DCD    1702061167
        0x00006b38:    00000a74    t...    DCD    2676
        0x00006b3c:    20000078    x..     DCD    536871032
        0x00006b40:    20000fe8    ...     DCD    536874984
        0x00006b44:    20001140    @..     DCD    536875328
        0x00006b48:    00000000    ....    DCD    0
        0x00006b4c:    40440000    ..D@    DCD    1078198272
        0x00006b50:    00000000    ....    DCD    0
        0x00006b54:    40140000    ...@    DCD    1075052544
        0x00006b58:    00000000    ....    DCD    0
        0x00006b5c:    3ff00000    ...?    DCD    1072693248
        0x00006b60:    66666666    ffff    DCD    1717986918
        0x00006b64:    3ff26666    ff.?    DCD    1072850534
        0x00006b68:    00000000    ....    DCD    0
        0x00006b6c:    3fe40000    ...?    DCD    1071906816
        0x00006b70:    e147ae14    ..G.    DCD    3779571220
        0x00006b74:    3fe6147a    z..?    DCD    1072043130
    $t
    i.set_data_flash_base
    set_data_flash_base
        0x00006b78:    b57c        |.      PUSH     {r2-r6,lr}
        0x00006b7a:    4604        .F      MOV      r4,r0
        0x00006b7c:    2102        .!      MOVS     r1,#2
        0x00006b7e:    4668        hF      MOV      r0,sp
        0x00006b80:    f7fafdfa    ....    BL       FMC_ReadConfig ; 0x1778
        0x00006b84:    f04f35ff    O..5    MOV      r5,#0xffffffff
        0x00006b88:    2800        .(      CMP      r0,#0
        0x00006b8a:    da03        ..      BGE      0x6b94 ; set_data_flash_base + 28
        0x00006b8c:    a010        ..      ADR      r0,{pc}+0x44 ; 0x6bd0
        0x00006b8e:    f7fafd03    ....    BL       Debug ; 0x1598
        0x00006b92:    e017        ..      B        0x6bc4 ; set_data_flash_base + 76
        0x00006b94:    9800        ..      LDR      r0,[sp,#0]
        0x00006b96:    07c0        ..      LSLS     r0,r0,#31
        0x00006b98:    d104        ..      BNE      0x6ba4 ; set_data_flash_base + 44
        0x00006b9a:    9801        ..      LDR      r0,[sp,#4]
        0x00006b9c:    42a0        .B      CMP      r0,r4
        0x00006b9e:    d101        ..      BNE      0x6ba4 ; set_data_flash_base + 44
        0x00006ba0:    2000        .       MOVS     r0,#0
        0x00006ba2:    bd7c        |.      POP      {r2-r6,pc}
        0x00006ba4:    4811        .H      LDR      r0,[pc,#68] ; [0x6bec] = 0x4000c000
        0x00006ba6:    6801        .h      LDR      r1,[r0,#0]
        0x00006ba8:    f0410110    A...    ORR      r1,r1,#0x10
        0x00006bac:    6001        .`      STR      r1,[r0,#0]
        0x00006bae:    9800        ..      LDR      r0,[sp,#0]
        0x00006bb0:    2102        .!      MOVS     r1,#2
        0x00006bb2:    f0200001     ...    BIC      r0,r0,#1
        0x00006bb6:    e9cd0400    ....    STRD     r0,r4,[sp,#0]
        0x00006bba:    4668        hF      MOV      r0,sp
        0x00006bbc:    f7fafe28    ..(.    BL       FMC_WriteConfig ; 0x1810
        0x00006bc0:    2800        .(      CMP      r0,#0
        0x00006bc2:    da01        ..      BGE      0x6bc8 ; set_data_flash_base + 80
        0x00006bc4:    4628        (F      MOV      r0,r5
        0x00006bc6:    bd7c        |.      POP      {r2-r6,pc}
        0x00006bc8:    2001        .       MOVS     r0,#1
        0x00006bca:    0781        ..      LSLS     r1,r0,#30
        0x00006bcc:    6088        .`      STR      r0,[r1,#8]
        0x00006bce:    e7e7        ..      B        0x6ba0 ; set_data_flash_base + 40
    $d
        0x00006bd0:    6165520a    .Rea    DCD    1634030090
        0x00006bd4:    73552064    d Us    DCD    1934958692
        0x00006bd8:    43207265    er C    DCD    1126199909
        0x00006bdc:    69666e6f    onfi    DCD    1768320623
        0x00006be0:    61662067    g fa    DCD    1634082919
        0x00006be4:    64656c69    iled    DCD    1684368489
        0x00006be8:    00000a21    !...    DCD    2593
        0x00006bec:    4000c000    ...@    DCD    1073790976
    $t
    i.stackDump
    stackDump
        0x00006bf0:    b510        ..      PUSH     {r4,lr}
        0x00006bf2:    4604        .F      MOV      r4,r0
        0x00006bf4:    6801        .h      LDR      r1,[r0,#0]
        0x00006bf6:    a010        ..      ADR      r0,{pc}+0x42 ; 0x6c38
        0x00006bf8:    f7fefbb0    ....    BL       __0printf ; 0x535c
        0x00006bfc:    a011        ..      ADR      r0,{pc}+0x48 ; 0x6c44
        0x00006bfe:    6861        ah      LDR      r1,[r4,#4]
        0x00006c00:    f7fefbac    ....    BL       __0printf ; 0x535c
        0x00006c04:    a012        ..      ADR      r0,{pc}+0x4c ; 0x6c50
        0x00006c06:    68a1        .h      LDR      r1,[r4,#8]
        0x00006c08:    f7fefba8    ....    BL       __0printf ; 0x535c
        0x00006c0c:    a013        ..      ADR      r0,{pc}+0x50 ; 0x6c5c
        0x00006c0e:    68e1        .h      LDR      r1,[r4,#0xc]
        0x00006c10:    f7fefba4    ....    BL       __0printf ; 0x535c
        0x00006c14:    a014        ..      ADR      r0,{pc}+0x54 ; 0x6c68
        0x00006c16:    6921        !i      LDR      r1,[r4,#0x10]
        0x00006c18:    f7fefba0    ....    BL       __0printf ; 0x535c
        0x00006c1c:    a015        ..      ADR      r0,{pc}+0x58 ; 0x6c74
        0x00006c1e:    6961        ai      LDR      r1,[r4,#0x14]
        0x00006c20:    f7fefb9c    ....    BL       __0printf ; 0x535c
        0x00006c24:    a016        ..      ADR      r0,{pc}+0x5c ; 0x6c80
        0x00006c26:    69a1        .i      LDR      r1,[r4,#0x18]
        0x00006c28:    f7fefb98    ....    BL       __0printf ; 0x535c
        0x00006c2c:    69e1        .i      LDR      r1,[r4,#0x1c]
        0x00006c2e:    e8bd4010    ...@    POP      {r4,lr}
        0x00006c32:    a016        ..      ADR      r0,{pc}+0x5a ; 0x6c8c
        0x00006c34:    f7febb92    ....    B        __0printf ; 0x535c
    $d
        0x00006c38:    20203072    r0      DCD    538980466
        0x00006c3c:    7830203d    = 0x    DCD    2016419901
        0x00006c40:    000a7825    %x..    DCD    686117
        0x00006c44:    20203172    r1      DCD    538980722
        0x00006c48:    7830203d    = 0x    DCD    2016419901
        0x00006c4c:    000a7825    %x..    DCD    686117
        0x00006c50:    20203272    r2      DCD    538980978
        0x00006c54:    7830203d    = 0x    DCD    2016419901
        0x00006c58:    000a7825    %x..    DCD    686117
        0x00006c5c:    20203372    r3      DCD    538981234
        0x00006c60:    7830203d    = 0x    DCD    2016419901
        0x00006c64:    000a7825    %x..    DCD    686117
        0x00006c68:    20323172    r12     DCD    540160370
        0x00006c6c:    7830203d    = 0x    DCD    2016419901
        0x00006c70:    000a7825    %x..    DCD    686117
        0x00006c74:    2020726c    lr      DCD    538997356
        0x00006c78:    7830203d    = 0x    DCD    2016419901
        0x00006c7c:    000a7825    %x..    DCD    686117
        0x00006c80:    20206370    pc      DCD    538993520
        0x00006c84:    7830203d    = 0x    DCD    2016419901
        0x00006c88:    000a7825    %x..    DCD    686117
        0x00006c8c:    20727370    psr     DCD    544371568
        0x00006c90:    7830203d    = 0x    DCD    2016419901
        0x00006c94:    000a7825    %x..    DCD    686117
    $t
    i.uart_receive_function
    uart_receive_function
        0x00006c98:    b530        0.      PUSH     {r4,r5,lr}
        0x00006c9a:    4c17        .L      LDR      r4,[pc,#92] ; [0x6cf8] = 0x40070000
        0x00006c9c:    69e0        .i      LDR      r0,[r4,#0x1c]
        0x00006c9e:    05c0        ..      LSLS     r0,r0,#23
        0x00006ca0:    d528        (.      BPL      0x6cf4 ; uart_receive_function + 92
        0x00006ca2:    4a16        .J      LDR      r2,[pc,#88] ; [0x6cfc] = 0x20000ef8
        0x00006ca4:    4916        .I      LDR      r1,[pc,#88] ; [0x6d00] = 0x2000002c
        0x00006ca6:    2300        .#      MOVS     r3,#0
        0x00006ca8:    69e0        .i      LDR      r0,[r4,#0x1c]
        0x00006caa:    07c0        ..      LSLS     r0,r0,#31
        0x00006cac:    d022        ".      BEQ      0x6cf4 ; uart_receive_function + 92
        0x00006cae:    6820         h      LDR      r0,[r4,#0]
        0x00006cb0:    b2c0        ..      UXTB     r0,r0
        0x00006cb2:    7148        Hq      STRB     r0,[r1,#5]
        0x00006cb4:    2824        $(      CMP      r0,#0x24
        0x00006cb6:    d102        ..      BNE      0x6cbe ; uart_receive_function + 38
        0x00006cb8:    62cb        .b      STR      r3,[r1,#0x2c]
        0x00006cba:    6acd        .j      LDR      r5,[r1,#0x2c]
        0x00006cbc:    b17d        }.      CBZ      r5,0x6cde ; uart_receive_function + 70
        0x00006cbe:    6acd        .j      LDR      r5,[r1,#0x2c]
        0x00006cc0:    b19d        ..      CBZ      r5,0x6cea ; uart_receive_function + 82
        0x00006cc2:    6acd        .j      LDR      r5,[r1,#0x2c]
        0x00006cc4:    5550        PU      STRB     r0,[r2,r5]
        0x00006cc6:    6acd        .j      LDR      r5,[r1,#0x2c]
        0x00006cc8:    1c6d        m.      ADDS     r5,r5,#1
        0x00006cca:    62cd        .b      STR      r5,[r1,#0x2c]
        0x00006ccc:    6acd        .j      LDR      r5,[r1,#0x2c]
        0x00006cce:    5553        SU      STRB     r3,[r2,r5]
        0x00006cd0:    280a        .(      CMP      r0,#0xa
        0x00006cd2:    d001        ..      BEQ      0x6cd8 ; uart_receive_function + 64
        0x00006cd4:    280d        .(      CMP      r0,#0xd
        0x00006cd6:    d1e7        ..      BNE      0x6ca8 ; uart_receive_function + 16
        0x00006cd8:    2001        .       MOVS     r0,#1
        0x00006cda:    7008        .p      STRB     r0,[r1,#0]
        0x00006cdc:    bd30        0.      POP      {r4,r5,pc}
        0x00006cde:    6acd        .j      LDR      r5,[r1,#0x2c]
        0x00006ce0:    5550        PU      STRB     r0,[r2,r5]
        0x00006ce2:    6ac8        .j      LDR      r0,[r1,#0x2c]
        0x00006ce4:    1c40        @.      ADDS     r0,r0,#1
        0x00006ce6:    62c8        .b      STR      r0,[r1,#0x2c]
        0x00006ce8:    e7de        ..      B        0x6ca8 ; uart_receive_function + 16
        0x00006cea:    7888        .x      LDRB     r0,[r1,#2]
        0x00006cec:    1c45        E.      ADDS     r5,r0,#1
        0x00006cee:    708d        .p      STRB     r5,[r1,#2]
        0x00006cf0:    280a        .(      CMP      r0,#0xa
        0x00006cf2:    d9d9        ..      BLS      0x6ca8 ; uart_receive_function + 16
        0x00006cf4:    2000        .       MOVS     r0,#0
        0x00006cf6:    bd30        0.      POP      {r4,r5,pc}
    $d
        0x00006cf8:    40070000    ...@    DCD    1074200576
        0x00006cfc:    20000ef8    ...     DCD    536874744
        0x00006d00:    2000002c    ,..     DCD    536870956
    $d.realdata
    .constdata
    ACK
        0x00006d04:    3e553c24    $<U>    DCD    1045773348
        0x00006d08:    00000dec    ....    DCD    3564
        0x00006d0c:    696d696e    nimi    DCD    1768778094
        0x00006d10:    00006873    sh..    DCD    26739
        0x00006d14:    00000000    ....    DCD    0
        0x00006d18:    00000000    ....    DCD    0
        0x00006d1c:    00000000    ....    DCD    0
        0x00006d20:    74736574    test    DCD    1953719668
        0x00006d24:    72747320     str    DCD    1920234272
        0x00006d28:    00676e69    ing.    DCD    6778473
        0x00006d2c:    00000000    ....    DCD    0
        0x00006d30:    00000000    ....    DCD    0
        0x00006d34:    00000000    ....    DCD    0
        0x00006d38:    00000000    ....    DCD    0
        0x00006d3c:    00000000    ....    DCD    0
        0x00006d40:    00000000    ....    DCD    0
        0x00006d44:    00000000    ....    DCD    0
        0x00006d48:    00000000    ....    DCD    0
        0x00006d4c:    00000000    ....    DCD    0
        0x00006d50:    00000000    ....    DCD    0
    .constdata
        0x00006d54:    00b71b00    ....    DCD    12000000
        0x00006d58:    00000000    ....    DCD    0
        0x00006d5c:    00008000    ....    DCD    32768
        0x00006d60:    00b71b00    ....    DCD    12000000
        0x00006d64:    00b71b00    ....    DCD    12000000
        0x00006d68:    00000000    ....    DCD    0
        0x00006d6c:    00008000    ....    DCD    32768
        0x00006d70:    00b71b00    ....    DCD    12000000
        0x00006d74:    00b71b00    ....    DCD    12000000
        0x00006d78:    00000000    ....    DCD    0
        0x00006d7c:    00008000    ....    DCD    32768
        0x00006d80:    00b71b00    ....    DCD    12000000
    .constdata
        0x00006d84:    00b71b00    ....    DCD    12000000
        0x00006d88:    00008000    ....    DCD    32768
        0x00006d8c:    00000000    ....    DCD    0
        0x00006d90:    00000000    ....    DCD    0
        0x00006d94:    00000000    ....    DCD    0
        0x00006d98:    00002710    .'..    DCD    10000
        0x00006d9c:    00000000    ....    DCD    0
        0x00006da0:    00b71b00    ....    DCD    12000000
    .constdata
    __ctype_table
        0x00006da4:    40404000    .@@@    DCD    1077952512
        0x00006da8:    40404040    @@@@    DCD    1077952576
        0x00006dac:    41414040    @@AA    DCD    1094795328
        0x00006db0:    40414141    AAA@    DCD    1078018369
        0x00006db4:    40404040    @@@@    DCD    1077952576
        0x00006db8:    40404040    @@@@    DCD    1077952576
        0x00006dbc:    40404040    @@@@    DCD    1077952576
        0x00006dc0:    40404040    @@@@    DCD    1077952576
        0x00006dc4:    02020540    @...    DCD    33686848
        0x00006dc8:    02020202    ....    DCD    33686018
        0x00006dcc:    02020202    ....    DCD    33686018
        0x00006dd0:    02020202    ....    DCD    33686018
        0x00006dd4:    20202002    .       DCD    538976258
        0x00006dd8:    20202020            DCD    538976288
        0x00006ddc:    02202020       .    DCD    35659808
        0x00006de0:    02020202    ....    DCD    33686018
        0x00006de4:    90900202    ....    DCD    2425356802
        0x00006de8:    90909090    ....    DCD    2425393296
        0x00006dec:    10101010    ....    DCD    269488144
        0x00006df0:    10101010    ....    DCD    269488144
        0x00006df4:    10101010    ....    DCD    269488144
        0x00006df8:    10101010    ....    DCD    269488144
        0x00006dfc:    10101010    ....    DCD    269488144
        0x00006e00:    02020202    ....    DCD    33686018
        0x00006e04:    88880202    ....    DCD    2290614786
        0x00006e08:    88888888    ....    DCD    2290649224
        0x00006e0c:    08080808    ....    DCD    134744072
        0x00006e10:    08080808    ....    DCD    134744072
        0x00006e14:    08080808    ....    DCD    134744072
        0x00006e18:    08080808    ....    DCD    134744072
        0x00006e1c:    08080808    ....    DCD    134744072
        0x00006e20:    02020202    ....    DCD    33686018
        0x00006e24:    00000040    @...    DCD    64
    .constdata
    table
        0x00006e28:    00006da5    .m..    DCD    28069
    .conststring
        0x00006e2c:    252c534d    MS,%    DCD    623661901
        0x00006e30:    64252c64    d,%d    DCD    1680157796
        0x00006e34:    2c64252c    ,%d,    DCD    744760620
        0x00006e38:    252c6425    %d,%    DCD    623666213
        0x00006e3c:    64252c64    d,%d    DCD    1680157796
        0x00006e40:    2c64252c    ,%d,    DCD    744760620
        0x00006e44:    252c6425    %d,%    DCD    623666213
        0x00006e48:    64252c64    d,%d    DCD    1680157796
        0x00006e4c:    2c64252c    ,%d,    DCD    744760620
        0x00006e50:    64333025    %03d    DCD    1681076261
        0x00006e54:    2c64252c    ,%d,    DCD    744760620
        0x00006e58:    252c6425    %d,%    DCD    623666213
        0x00006e5c:    30252c64    d,%0    DCD    807742564
        0x00006e60:    252c6432    2d,%    DCD    623666226
        0x00006e64:    2c643230    02d,    DCD    744763952
        0x00006e68:    64323025    %02d    DCD    1681010725
        0x00006e6c:    2c64252c    ,%d,    DCD    744760620
        0x00006e70:    252c6425    %d,%    DCD    623666213
        0x00006e74:    64252c64    d,%d    DCD    1680157796
        0x00006e78:    2c64252c    ,%d,    DCD    744760620
        0x00006e7c:    252c6425    %d,%    DCD    623666213
        0x00006e80:    64252c64    d,%d    DCD    1680157796
        0x00006e84:    2c64252c    ,%d,    DCD    744760620
        0x00006e88:    252c6425    %d,%    DCD    623666213
        0x00006e8c:    64252c64    d,%d    DCD    1680157796
        0x00006e90:    2c64252c    ,%d,    DCD    744760620
        0x00006e94:    252c6425    %d,%    DCD    623666213
        0x00006e98:    2c643130    01d,    DCD    744763696
        0x00006e9c:    64313025    %01d    DCD    1680945189
        0x00006ea0:    000d0a2c    ,...    DCD    854572
        0x00006ea4:    252c5354    TS,%    DCD    623661908
        0x00006ea8:    2c643230    02d,    DCD    744763952
        0x00006eac:    64323025    %02d    DCD    1681010725
        0x00006eb0:    3230252c    ,%02    DCD    842016044
        0x00006eb4:    30252c64    d,%0    DCD    807742564
        0x00006eb8:    252c6432    2d,%    DCD    623666226
        0x00006ebc:    2c643230    02d,    DCD    744763952
        0x00006ec0:    64323025    %02d    DCD    1681010725
        0x00006ec4:    3230252c    ,%02    DCD    842016044
        0x00006ec8:    30252c64    d,%0    DCD    807742564
        0x00006ecc:    252c6432    2d,%    DCD    623666226
        0x00006ed0:    2c643230    02d,    DCD    744763952
        0x00006ed4:    64323025    %02d    DCD    1681010725
        0x00006ed8:    3230252c    ,%02    DCD    842016044
        0x00006edc:    30252c64    d,%0    DCD    807742564
        0x00006ee0:    252c6432    2d,%    DCD    623666226
        0x00006ee4:    2c643230    02d,    DCD    744763952
        0x00006ee8:    64323025    %02d    DCD    1681010725
        0x00006eec:    3230252c    ,%02    DCD    842016044
        0x00006ef0:    30252c64    d,%0    DCD    807742564
        0x00006ef4:    252c6432    2d,%    DCD    623666226
        0x00006ef8:    2c643230    02d,    DCD    744763952
        0x00006efc:    64323025    %02d    DCD    1681010725
        0x00006f00:    3230252c    ,%02    DCD    842016044
        0x00006f04:    30252c64    d,%0    DCD    807742564
        0x00006f08:    252c6432    2d,%    DCD    623666226
        0x00006f0c:    2c643230    02d,    DCD    744763952
        0x00006f10:    64323025    %02d    DCD    1681010725
        0x00006f14:    3230252c    ,%02    DCD    842016044
        0x00006f18:    30252c64    d,%0    DCD    807742564
        0x00006f1c:    252c6432    2d,%    DCD    623666226
        0x00006f20:    2c643230    02d,    DCD    744763952
        0x00006f24:    64323025    %02d    DCD    1681010725
        0x00006f28:    3230252c    ,%02    DCD    842016044
        0x00006f2c:    30252c64    d,%0    DCD    807742564
        0x00006f30:    252c6432    2d,%    DCD    623666226
        0x00006f34:    2c643230    02d,    DCD    744763952
        0x00006f38:    64323025    %02d    DCD    1681010725
        0x00006f3c:    3230252c    ,%02    DCD    842016044
        0x00006f40:    30252c64    d,%0    DCD    807742564
        0x00006f44:    252c6432    2d,%    DCD    623666226
        0x00006f48:    2c643230    02d,    DCD    744763952
        0x00006f4c:    64323025    %02d    DCD    1681010725
        0x00006f50:    3230252c    ,%02    DCD    842016044
        0x00006f54:    30252c64    d,%0    DCD    807742564
        0x00006f58:    252c6432    2d,%    DCD    623666226
        0x00006f5c:    2c643230    02d,    DCD    744763952
        0x00006f60:    64323025    %02d    DCD    1681010725
        0x00006f64:    3230252c    ,%02    DCD    842016044
        0x00006f68:    30252c64    d,%0    DCD    807742564
        0x00006f6c:    252c6432    2d,%    DCD    623666226
        0x00006f70:    2c643230    02d,    DCD    744763952
        0x00006f74:    64323025    %02d    DCD    1681010725
        0x00006f78:    3230252c    ,%02    DCD    842016044
        0x00006f7c:    30252c64    d,%0    DCD    807742564
        0x00006f80:    252c6432    2d,%    DCD    623666226
        0x00006f84:    2c643230    02d,    DCD    744763952
        0x00006f88:    64323025    %02d    DCD    1681010725
        0x00006f8c:    3230252c    ,%02    DCD    842016044
        0x00006f90:    30252c64    d,%0    DCD    807742564
        0x00006f94:    252c6432    2d,%    DCD    623666226
        0x00006f98:    2c643230    02d,    DCD    744763952
        0x00006f9c:    64323025    %02d    DCD    1681010725
        0x00006fa0:    0000002c    ,...    DCD    44
        0x00006fa4:    30257325    %s%0    DCD    807760677
        0x00006fa8:    252c6432    2d,%    DCD    623666226
        0x00006fac:    2c643230    02d,    DCD    744763952
        0x00006fb0:    64323025    %02d    DCD    1681010725
        0x00006fb4:    3230252c    ,%02    DCD    842016044
        0x00006fb8:    30252c64    d,%0    DCD    807742564
        0x00006fbc:    252c6432    2d,%    DCD    623666226
        0x00006fc0:    2c643330    03d,    DCD    744764208
        0x00006fc4:    64333025    %03d    DCD    1681076261
        0x00006fc8:    3230252c    ,%02    DCD    842016044
        0x00006fcc:    30252c64    d,%0    DCD    807742564
        0x00006fd0:    252c6433    3d,%    DCD    623666227
        0x00006fd4:    2c643330    03d,    DCD    744764208
        0x00006fd8:    64333025    %03d    DCD    1681076261
        0x00006fdc:    3230252c    ,%02    DCD    842016044
        0x00006fe0:    30252c64    d,%0    DCD    807742564
        0x00006fe4:    252c6432    2d,%    DCD    623666226
        0x00006fe8:    2c643230    02d,    DCD    744763952
        0x00006fec:    64323025    %02d    DCD    1681010725
        0x00006ff0:    3430252c    ,%04    DCD    875570476
        0x00006ff4:    30252c64    d,%0    DCD    807742564
        0x00006ff8:    252c6434    4d,%    DCD    623666228
        0x00006ffc:    2c643230    02d,    DCD    744763952
        0x00007000:    64323025    %02d    DCD    1681010725
        0x00007004:    3230252c    ,%02    DCD    842016044
        0x00007008:    30252c64    d,%0    DCD    807742564
        0x0000700c:    252c6434    4d,%    DCD    623666228
        0x00007010:    2c643430    04d,    DCD    744764464
        0x00007014:    64323025    %02d    DCD    1681010725
        0x00007018:    3230252c    ,%02    DCD    842016044
        0x0000701c:    30252c64    d,%0    DCD    807742564
        0x00007020:    252c6432    2d,%    DCD    623666226
        0x00007024:    2c643230    02d,    DCD    744763952
        0x00007028:    64323025    %02d    DCD    1681010725
        0x0000702c:    3330252c    ,%03    DCD    858793260
        0x00007030:    30252c64    d,%0    DCD    807742564
        0x00007034:    252c6432    2d,%    DCD    623666226
        0x00007038:    2c643230    02d,    DCD    744763952
        0x0000703c:    64323025    %02d    DCD    1681010725
        0x00007040:    3230252c    ,%02    DCD    842016044
        0x00007044:    30252c64    d,%0    DCD    807742564
        0x00007048:    252c6432    2d,%    DCD    623666226
        0x0000704c:    2c643330    03d,    DCD    744764208
        0x00007050:    64333025    %03d    DCD    1681076261
        0x00007054:    3530252c    ,%05    DCD    892347692
        0x00007058:    30252c64    d,%0    DCD    807742564
        0x0000705c:    252c6435    5d,%    DCD    623666229
        0x00007060:    2c643530    05d,    DCD    744764720
        0x00007064:    64353025    %05d    DCD    1681207333
        0x00007068:    3530252c    ,%05    DCD    892347692
        0x0000706c:    30252c64    d,%0    DCD    807742564
        0x00007070:    252c6435    5d,%    DCD    623666229
        0x00007074:    2c643230    02d,    DCD    744763952
        0x00007078:    64323025    %02d    DCD    1681010725
        0x0000707c:    3230252c    ,%02    DCD    842016044
        0x00007080:    64252c64    d,%d    DCD    1680157796
        0x00007084:    2c64252c    ,%d,    DCD    744760620
        0x00007088:    64333025    %03d    DCD    1681076261
        0x0000708c:    3330252c    ,%03    DCD    858793260
        0x00007090:    30252c64    d,%0    DCD    807742564
        0x00007094:    252c6435    5d,%    DCD    623666229
        0x00007098:    2c643530    05d,    DCD    744764720
        0x0000709c:    64353025    %05d    DCD    1681207333
        0x000070a0:    3530252c    ,%05    DCD    892347692
        0x000070a4:    30252c64    d,%0    DCD    807742564
        0x000070a8:    252c6432    2d,%    DCD    623666226
        0x000070ac:    2c643230    02d,    DCD    744763952
        0x000070b0:    64323025    %02d    DCD    1681010725
        0x000070b4:    3230252c    ,%02    DCD    842016044
        0x000070b8:    30252c64    d,%0    DCD    807742564
        0x000070bc:    002c6432    2d,.    DCD    2909234
    Region$$Table$$Base
        0x000070c0:    000070e0    .p..    DCD    28896
        0x000070c4:    20000000    ...     DCD    536870912
        0x000070c8:    00000ef4    ....    DCD    3828
        0x000070cc:    000053d0    .S..    DCD    21456
        0x000070d0:    00007fd4    ....    DCD    32724
        0x000070d4:    20000ef4    ...     DCD    536874740
        0x000070d8:    0000408c    .@..    DCD    16524
        0x000070dc:    000053e0    .S..    DCD    21472
    Region$$Table$$Limit

** Section #2 'ER_RW' (SHT_PROGBITS) [SHF_ALLOC + SHF_WRITE]
    Size   : 3828 bytes (alignment 4)
    Address: 0x20000000


** Section #3 'ER_ZI' (SHT_NOBITS) [SHF_ALLOC + SHF_WRITE]
    Size   : 16524 bytes (alignment 8)
    Address: 0x20000ef4


** Section #4 '.debug_abbrev' (SHT_PROGBITS)
    Size   : 1476 bytes


** Section #5 '.debug_frame' (SHT_PROGBITS)
    Size   : 5308 bytes


** Section #6 '.debug_info' (SHT_PROGBITS)
    Size   : 100300 bytes


** Section #7 '.debug_line' (SHT_PROGBITS)
    Size   : 32652 bytes


** Section #8 '.debug_loc' (SHT_PROGBITS)
    Size   : 8360 bytes


** Section #9 '.debug_macinfo' (SHT_PROGBITS)
    Size   : 205684 bytes


** Section #10 '.debug_pubnames' (SHT_PROGBITS)
    Size   : 12219 bytes


** Section #11 '.symtab' (SHT_SYMTAB)
    Size   : 16768 bytes (alignment 4)
    String table #12 '.strtab'
    Last local symbol no. 501


** Section #12 '.strtab' (SHT_STRTAB)
    Size   : 12780 bytes


** Section #13 '.note' (SHT_NOTE)
    Size   : 28 bytes (alignment 4)


** Section #14 '.comment' (SHT_PROGBITS)
    Size   : 16956 bytes


** Section #15 '.shstrtab' (SHT_STRTAB)
    Size   : 156 bytes


